
KL25Z/sumobot_drive_mbed.elf:     file format elf32-littlearm
architecture: arm, flags 0x00000112:
EXEC_P, HAS_SYMS, D_PAGED
start address 0x000000c1


Disassembly of section .isr_vector:

00000000 <__isr_vector>:
   0:	20003000 	.word	0x20003000
   4:	000000c1 	.word	0x000000c1
   8:	00002ed3 	.word	0x00002ed3
   c:	00003efb 	.word	0x00003efb
	...
  2c:	00003e03 	.word	0x00003e03
	...
  38:	00003e89 	.word	0x00003e89
  3c:	00003ed1 	.word	0x00003ed1
  40:	00003f03 	.word	0x00003f03
  44:	00003f03 	.word	0x00003f03
  48:	00003f03 	.word	0x00003f03
  4c:	00003f03 	.word	0x00003f03
  50:	00003f03 	.word	0x00003f03
  54:	00003f03 	.word	0x00003f03
  58:	00003f03 	.word	0x00003f03
  5c:	00003f03 	.word	0x00003f03
  60:	00003f03 	.word	0x00003f03
  64:	00003f03 	.word	0x00003f03
  68:	00003f03 	.word	0x00003f03
  6c:	00003f03 	.word	0x00003f03
  70:	00003f03 	.word	0x00003f03
  74:	00003f03 	.word	0x00003f03
  78:	00003f03 	.word	0x00003f03
  7c:	00003f03 	.word	0x00003f03
  80:	00003f03 	.word	0x00003f03
  84:	00003f03 	.word	0x00003f03
  88:	00003f03 	.word	0x00003f03
  8c:	00003f03 	.word	0x00003f03
  90:	00003f03 	.word	0x00003f03
  94:	00003f03 	.word	0x00003f03
  98:	00003f03 	.word	0x00003f03
  9c:	00003f03 	.word	0x00003f03
  a0:	00003f03 	.word	0x00003f03
  a4:	00003f03 	.word	0x00003f03
  a8:	00003f03 	.word	0x00003f03
  ac:	00003f03 	.word	0x00003f03
  b0:	00003f03 	.word	0x00003f03
  b4:	00003f03 	.word	0x00003f03
  b8:	00003f03 	.word	0x00003f03
  bc:	00003f03 	.word	0x00003f03

000000c0 <Reset_Handler>:
  c0:	4907      	ldr	r1, [pc, #28]	; (e0 <Reset_Handler+0x20>)
  c2:	4a08      	ldr	r2, [pc, #32]	; (e4 <Reset_Handler+0x24>)
  c4:	4b08      	ldr	r3, [pc, #32]	; (e8 <Reset_Handler+0x28>)
  c6:	1a9b      	subs	r3, r3, r2
  c8:	dd05      	ble.n	d6 <Reset_Handler+0x16>
  ca:	2400      	movs	r4, #0
  cc:	5908      	ldr	r0, [r1, r4]
  ce:	5110      	str	r0, [r2, r4]
  d0:	3404      	adds	r4, #4
  d2:	429c      	cmp	r4, r3
  d4:	dbfa      	blt.n	cc <Reset_Handler+0xc>
  d6:	4805      	ldr	r0, [pc, #20]	; (ec <Reset_Handler+0x2c>)
  d8:	4780      	blx	r0
  da:	4805      	ldr	r0, [pc, #20]	; (f0 <Reset_Handler+0x30>)
  dc:	4700      	bx	r0
  de:	0000      	.short	0x0000
  e0:	00007a98 	.word	0x00007a98
  e4:	1ffff0c0 	.word	0x1ffff0c0
  e8:	1ffff2c4 	.word	0x1ffff2c4
  ec:	00002ee1 	.word	0x00002ee1
  f0:	00000a5d 	.word	0x00000a5d

Disassembly of section .text:

00000410 <__do_global_dtors_aux>:
     410:	b510      	push	{r4, lr}
     412:	4c06      	ldr	r4, [pc, #24]	; (42c <__do_global_dtors_aux+0x1c>)
     414:	7823      	ldrb	r3, [r4, #0]
     416:	2b00      	cmp	r3, #0
     418:	d107      	bne.n	42a <__do_global_dtors_aux+0x1a>
     41a:	4b05      	ldr	r3, [pc, #20]	; (430 <__do_global_dtors_aux+0x20>)
     41c:	2b00      	cmp	r3, #0
     41e:	d002      	beq.n	426 <__do_global_dtors_aux+0x16>
     420:	4804      	ldr	r0, [pc, #16]	; (434 <__do_global_dtors_aux+0x24>)
     422:	e000      	b.n	426 <__do_global_dtors_aux+0x16>
     424:	bf00      	nop
     426:	2301      	movs	r3, #1
     428:	7023      	strb	r3, [r4, #0]
     42a:	bd10      	pop	{r4, pc}
     42c:	1ffff2c8 	.word	0x1ffff2c8
     430:	00000000 	.word	0x00000000
     434:	00007a8c 	.word	0x00007a8c

00000438 <frame_dummy>:
     438:	4b08      	ldr	r3, [pc, #32]	; (45c <frame_dummy+0x24>)
     43a:	b510      	push	{r4, lr}
     43c:	2b00      	cmp	r3, #0
     43e:	d003      	beq.n	448 <frame_dummy+0x10>
     440:	4907      	ldr	r1, [pc, #28]	; (460 <frame_dummy+0x28>)
     442:	4808      	ldr	r0, [pc, #32]	; (464 <frame_dummy+0x2c>)
     444:	e000      	b.n	448 <frame_dummy+0x10>
     446:	bf00      	nop
     448:	4807      	ldr	r0, [pc, #28]	; (468 <frame_dummy+0x30>)
     44a:	6803      	ldr	r3, [r0, #0]
     44c:	2b00      	cmp	r3, #0
     44e:	d100      	bne.n	452 <frame_dummy+0x1a>
     450:	bd10      	pop	{r4, pc}
     452:	4b06      	ldr	r3, [pc, #24]	; (46c <frame_dummy+0x34>)
     454:	2b00      	cmp	r3, #0
     456:	d0fb      	beq.n	450 <frame_dummy+0x18>
     458:	4798      	blx	r3
     45a:	e7f9      	b.n	450 <frame_dummy+0x18>
     45c:	00000000 	.word	0x00000000
     460:	1ffff2cc 	.word	0x1ffff2cc
     464:	00007a8c 	.word	0x00007a8c
     468:	1ffff2c4 	.word	0x1ffff2c4
     46c:	00000000 	.word	0x00000000

00000470 <void mbed::Callback<void ()>::function_call<void (*)()>(void const*)>:
     470:	b510      	push	{r4, lr}
     472:	6803      	ldr	r3, [r0, #0]
     474:	4798      	blx	r3
     476:	bd10      	pop	{r4, pc}

00000478 <void mbed::Callback<void ()>::function_move<void (*)()>(void*, void const*)>:
     478:	2800      	cmp	r0, #0
     47a:	d001      	beq.n	480 <void mbed::Callback<void ()>::function_move<void (*)()>(void*, void const*)+0x8>
     47c:	680b      	ldr	r3, [r1, #0]
     47e:	6003      	str	r3, [r0, #0]
     480:	4770      	bx	lr

00000482 <void mbed::Callback<void ()>::function_dtor<void (*)()>(void*)>:
     482:	4770      	bx	lr

00000484 <receive_interrupt()>:
     484:	b570      	push	{r4, r5, r6, lr}
     486:	25ff      	movs	r5, #255	; 0xff
     488:	2401      	movs	r4, #1
     48a:	4e1d      	ldr	r6, [pc, #116]	; (500 <receive_interrupt()+0x7c>)
     48c:	0030      	movs	r0, r6
     48e:	f003 f893 	bl	35b8 <mbed::SerialBase::readable()>
     492:	2800      	cmp	r0, #0
     494:	d032      	beq.n	4fc <receive_interrupt()+0x78>
     496:	0030      	movs	r0, r6
     498:	3030      	adds	r0, #48	; 0x30
     49a:	f002 ff33 	bl	3304 <mbed::Stream::getc()>
     49e:	0003      	movs	r3, r0
     4a0:	402b      	ands	r3, r5
     4a2:	2b02      	cmp	r3, #2
     4a4:	d017      	beq.n	4d6 <receive_interrupt()+0x52>
     4a6:	2b03      	cmp	r3, #3
     4a8:	d01e      	beq.n	4e8 <receive_interrupt()+0x64>
     4aa:	4a16      	ldr	r2, [pc, #88]	; (504 <receive_interrupt()+0x80>)
     4ac:	7813      	ldrb	r3, [r2, #0]
     4ae:	2b07      	cmp	r3, #7
     4b0:	dceb      	bgt.n	48a <receive_interrupt()+0x6>
     4b2:	4b15      	ldr	r3, [pc, #84]	; (508 <receive_interrupt()+0x84>)
     4b4:	781b      	ldrb	r3, [r3, #0]
     4b6:	2b00      	cmp	r3, #0
     4b8:	d0e7      	beq.n	48a <receive_interrupt()+0x6>
     4ba:	4b14      	ldr	r3, [pc, #80]	; (50c <receive_interrupt()+0x88>)
     4bc:	781b      	ldrb	r3, [r3, #0]
     4be:	2b00      	cmp	r3, #0
     4c0:	d1e3      	bne.n	48a <receive_interrupt()+0x6>
     4c2:	7813      	ldrb	r3, [r2, #0]
     4c4:	4912      	ldr	r1, [pc, #72]	; (510 <receive_interrupt()+0x8c>)
     4c6:	b2db      	uxtb	r3, r3
     4c8:	b2c0      	uxtb	r0, r0
     4ca:	54c8      	strb	r0, [r1, r3]
     4cc:	7813      	ldrb	r3, [r2, #0]
     4ce:	3301      	adds	r3, #1
     4d0:	b2db      	uxtb	r3, r3
     4d2:	7013      	strb	r3, [r2, #0]
     4d4:	e7d9      	b.n	48a <receive_interrupt()+0x6>
     4d6:	4a0c      	ldr	r2, [pc, #48]	; (508 <receive_interrupt()+0x84>)
     4d8:	7813      	ldrb	r3, [r2, #0]
     4da:	b2db      	uxtb	r3, r3
     4dc:	2b00      	cmp	r3, #0
     4de:	d1d4      	bne.n	48a <receive_interrupt()+0x6>
     4e0:	4908      	ldr	r1, [pc, #32]	; (504 <receive_interrupt()+0x80>)
     4e2:	700b      	strb	r3, [r1, #0]
     4e4:	7014      	strb	r4, [r2, #0]
     4e6:	e7d0      	b.n	48a <receive_interrupt()+0x6>
     4e8:	4b07      	ldr	r3, [pc, #28]	; (508 <receive_interrupt()+0x84>)
     4ea:	781b      	ldrb	r3, [r3, #0]
     4ec:	2b00      	cmp	r3, #0
     4ee:	d0cc      	beq.n	48a <receive_interrupt()+0x6>
     4f0:	4b06      	ldr	r3, [pc, #24]	; (50c <receive_interrupt()+0x88>)
     4f2:	781a      	ldrb	r2, [r3, #0]
     4f4:	2a00      	cmp	r2, #0
     4f6:	d1c8      	bne.n	48a <receive_interrupt()+0x6>
     4f8:	701c      	strb	r4, [r3, #0]
     4fa:	e7c6      	b.n	48a <receive_interrupt()+0x6>
     4fc:	bd70      	pop	{r4, r5, r6, pc}
     4fe:	46c0      	nop			; (mov r8, r8)
     500:	1ffff3b0 	.word	0x1ffff3b0
     504:	1ffff3ac 	.word	0x1ffff3ac
     508:	1ffff418 	.word	0x1ffff418
     50c:	1ffff2f0 	.word	0x1ffff2f0
     510:	1ffff3a4 	.word	0x1ffff3a4

00000514 <process_msg()>:
     514:	b570      	push	{r4, r5, r6, lr}
     516:	2400      	movs	r4, #0
     518:	4b1e      	ldr	r3, [pc, #120]	; (594 <process_msg()+0x80>)
     51a:	781b      	ldrb	r3, [r3, #0]
     51c:	429c      	cmp	r4, r3
     51e:	da33      	bge.n	588 <process_msg()+0x74>
     520:	4a1d      	ldr	r2, [pc, #116]	; (598 <process_msg()+0x84>)
     522:	5d13      	ldrb	r3, [r2, r4]
     524:	b2db      	uxtb	r3, r3
     526:	2b04      	cmp	r3, #4
     528:	d004      	beq.n	534 <process_msg()+0x20>
     52a:	2b05      	cmp	r3, #5
     52c:	d019      	beq.n	562 <process_msg()+0x4e>
     52e:	3402      	adds	r4, #2
     530:	b2e4      	uxtb	r4, r4
     532:	e7f1      	b.n	518 <process_msg()+0x4>
     534:	1c63      	adds	r3, r4, #1
     536:	5cd5      	ldrb	r5, [r2, r3]
     538:	f000 fb6e 	bl	c18 <core_util_critical_section_enter>
     53c:	b2ed      	uxtb	r5, r5
     53e:	0028      	movs	r0, r5
     540:	f004 fbce 	bl	4ce0 <__aeabi_ui2f>
     544:	4915      	ldr	r1, [pc, #84]	; (59c <process_msg()+0x88>)
     546:	f003 feaf 	bl	42a8 <__aeabi_fdiv>
     54a:	1c01      	adds	r1, r0, #0
     54c:	20fe      	movs	r0, #254	; 0xfe
     54e:	0580      	lsls	r0, r0, #22
     550:	f004 f9ba 	bl	48c8 <__aeabi_fsub>
     554:	1c01      	adds	r1, r0, #0
     556:	4812      	ldr	r0, [pc, #72]	; (5a0 <process_msg()+0x8c>)
     558:	f002 f8be 	bl	26d8 <pwmout_write>
     55c:	f000 fb72 	bl	c44 <core_util_critical_section_exit>
     560:	e7e5      	b.n	52e <process_msg()+0x1a>
     562:	1c63      	adds	r3, r4, #1
     564:	5cd5      	ldrb	r5, [r2, r3]
     566:	f000 fb57 	bl	c18 <core_util_critical_section_enter>
     56a:	b2ed      	uxtb	r5, r5
     56c:	0028      	movs	r0, r5
     56e:	f004 fbb7 	bl	4ce0 <__aeabi_ui2f>
     572:	490a      	ldr	r1, [pc, #40]	; (59c <process_msg()+0x88>)
     574:	f003 fe98 	bl	42a8 <__aeabi_fdiv>
     578:	1c01      	adds	r1, r0, #0
     57a:	20fe      	movs	r0, #254	; 0xfe
     57c:	0580      	lsls	r0, r0, #22
     57e:	f004 f9a3 	bl	48c8 <__aeabi_fsub>
     582:	1c01      	adds	r1, r0, #0
     584:	4807      	ldr	r0, [pc, #28]	; (5a4 <process_msg()+0x90>)
     586:	e7e7      	b.n	558 <process_msg()+0x44>
     588:	2300      	movs	r3, #0
     58a:	4a07      	ldr	r2, [pc, #28]	; (5a8 <process_msg()+0x94>)
     58c:	7013      	strb	r3, [r2, #0]
     58e:	4a07      	ldr	r2, [pc, #28]	; (5ac <process_msg()+0x98>)
     590:	7013      	strb	r3, [r2, #0]
     592:	bd70      	pop	{r4, r5, r6, pc}
     594:	1ffff3ac 	.word	0x1ffff3ac
     598:	1ffff3a4 	.word	0x1ffff3a4
     59c:	42c80000 	.word	0x42c80000
     5a0:	1ffff40c 	.word	0x1ffff40c
     5a4:	1ffff2e4 	.word	0x1ffff2e4
     5a8:	1ffff418 	.word	0x1ffff418
     5ac:	1ffff2f0 	.word	0x1ffff2f0

000005b0 <mbed::Callback<void ()>::~Callback()>:
     5b0:	68c3      	ldr	r3, [r0, #12]
     5b2:	b510      	push	{r4, lr}
     5b4:	0004      	movs	r4, r0
     5b6:	2b00      	cmp	r3, #0
     5b8:	d001      	beq.n	5be <mbed::Callback<void ()>::~Callback()+0xe>
     5ba:	689b      	ldr	r3, [r3, #8]
     5bc:	4798      	blx	r3
     5be:	0020      	movs	r0, r4
     5c0:	bd10      	pop	{r4, pc}
	...

000005c4 <mbed::SerialBase::~SerialBase()>:
     5c4:	b570      	push	{r4, r5, r6, lr}
     5c6:	0006      	movs	r6, r0
     5c8:	4b08      	ldr	r3, [pc, #32]	; (5ec <mbed::SerialBase::~SerialBase()+0x28>)
     5ca:	360c      	adds	r6, #12
     5cc:	0004      	movs	r4, r0
     5ce:	6003      	str	r3, [r0, #0]
     5d0:	2e00      	cmp	r6, #0
     5d2:	d008      	beq.n	5e6 <mbed::SerialBase::~SerialBase()+0x22>
     5d4:	0005      	movs	r5, r0
     5d6:	352c      	adds	r5, #44	; 0x2c
     5d8:	42b5      	cmp	r5, r6
     5da:	d004      	beq.n	5e6 <mbed::SerialBase::~SerialBase()+0x22>
     5dc:	3d10      	subs	r5, #16
     5de:	0028      	movs	r0, r5
     5e0:	f7ff ffe6 	bl	5b0 <mbed::Callback<void ()>::~Callback()>
     5e4:	e7f8      	b.n	5d8 <mbed::SerialBase::~SerialBase()+0x14>
     5e6:	0020      	movs	r0, r4
     5e8:	bd70      	pop	{r4, r5, r6, pc}
     5ea:	46c0      	nop			; (mov r8, r8)
     5ec:	000076fc 	.word	0x000076fc

000005f0 <mbed::SerialBase::~SerialBase()>:
     5f0:	b510      	push	{r4, lr}
     5f2:	0004      	movs	r4, r0
     5f4:	f7ff ffe6 	bl	5c4 <mbed::SerialBase::~SerialBase()>
     5f8:	0020      	movs	r0, r4
     5fa:	f003 faaa 	bl	3b52 <operator delete(void*)>
     5fe:	0020      	movs	r0, r4
     600:	bd10      	pop	{r4, pc}
	...

00000604 <mbed::Serial::~Serial()>:
     604:	b510      	push	{r4, lr}
     606:	0004      	movs	r4, r0
     608:	4b07      	ldr	r3, [pc, #28]	; (628 <mbed::Serial::~Serial()+0x24>)
     60a:	6003      	str	r3, [r0, #0]
     60c:	4b07      	ldr	r3, [pc, #28]	; (62c <mbed::Serial::~Serial()+0x28>)
     60e:	6303      	str	r3, [r0, #48]	; 0x30
     610:	3044      	adds	r0, #68	; 0x44
     612:	f003 fbbf 	bl	3d94 <rtos::Mutex::~Mutex()>
     616:	0020      	movs	r0, r4
     618:	3030      	adds	r0, #48	; 0x30
     61a:	f002 fe5f 	bl	32dc <mbed::Stream::~Stream()>
     61e:	0020      	movs	r0, r4
     620:	f7ff ffd0 	bl	5c4 <mbed::SerialBase::~SerialBase()>
     624:	0020      	movs	r0, r4
     626:	bd10      	pop	{r4, pc}
     628:	000075c4 	.word	0x000075c4
     62c:	000075e4 	.word	0x000075e4

00000630 <non-virtual thunk to mbed::Serial::~Serial()>:
     630:	b408      	push	{r3}
     632:	4b02      	ldr	r3, [pc, #8]	; (63c <non-virtual thunk to mbed::Serial::~Serial()+0xc>)
     634:	469c      	mov	r12, r3
     636:	3830      	subs	r0, #48	; 0x30
     638:	bc08      	pop	{r3}
     63a:	4760      	bx	r12
     63c:	00000605 	.word	0x00000605

00000640 <main>:
     640:	2200      	movs	r2, #0
     642:	b530      	push	{r4, r5, lr}
     644:	4b17      	ldr	r3, [pc, #92]	; (6a4 <main+0x64>)
     646:	b085      	sub	sp, #20
     648:	701a      	strb	r2, [r3, #0]
     64a:	4b17      	ldr	r3, [pc, #92]	; (6a8 <main+0x68>)
     64c:	4d17      	ldr	r5, [pc, #92]	; (6ac <main+0x6c>)
     64e:	4c18      	ldr	r4, [pc, #96]	; (6b0 <main+0x70>)
     650:	9300      	str	r3, [sp, #0]
     652:	4b18      	ldr	r3, [pc, #96]	; (6b4 <main+0x74>)
     654:	4669      	mov	r1, sp
     656:	0028      	movs	r0, r5
     658:	7022      	strb	r2, [r4, #0]
     65a:	9303      	str	r3, [sp, #12]
     65c:	f003 f806 	bl	366c <mbed::SerialBase::attach(mbed::Callback<void ()>, mbed::SerialBase::IrqType)>
     660:	4668      	mov	r0, sp
     662:	f7ff ffa5 	bl	5b0 <mbed::Callback<void ()>::~Callback()>
     666:	4914      	ldr	r1, [pc, #80]	; (6b8 <main+0x78>)
     668:	4814      	ldr	r0, [pc, #80]	; (6bc <main+0x7c>)
     66a:	f002 fe5d 	bl	3328 <mbed::Stream::printf(char const*, ...)>
     66e:	2196      	movs	r1, #150	; 0x96
     670:	0028      	movs	r0, r5
     672:	0189      	lsls	r1, r1, #6
     674:	f002 ff90 	bl	3598 <mbed::SerialBase::baud(int)>
     678:	f000 face 	bl	c18 <core_util_critical_section_enter>
     67c:	4910      	ldr	r1, [pc, #64]	; (6c0 <main+0x80>)
     67e:	4811      	ldr	r0, [pc, #68]	; (6c4 <main+0x84>)
     680:	f002 f884 	bl	278c <pwmout_period>
     684:	f000 fade 	bl	c44 <core_util_critical_section_exit>
     688:	f000 fac6 	bl	c18 <core_util_critical_section_enter>
     68c:	490c      	ldr	r1, [pc, #48]	; (6c0 <main+0x80>)
     68e:	480e      	ldr	r0, [pc, #56]	; (6c8 <main+0x88>)
     690:	f002 f87c 	bl	278c <pwmout_period>
     694:	f000 fad6 	bl	c44 <core_util_critical_section_exit>
     698:	7823      	ldrb	r3, [r4, #0]
     69a:	2b00      	cmp	r3, #0
     69c:	d0fc      	beq.n	698 <main+0x58>
     69e:	f7ff ff39 	bl	514 <process_msg()>
     6a2:	e7f9      	b.n	698 <main+0x58>
     6a4:	1ffff418 	.word	0x1ffff418
     6a8:	00000485 	.word	0x00000485
     6ac:	1ffff3b0 	.word	0x1ffff3b0
     6b0:	1ffff2f0 	.word	0x1ffff2f0
     6b4:	000071e8 	.word	0x000071e8
     6b8:	000071f4 	.word	0x000071f4
     6bc:	1ffff2f4 	.word	0x1ffff2f4
     6c0:	38d1b717 	.word	0x38d1b717
     6c4:	1ffff40c 	.word	0x1ffff40c
     6c8:	1ffff2e4 	.word	0x1ffff2e4

000006cc <mbed::Serial::~Serial()>:
     6cc:	b510      	push	{r4, lr}
     6ce:	0004      	movs	r4, r0
     6d0:	f7ff ff98 	bl	604 <mbed::Serial::~Serial()>
     6d4:	0020      	movs	r0, r4
     6d6:	f003 fa3c 	bl	3b52 <operator delete(void*)>
     6da:	0020      	movs	r0, r4
     6dc:	bd10      	pop	{r4, pc}

000006de <non-virtual thunk to mbed::Serial::~Serial()>:
     6de:	b408      	push	{r3}
     6e0:	4b02      	ldr	r3, [pc, #8]	; (6ec <non-virtual thunk to mbed::Serial::~Serial()+0xe>)
     6e2:	469c      	mov	r12, r3
     6e4:	3830      	subs	r0, #48	; 0x30
     6e6:	bc08      	pop	{r3}
     6e8:	4760      	bx	r12
     6ea:	46c0      	nop			; (mov r8, r8)
     6ec:	000006cd 	.word	0x000006cd

000006f0 <_GLOBAL__sub_I_pc>:
     6f0:	2396      	movs	r3, #150	; 0x96
     6f2:	b530      	push	{r4, r5, lr}
     6f4:	4c1b      	ldr	r4, [pc, #108]	; (764 <_GLOBAL__sub_I_pc+0x74>)
     6f6:	b085      	sub	sp, #20
     6f8:	019b      	lsls	r3, r3, #6
     6fa:	9300      	str	r3, [sp, #0]
     6fc:	2204      	movs	r2, #4
     6fe:	2300      	movs	r3, #0
     700:	2108      	movs	r1, #8
     702:	0020      	movs	r0, r4
     704:	f002 fc8e 	bl	3024 <mbed::Serial::Serial(PinName, PinName, char const*, int)>
     708:	4d17      	ldr	r5, [pc, #92]	; (768 <_GLOBAL__sub_I_pc+0x78>)
     70a:	4918      	ldr	r1, [pc, #96]	; (76c <_GLOBAL__sub_I_pc+0x7c>)
     70c:	002a      	movs	r2, r5
     70e:	0020      	movs	r0, r4
     710:	f003 f9ee 	bl	3af0 <__aeabi_atexit>
     714:	f000 fa80 	bl	c18 <core_util_critical_section_enter>
     718:	4915      	ldr	r1, [pc, #84]	; (770 <_GLOBAL__sub_I_pc+0x80>)
     71a:	4816      	ldr	r0, [pc, #88]	; (774 <_GLOBAL__sub_I_pc+0x84>)
     71c:	f002 f846 	bl	27ac <pwmout_init>
     720:	f000 fa90 	bl	c44 <core_util_critical_section_exit>
     724:	f000 fa78 	bl	c18 <core_util_critical_section_enter>
     728:	4913      	ldr	r1, [pc, #76]	; (778 <_GLOBAL__sub_I_pc+0x88>)
     72a:	4814      	ldr	r0, [pc, #80]	; (77c <_GLOBAL__sub_I_pc+0x8c>)
     72c:	f002 f83e 	bl	27ac <pwmout_init>
     730:	f000 fa88 	bl	c44 <core_util_critical_section_exit>
     734:	2300      	movs	r3, #0
     736:	9303      	str	r3, [sp, #12]
     738:	23c0      	movs	r3, #192	; 0xc0
     73a:	019b      	lsls	r3, r3, #6
     73c:	9302      	str	r3, [sp, #8]
     73e:	4b10      	ldr	r3, [pc, #64]	; (780 <_GLOBAL__sub_I_pc+0x90>)
     740:	4c10      	ldr	r4, [pc, #64]	; (784 <_GLOBAL__sub_I_pc+0x94>)
     742:	9301      	str	r3, [sp, #4]
     744:	4b10      	ldr	r3, [pc, #64]	; (788 <_GLOBAL__sub_I_pc+0x98>)
     746:	4a11      	ldr	r2, [pc, #68]	; (78c <_GLOBAL__sub_I_pc+0x9c>)
     748:	9300      	str	r3, [sp, #0]
     74a:	4911      	ldr	r1, [pc, #68]	; (790 <_GLOBAL__sub_I_pc+0xa0>)
     74c:	4b11      	ldr	r3, [pc, #68]	; (794 <_GLOBAL__sub_I_pc+0xa4>)
     74e:	0020      	movs	r0, r4
     750:	f000 f894 	bl	87c <TextLCD::TextLCD(PinName, PinName, PinName, PinName, PinName, PinName, TextLCD::LCDType)>
     754:	002a      	movs	r2, r5
     756:	4910      	ldr	r1, [pc, #64]	; (798 <_GLOBAL__sub_I_pc+0xa8>)
     758:	0020      	movs	r0, r4
     75a:	f003 f9c9 	bl	3af0 <__aeabi_atexit>
     75e:	b005      	add	sp, #20
     760:	bd30      	pop	{r4, r5, pc}
     762:	46c0      	nop			; (mov r8, r8)
     764:	1ffff3b0 	.word	0x1ffff3b0
     768:	1ffff0c0 	.word	0x1ffff0c0
     76c:	00000605 	.word	0x00000605
     770:	00001048 	.word	0x00001048
     774:	1ffff40c 	.word	0x1ffff40c
     778:	0000104c 	.word	0x0000104c
     77c:	1ffff2e4 	.word	0x1ffff2e4
     780:	00003008 	.word	0x00003008
     784:	1ffff2f4 	.word	0x1ffff2f4
     788:	0000300c 	.word	0x0000300c
     78c:	0000301c 	.word	0x0000301c
     790:	00003018 	.word	0x00003018
     794:	00003004 	.word	0x00003004
     798:	0000079d 	.word	0x0000079d

0000079c <TextLCD::~TextLCD()>:
     79c:	b510      	push	{r4, lr}
     79e:	0004      	movs	r4, r0
     7a0:	4b04      	ldr	r3, [pc, #16]	; (7b4 <TextLCD::~TextLCD()+0x18>)
     7a2:	6003      	str	r3, [r0, #0]
     7a4:	3044      	adds	r0, #68	; 0x44
     7a6:	f002 fc57 	bl	3058 <mbed::BusOut::~BusOut()>
     7aa:	0020      	movs	r0, r4
     7ac:	f002 fd96 	bl	32dc <mbed::Stream::~Stream()>
     7b0:	0020      	movs	r0, r4
     7b2:	bd10      	pop	{r4, pc}
     7b4:	0000720c 	.word	0x0000720c

000007b8 <TextLCD::~TextLCD()>:
     7b8:	b510      	push	{r4, lr}
     7ba:	0004      	movs	r4, r0
     7bc:	f7ff ffee 	bl	79c <TextLCD::~TextLCD()>
     7c0:	0020      	movs	r0, r4
     7c2:	f003 f9c6 	bl	3b52 <operator delete(void*)>
     7c6:	0020      	movs	r0, r4
     7c8:	bd10      	pop	{r4, pc}

000007ca <mbed::FileLike::lseek(long, int)>:
     7ca:	b510      	push	{r4, lr}
     7cc:	6803      	ldr	r3, [r0, #0]
     7ce:	69db      	ldr	r3, [r3, #28]
     7d0:	4798      	blx	r3
     7d2:	bd10      	pop	{r4, pc}

000007d4 <mbed::FileLike::fsync()>:
     7d4:	b510      	push	{r4, lr}
     7d6:	6803      	ldr	r3, [r0, #0]
     7d8:	695b      	ldr	r3, [r3, #20]
     7da:	4798      	blx	r3
     7dc:	bd10      	pop	{r4, pc}

000007de <mbed::FileLike::flen()>:
     7de:	b510      	push	{r4, lr}
     7e0:	6803      	ldr	r3, [r0, #0]
     7e2:	6a9b      	ldr	r3, [r3, #40]	; 0x28
     7e4:	4798      	blx	r3
     7e6:	bd10      	pop	{r4, pc}

000007e8 <mbed::FileLike::lock()>:
     7e8:	4770      	bx	lr

000007ea <mbed::FileLike::unlock()>:
     7ea:	4770      	bx	lr

000007ec <TextLCD::_getc()>:
     7ec:	2001      	movs	r0, #1
     7ee:	4240      	negs	r0, r0
     7f0:	4770      	bx	lr
	...

000007f4 <TextLCD::writeByte(int)>:
     7f4:	b5f8      	push	{r3, r4, r5, r6, r7, lr}
     7f6:	0006      	movs	r6, r0
     7f8:	0004      	movs	r4, r0
     7fa:	000f      	movs	r7, r1
     7fc:	4d11      	ldr	r5, [pc, #68]	; (844 <TextLCD::writeByte(int)+0x50>)
     7fe:	3644      	adds	r6, #68	; 0x44
     800:	1109      	asrs	r1, r1, #4
     802:	0030      	movs	r0, r6
     804:	f002 fd06 	bl	3214 <mbed::BusOut::operator=(int)>
     808:	1c28      	adds	r0, r5, #0
     80a:	f003 f821 	bl	3850 <wait>
     80e:	6be3      	ldr	r3, [r4, #60]	; 0x3c
     810:	6b22      	ldr	r2, [r4, #48]	; 0x30
     812:	1c28      	adds	r0, r5, #0
     814:	601a      	str	r2, [r3, #0]
     816:	f003 f81b 	bl	3850 <wait>
     81a:	6ba3      	ldr	r3, [r4, #56]	; 0x38
     81c:	6b22      	ldr	r2, [r4, #48]	; 0x30
     81e:	0039      	movs	r1, r7
     820:	601a      	str	r2, [r3, #0]
     822:	0030      	movs	r0, r6
     824:	f002 fcf6 	bl	3214 <mbed::BusOut::operator=(int)>
     828:	1c28      	adds	r0, r5, #0
     82a:	f003 f811 	bl	3850 <wait>
     82e:	6be3      	ldr	r3, [r4, #60]	; 0x3c
     830:	6b22      	ldr	r2, [r4, #48]	; 0x30
     832:	1c28      	adds	r0, r5, #0
     834:	601a      	str	r2, [r3, #0]
     836:	f003 f80b 	bl	3850 <wait>
     83a:	6ba3      	ldr	r3, [r4, #56]	; 0x38
     83c:	6b22      	ldr	r2, [r4, #48]	; 0x30
     83e:	601a      	str	r2, [r3, #0]
     840:	bdf8      	pop	{r3, r4, r5, r6, r7, pc}
     842:	46c0      	nop			; (mov r8, r8)
     844:	3827c5ac 	.word	0x3827c5ac

00000848 <TextLCD::writeCommand(int)>:
     848:	b510      	push	{r4, lr}
     84a:	6a43      	ldr	r3, [r0, #36]	; 0x24
     84c:	6982      	ldr	r2, [r0, #24]
     84e:	601a      	str	r2, [r3, #0]
     850:	f7ff ffd0 	bl	7f4 <TextLCD::writeByte(int)>
     854:	bd10      	pop	{r4, pc}
	...

00000858 <TextLCD::cls()>:
     858:	b510      	push	{r4, lr}
     85a:	0004      	movs	r4, r0
     85c:	2101      	movs	r1, #1
     85e:	f7ff fff3 	bl	848 <TextLCD::writeCommand(int)>
     862:	4805      	ldr	r0, [pc, #20]	; (878 <TextLCD::cls()+0x20>)
     864:	f002 fff4 	bl	3850 <wait>
     868:	0022      	movs	r2, r4
     86a:	2300      	movs	r3, #0
     86c:	32a8      	adds	r2, #168	; 0xa8
     86e:	34ac      	adds	r4, #172	; 0xac
     870:	6013      	str	r3, [r2, #0]
     872:	6023      	str	r3, [r4, #0]
     874:	bd10      	pop	{r4, pc}
     876:	46c0      	nop			; (mov r8, r8)
     878:	3ad6f545 	.word	0x3ad6f545

0000087c <TextLCD::TextLCD(PinName, PinName, PinName, PinName, PinName, PinName, TextLCD::LCDType)>:
     87c:	b5f0      	push	{r4, r5, r6, r7, lr}
     87e:	0004      	movs	r4, r0
     880:	0025      	movs	r5, r4
     882:	000f      	movs	r7, r1
     884:	0016      	movs	r6, r2
     886:	b095      	sub	sp, #84	; 0x54
     888:	930f      	str	r3, [sp, #60]	; 0x3c
     88a:	ab1a      	add	r3, sp, #104	; 0x68
     88c:	2200      	movs	r2, #0
     88e:	5e9b      	ldrsh	r3, [r3, r2]
     890:	2100      	movs	r1, #0
     892:	9310      	str	r3, [sp, #64]	; 0x40
     894:	ab1b      	add	r3, sp, #108	; 0x6c
     896:	2200      	movs	r2, #0
     898:	5e9b      	ldrsh	r3, [r3, r2]
     89a:	3514      	adds	r5, #20
     89c:	9311      	str	r3, [sp, #68]	; 0x44
     89e:	ab1c      	add	r3, sp, #112	; 0x70
     8a0:	2200      	movs	r2, #0
     8a2:	5e9b      	ldrsh	r3, [r3, r2]
     8a4:	9312      	str	r3, [sp, #72]	; 0x48
     8a6:	ab1d      	add	r3, sp, #116	; 0x74
     8a8:	781b      	ldrb	r3, [r3, #0]
     8aa:	9313      	str	r3, [sp, #76]	; 0x4c
     8ac:	f002 fcf6 	bl	329c <mbed::Stream::Stream(char const*)>
     8b0:	4b30      	ldr	r3, [pc, #192]	; (974 <TextLCD::TextLCD(PinName, PinName, PinName, PinName, PinName, PinName, TextLCD::LCDType)+0xf8>)
     8b2:	2218      	movs	r2, #24
     8b4:	3308      	adds	r3, #8
     8b6:	6023      	str	r3, [r4, #0]
     8b8:	2100      	movs	r1, #0
     8ba:	0028      	movs	r0, r5
     8bc:	f004 fe80 	bl	55c0 <memset>
     8c0:	0028      	movs	r0, r5
     8c2:	0039      	movs	r1, r7
     8c4:	3518      	adds	r5, #24
     8c6:	f000 f924 	bl	b12 <gpio_init_out>
     8ca:	2218      	movs	r2, #24
     8cc:	2100      	movs	r1, #0
     8ce:	0028      	movs	r0, r5
     8d0:	f004 fe76 	bl	55c0 <memset>
     8d4:	0028      	movs	r0, r5
     8d6:	0031      	movs	r1, r6
     8d8:	f000 f91b 	bl	b12 <gpio_init_out>
     8dc:	2301      	movs	r3, #1
     8de:	0020      	movs	r0, r4
     8e0:	425b      	negs	r3, r3
     8e2:	930c      	str	r3, [sp, #48]	; 0x30
     8e4:	930b      	str	r3, [sp, #44]	; 0x2c
     8e6:	930a      	str	r3, [sp, #40]	; 0x28
     8e8:	9309      	str	r3, [sp, #36]	; 0x24
     8ea:	9308      	str	r3, [sp, #32]
     8ec:	9307      	str	r3, [sp, #28]
     8ee:	9306      	str	r3, [sp, #24]
     8f0:	9305      	str	r3, [sp, #20]
     8f2:	9304      	str	r3, [sp, #16]
     8f4:	9303      	str	r3, [sp, #12]
     8f6:	9302      	str	r3, [sp, #8]
     8f8:	9301      	str	r3, [sp, #4]
     8fa:	9b12      	ldr	r3, [sp, #72]	; 0x48
     8fc:	9a10      	ldr	r2, [sp, #64]	; 0x40
     8fe:	9300      	str	r3, [sp, #0]
     900:	990f      	ldr	r1, [sp, #60]	; 0x3c
     902:	9b11      	ldr	r3, [sp, #68]	; 0x44
     904:	3044      	adds	r0, #68	; 0x44
     906:	f002 fbd5 	bl	30b4 <mbed::BusOut::BusOut(PinName, PinName, PinName, PinName, PinName, PinName, PinName, PinName, PinName, PinName, PinName, PinName, PinName, PinName, PinName, PinName)>
     90a:	214c      	movs	r1, #76	; 0x4c
     90c:	466a      	mov	r2, sp
     90e:	0023      	movs	r3, r4
     910:	1852      	adds	r2, r2, r1
     912:	7812      	ldrb	r2, [r2, #0]
     914:	33a4      	adds	r3, #164	; 0xa4
     916:	701a      	strb	r2, [r3, #0]
     918:	6ba3      	ldr	r3, [r4, #56]	; 0x38
     91a:	6b22      	ldr	r2, [r4, #48]	; 0x30
     91c:	4816      	ldr	r0, [pc, #88]	; (978 <TextLCD::TextLCD(PinName, PinName, PinName, PinName, PinName, PinName, TextLCD::LCDType)+0xfc>)
     91e:	601a      	str	r2, [r3, #0]
     920:	69a2      	ldr	r2, [r4, #24]
     922:	6a63      	ldr	r3, [r4, #36]	; 0x24
     924:	2503      	movs	r5, #3
     926:	601a      	str	r2, [r3, #0]
     928:	f002 ff92 	bl	3850 <wait>
     92c:	2103      	movs	r1, #3
     92e:	0020      	movs	r0, r4
     930:	f7ff ff60 	bl	7f4 <TextLCD::writeByte(int)>
     934:	3d01      	subs	r5, #1
     936:	4811      	ldr	r0, [pc, #68]	; (97c <TextLCD::TextLCD(PinName, PinName, PinName, PinName, PinName, PinName, TextLCD::LCDType)+0x100>)
     938:	f002 ff8a 	bl	3850 <wait>
     93c:	2d00      	cmp	r5, #0
     93e:	d1f5      	bne.n	92c <TextLCD::TextLCD(PinName, PinName, PinName, PinName, PinName, PinName, TextLCD::LCDType)+0xb0>
     940:	2102      	movs	r1, #2
     942:	0020      	movs	r0, r4
     944:	f7ff ff56 	bl	7f4 <TextLCD::writeByte(int)>
     948:	480d      	ldr	r0, [pc, #52]	; (980 <TextLCD::TextLCD(PinName, PinName, PinName, PinName, PinName, PinName, TextLCD::LCDType)+0x104>)
     94a:	f002 ff81 	bl	3850 <wait>
     94e:	0020      	movs	r0, r4
     950:	2128      	movs	r1, #40	; 0x28
     952:	f7ff ff79 	bl	848 <TextLCD::writeCommand(int)>
     956:	0020      	movs	r0, r4
     958:	210c      	movs	r1, #12
     95a:	f7ff ff75 	bl	848 <TextLCD::writeCommand(int)>
     95e:	2106      	movs	r1, #6
     960:	0020      	movs	r0, r4
     962:	f7ff ff71 	bl	848 <TextLCD::writeCommand(int)>
     966:	0020      	movs	r0, r4
     968:	f7ff ff76 	bl	858 <TextLCD::cls()>
     96c:	0020      	movs	r0, r4
     96e:	b015      	add	sp, #84	; 0x54
     970:	bdf0      	pop	{r4, r5, r6, r7, pc}
     972:	46c0      	nop			; (mov r8, r8)
     974:	00007204 	.word	0x00007204
     978:	3c75c28f 	.word	0x3c75c28f
     97c:	3ad6f545 	.word	0x3ad6f545
     980:	3827c5ac 	.word	0x3827c5ac

00000984 <TextLCD::writeData(int)>:
     984:	b510      	push	{r4, lr}
     986:	6a03      	ldr	r3, [r0, #32]
     988:	6982      	ldr	r2, [r0, #24]
     98a:	601a      	str	r2, [r3, #0]
     98c:	f7ff ff32 	bl	7f4 <TextLCD::writeByte(int)>
     990:	bd10      	pop	{r4, pc}

00000992 <TextLCD::address(int, int)>:
     992:	b500      	push	{lr}
     994:	30a4      	adds	r0, #164	; 0xa4
     996:	7803      	ldrb	r3, [r0, #0]
     998:	2b01      	cmp	r3, #1
     99a:	d011      	beq.n	9c0 <TextLCD::address(int, int)+0x2e>
     99c:	2b03      	cmp	r3, #3
     99e:	d114      	bne.n	9ca <TextLCD::address(int, int)+0x38>
     9a0:	2a03      	cmp	r2, #3
     9a2:	d80d      	bhi.n	9c0 <TextLCD::address(int, int)+0x2e>
     9a4:	0010      	movs	r0, r2
     9a6:	f003 faad 	bl	3f04 <__gnu_thumb1_case_uqi>
     9aa:	0502      	.short	0x0502
     9ac:	0907      	.short	0x0907
     9ae:	3180      	adds	r1, #128	; 0x80
     9b0:	0008      	movs	r0, r1
     9b2:	bd00      	pop	{pc}
     9b4:	31c0      	adds	r1, #192	; 0xc0
     9b6:	e7fb      	b.n	9b0 <TextLCD::address(int, int)+0x1e>
     9b8:	3194      	adds	r1, #148	; 0x94
     9ba:	e7f9      	b.n	9b0 <TextLCD::address(int, int)+0x1e>
     9bc:	31d4      	adds	r1, #212	; 0xd4
     9be:	e7f7      	b.n	9b0 <TextLCD::address(int, int)+0x1e>
     9c0:	2028      	movs	r0, #40	; 0x28
     9c2:	4350      	muls	r0, r2
     9c4:	3080      	adds	r0, #128	; 0x80
     9c6:	1840      	adds	r0, r0, r1
     9c8:	e7f3      	b.n	9b2 <TextLCD::address(int, int)+0x20>
     9ca:	3202      	adds	r2, #2
     9cc:	0192      	lsls	r2, r2, #6
     9ce:	1850      	adds	r0, r2, r1
     9d0:	e7ef      	b.n	9b2 <TextLCD::address(int, int)+0x20>

000009d2 <TextLCD::character(int, int, int)>:
     9d2:	b570      	push	{r4, r5, r6, lr}
     9d4:	001d      	movs	r5, r3
     9d6:	0004      	movs	r4, r0
     9d8:	f7ff ffdb 	bl	992 <TextLCD::address(int, int)>
     9dc:	0001      	movs	r1, r0
     9de:	0020      	movs	r0, r4
     9e0:	f7ff ff32 	bl	848 <TextLCD::writeCommand(int)>
     9e4:	0029      	movs	r1, r5
     9e6:	0020      	movs	r0, r4
     9e8:	f7ff ffcc 	bl	984 <TextLCD::writeData(int)>
     9ec:	bd70      	pop	{r4, r5, r6, pc}

000009ee <TextLCD::columns()>:
     9ee:	30a4      	adds	r0, #164	; 0xa4
     9f0:	7803      	ldrb	r3, [r0, #0]
     9f2:	2010      	movs	r0, #16
     9f4:	3b02      	subs	r3, #2
     9f6:	2b01      	cmp	r3, #1
     9f8:	d800      	bhi.n	9fc <TextLCD::columns()+0xe>
     9fa:	3004      	adds	r0, #4
     9fc:	4770      	bx	lr

000009fe <TextLCD::rows()>:
     9fe:	30a4      	adds	r0, #164	; 0xa4
     a00:	7803      	ldrb	r3, [r0, #0]
     a02:	2004      	movs	r0, #4
     a04:	2b03      	cmp	r3, #3
     a06:	d000      	beq.n	a0a <TextLCD::rows()+0xc>
     a08:	3802      	subs	r0, #2
     a0a:	4770      	bx	lr

00000a0c <TextLCD::_putc(int)>:
     a0c:	b5f7      	push	{r0, r1, r2, r4, r5, r6, r7, lr}
     a0e:	0006      	movs	r6, r0
     a10:	0005      	movs	r5, r0
     a12:	0004      	movs	r4, r0
     a14:	000f      	movs	r7, r1
     a16:	36a8      	adds	r6, #168	; 0xa8
     a18:	35ac      	adds	r5, #172	; 0xac
     a1a:	290a      	cmp	r1, #10
     a1c:	d10e      	bne.n	a3c <TextLCD::_putc(int)+0x30>
     a1e:	2300      	movs	r3, #0
     a20:	6033      	str	r3, [r6, #0]
     a22:	682b      	ldr	r3, [r5, #0]
     a24:	0020      	movs	r0, r4
     a26:	1c5e      	adds	r6, r3, #1
     a28:	602e      	str	r6, [r5, #0]
     a2a:	f7ff ffe8 	bl	9fe <TextLCD::rows()>
     a2e:	4286      	cmp	r6, r0
     a30:	db02      	blt.n	a38 <TextLCD::_putc(int)+0x2c>
     a32:	2300      	movs	r3, #0
     a34:	34ac      	adds	r4, #172	; 0xac
     a36:	6023      	str	r3, [r4, #0]
     a38:	0038      	movs	r0, r7
     a3a:	bdfe      	pop	{r1, r2, r3, r4, r5, r6, r7, pc}
     a3c:	000b      	movs	r3, r1
     a3e:	682a      	ldr	r2, [r5, #0]
     a40:	6831      	ldr	r1, [r6, #0]
     a42:	f7ff ffc6 	bl	9d2 <TextLCD::character(int, int, int)>
     a46:	6833      	ldr	r3, [r6, #0]
     a48:	0020      	movs	r0, r4
     a4a:	3301      	adds	r3, #1
     a4c:	6033      	str	r3, [r6, #0]
     a4e:	9301      	str	r3, [sp, #4]
     a50:	f7ff ffcd 	bl	9ee <TextLCD::columns()>
     a54:	9b01      	ldr	r3, [sp, #4]
     a56:	4283      	cmp	r3, r0
     a58:	dae1      	bge.n	a1e <TextLCD::_putc(int)+0x12>
     a5a:	e7ed      	b.n	a38 <TextLCD::_putc(int)+0x2c>

00000a5c <_start>:
     a5c:	4807      	ldr	r0, [pc, #28]	; (a7c <_start+0x20>)
     a5e:	4a08      	ldr	r2, [pc, #32]	; (a80 <_start+0x24>)
     a60:	b510      	push	{r4, lr}
     a62:	1a12      	subs	r2, r2, r0
     a64:	2100      	movs	r1, #0
     a66:	f004 fdab 	bl	55c0 <memset>
     a6a:	f002 fffa 	bl	3a62 <software_init_hook>
     a6e:	f004 fcdd 	bl	542c <__libc_init_array>
     a72:	f002 fffd 	bl	3a70 <__wrap_main>
     a76:	f003 f83d 	bl	3af4 <__wrap_exit>
     a7a:	46c0      	nop			; (mov r8, r8)
     a7c:	1ffff2c8 	.word	0x1ffff2c8
     a80:	20000e64 	.word	0x20000e64

00000a84 <__wrap__isatty>:
     a84:	b510      	push	{r4, lr}
     a86:	2301      	movs	r3, #1
     a88:	2802      	cmp	r0, #2
     a8a:	dd02      	ble.n	a92 <__wrap__isatty+0xe>
     a8c:	f002 ff9e 	bl	39cc <_isatty>
     a90:	0003      	movs	r3, r0
     a92:	0018      	movs	r0, r3
     a94:	bd10      	pop	{r4, pc}

00000a96 <abort>:
     a96:	b510      	push	{r4, lr}
     a98:	2001      	movs	r0, #1
     a9a:	f003 f82b 	bl	3af4 <__wrap_exit>

00000a9e <__cxa_pure_virtual>:
     a9e:	b510      	push	{r4, lr}
     aa0:	f7ff fff9 	bl	a96 <abort>

00000aa4 <_gpio_init_in>:
     aa4:	b570      	push	{r4, r5, r6, lr}
     aa6:	000d      	movs	r5, r1
     aa8:	0004      	movs	r4, r0
     aaa:	0016      	movs	r6, r2
     aac:	f001 fc52 	bl	2354 <gpio_init>
     ab0:	1c6b      	adds	r3, r5, #1
     ab2:	d007      	beq.n	ac4 <_gpio_init_in+0x20>
     ab4:	2100      	movs	r1, #0
     ab6:	0020      	movs	r0, r4
     ab8:	f001 fc6c 	bl	2394 <gpio_dir>
     abc:	0031      	movs	r1, r6
     abe:	0020      	movs	r0, r4
     ac0:	f001 fc62 	bl	2388 <gpio_mode>
     ac4:	bd70      	pop	{r4, r5, r6, pc}

00000ac6 <_gpio_init_out.part.1>:
     ac6:	b570      	push	{r4, r5, r6, lr}
     ac8:	6843      	ldr	r3, [r0, #4]
     aca:	0004      	movs	r4, r0
     acc:	000d      	movs	r5, r1
     ace:	2a00      	cmp	r2, #0
     ad0:	d00a      	beq.n	ae8 <_gpio_init_out.part.1+0x22>
     ad2:	68c2      	ldr	r2, [r0, #12]
     ad4:	6013      	str	r3, [r2, #0]
     ad6:	0020      	movs	r0, r4
     ad8:	2101      	movs	r1, #1
     ada:	f001 fc5b 	bl	2394 <gpio_dir>
     ade:	0029      	movs	r1, r5
     ae0:	0020      	movs	r0, r4
     ae2:	f001 fc51 	bl	2388 <gpio_mode>
     ae6:	bd70      	pop	{r4, r5, r6, pc}
     ae8:	6902      	ldr	r2, [r0, #16]
     aea:	e7f3      	b.n	ad4 <_gpio_init_out.part.1+0xe>

00000aec <gpio_init_in>:
     aec:	b510      	push	{r4, lr}
     aee:	2202      	movs	r2, #2
     af0:	f7ff ffd8 	bl	aa4 <_gpio_init_in>
     af4:	bd10      	pop	{r4, pc}

00000af6 <gpio_init_out_ex>:
     af6:	b570      	push	{r4, r5, r6, lr}
     af8:	000d      	movs	r5, r1
     afa:	0004      	movs	r4, r0
     afc:	0016      	movs	r6, r2
     afe:	f001 fc29 	bl	2354 <gpio_init>
     b02:	1c6b      	adds	r3, r5, #1
     b04:	d004      	beq.n	b10 <gpio_init_out_ex+0x1a>
     b06:	0032      	movs	r2, r6
     b08:	2100      	movs	r1, #0
     b0a:	0020      	movs	r0, r4
     b0c:	f7ff ffdb 	bl	ac6 <_gpio_init_out.part.1>
     b10:	bd70      	pop	{r4, r5, r6, pc}

00000b12 <gpio_init_out>:
     b12:	b510      	push	{r4, lr}
     b14:	2200      	movs	r2, #0
     b16:	f7ff ffee 	bl	af6 <gpio_init_out_ex>
     b1a:	bd10      	pop	{r4, pc}

00000b1c <us_ticker_irq_handler>:
     b1c:	b510      	push	{r4, lr}
     b1e:	4802      	ldr	r0, [pc, #8]	; (b28 <us_ticker_irq_handler+0xc>)
     b20:	f000 f804 	bl	b2c <ticker_irq_handler>
     b24:	bd10      	pop	{r4, pc}
     b26:	46c0      	nop			; (mov r8, r8)
     b28:	00007254 	.word	0x00007254

00000b2c <ticker_irq_handler>:
     b2c:	6803      	ldr	r3, [r0, #0]
     b2e:	b570      	push	{r4, r5, r6, lr}
     b30:	68db      	ldr	r3, [r3, #12]
     b32:	0004      	movs	r4, r0
     b34:	4798      	blx	r3
     b36:	6863      	ldr	r3, [r4, #4]
     b38:	685a      	ldr	r2, [r3, #4]
     b3a:	6823      	ldr	r3, [r4, #0]
     b3c:	2a00      	cmp	r2, #0
     b3e:	d102      	bne.n	b46 <ticker_irq_handler+0x1a>
     b40:	689b      	ldr	r3, [r3, #8]
     b42:	4798      	blx	r3
     b44:	bd70      	pop	{r4, r5, r6, pc}
     b46:	685b      	ldr	r3, [r3, #4]
     b48:	6815      	ldr	r5, [r2, #0]
     b4a:	4798      	blx	r3
     b4c:	6863      	ldr	r3, [r4, #4]
     b4e:	1a2d      	subs	r5, r5, r0
     b50:	685a      	ldr	r2, [r3, #4]
     b52:	2d00      	cmp	r5, #0
     b54:	dc07      	bgt.n	b66 <ticker_irq_handler+0x3a>
     b56:	6891      	ldr	r1, [r2, #8]
     b58:	6059      	str	r1, [r3, #4]
     b5a:	681b      	ldr	r3, [r3, #0]
     b5c:	2b00      	cmp	r3, #0
     b5e:	d0ea      	beq.n	b36 <ticker_irq_handler+0xa>
     b60:	6850      	ldr	r0, [r2, #4]
     b62:	4798      	blx	r3
     b64:	e7e7      	b.n	b36 <ticker_irq_handler+0xa>
     b66:	6823      	ldr	r3, [r4, #0]
     b68:	6810      	ldr	r0, [r2, #0]
     b6a:	691b      	ldr	r3, [r3, #16]
     b6c:	4798      	blx	r3
     b6e:	e7e9      	b.n	b44 <ticker_irq_handler+0x18>

00000b70 <pinmap_pinout>:
     b70:	b510      	push	{r4, lr}
     b72:	0004      	movs	r4, r0
     b74:	1c43      	adds	r3, r0, #1
     b76:	d10c      	bne.n	b92 <pinmap_pinout+0x22>
     b78:	bd10      	pop	{r4, pc}
     b7a:	429c      	cmp	r4, r3
     b7c:	d108      	bne.n	b90 <pinmap_pinout+0x20>
     b7e:	0020      	movs	r0, r4
     b80:	6889      	ldr	r1, [r1, #8]
     b82:	f001 ff09 	bl	2998 <pin_function>
     b86:	2100      	movs	r1, #0
     b88:	0020      	movs	r0, r4
     b8a:	f001 ff25 	bl	29d8 <pin_mode>
     b8e:	e7f3      	b.n	b78 <pinmap_pinout+0x8>
     b90:	310c      	adds	r1, #12
     b92:	2200      	movs	r2, #0
     b94:	5e8b      	ldrsh	r3, [r1, r2]
     b96:	1c5a      	adds	r2, r3, #1
     b98:	d1ef      	bne.n	b7a <pinmap_pinout+0xa>
     b9a:	4802      	ldr	r0, [pc, #8]	; (ba4 <pinmap_pinout+0x34>)
     b9c:	f000 f896 	bl	ccc <error>
     ba0:	e7ea      	b.n	b78 <pinmap_pinout+0x8>
     ba2:	46c0      	nop			; (mov r8, r8)
     ba4:	000072a1 	.word	0x000072a1

00000ba8 <pinmap_merge>:
     ba8:	b510      	push	{r4, lr}
     baa:	4288      	cmp	r0, r1
     bac:	d008      	beq.n	bc0 <pinmap_merge+0x18>
     bae:	1c43      	adds	r3, r0, #1
     bb0:	d006      	beq.n	bc0 <pinmap_merge+0x18>
     bb2:	1c4b      	adds	r3, r1, #1
     bb4:	d006      	beq.n	bc4 <pinmap_merge+0x1c>
     bb6:	4804      	ldr	r0, [pc, #16]	; (bc8 <pinmap_merge+0x20>)
     bb8:	f000 f888 	bl	ccc <error>
     bbc:	2101      	movs	r1, #1
     bbe:	4249      	negs	r1, r1
     bc0:	0008      	movs	r0, r1
     bc2:	bd10      	pop	{r4, pc}
     bc4:	0001      	movs	r1, r0
     bc6:	e7fb      	b.n	bc0 <pinmap_merge+0x18>
     bc8:	00007270 	.word	0x00007270

00000bcc <pinmap_find_peripheral>:
     bcc:	2200      	movs	r2, #0
     bce:	5e8b      	ldrsh	r3, [r1, r2]
     bd0:	1c5a      	adds	r2, r3, #1
     bd2:	d101      	bne.n	bd8 <pinmap_find_peripheral+0xc>
     bd4:	0018      	movs	r0, r3
     bd6:	e002      	b.n	bde <pinmap_find_peripheral+0x12>
     bd8:	4283      	cmp	r3, r0
     bda:	d101      	bne.n	be0 <pinmap_find_peripheral+0x14>
     bdc:	6848      	ldr	r0, [r1, #4]
     bde:	4770      	bx	lr
     be0:	310c      	adds	r1, #12
     be2:	e7f3      	b.n	bcc <pinmap_find_peripheral>

00000be4 <pinmap_peripheral>:
     be4:	b510      	push	{r4, lr}
     be6:	0004      	movs	r4, r0
     be8:	1c43      	adds	r3, r0, #1
     bea:	d007      	beq.n	bfc <pinmap_peripheral+0x18>
     bec:	f7ff ffee 	bl	bcc <pinmap_find_peripheral>
     bf0:	0004      	movs	r4, r0
     bf2:	1c43      	adds	r3, r0, #1
     bf4:	d102      	bne.n	bfc <pinmap_peripheral+0x18>
     bf6:	4802      	ldr	r0, [pc, #8]	; (c00 <pinmap_peripheral+0x1c>)
     bf8:	f000 f868 	bl	ccc <error>
     bfc:	0020      	movs	r0, r4
     bfe:	bd10      	pop	{r4, pc}
     c00:	00007281 	.word	0x00007281

00000c04 <mbed_interface_connected>:
     c04:	b510      	push	{r4, lr}
     c06:	f000 f841 	bl	c8c <semihost_connected>
     c0a:	bd10      	pop	{r4, pc}

00000c0c <core_util_are_interrupts_enabled>:
     c0c:	f3ef 8310 	mrs	r3, PRIMASK
     c10:	2001      	movs	r0, #1
     c12:	4398      	bics	r0, r3
     c14:	4770      	bx	lr
	...

00000c18 <core_util_critical_section_enter>:
     c18:	b510      	push	{r4, lr}
     c1a:	f7ff fff7 	bl	c0c <core_util_are_interrupts_enabled>
     c1e:	b672      	cpsid	i
     c20:	4a06      	ldr	r2, [pc, #24]	; (c3c <core_util_critical_section_enter+0x24>)
     c22:	6813      	ldr	r3, [r2, #0]
     c24:	2b00      	cmp	r3, #0
     c26:	d104      	bne.n	c32 <core_util_critical_section_enter+0x1a>
     c28:	3301      	adds	r3, #1
     c2a:	4058      	eors	r0, r3
     c2c:	4b04      	ldr	r3, [pc, #16]	; (c40 <core_util_critical_section_enter+0x28>)
     c2e:	b2c0      	uxtb	r0, r0
     c30:	7018      	strb	r0, [r3, #0]
     c32:	6813      	ldr	r3, [r2, #0]
     c34:	6813      	ldr	r3, [r2, #0]
     c36:	3301      	adds	r3, #1
     c38:	6013      	str	r3, [r2, #0]
     c3a:	bd10      	pop	{r4, pc}
     c3c:	1ffff428 	.word	0x1ffff428
     c40:	1ffff424 	.word	0x1ffff424

00000c44 <core_util_critical_section_exit>:
     c44:	b510      	push	{r4, lr}
     c46:	4c09      	ldr	r4, [pc, #36]	; (c6c <core_util_critical_section_exit+0x28>)
     c48:	6823      	ldr	r3, [r4, #0]
     c4a:	2b00      	cmp	r3, #0
     c4c:	d00c      	beq.n	c68 <core_util_critical_section_exit+0x24>
     c4e:	f7ff ffdd 	bl	c0c <core_util_are_interrupts_enabled>
     c52:	6823      	ldr	r3, [r4, #0]
     c54:	3b01      	subs	r3, #1
     c56:	6023      	str	r3, [r4, #0]
     c58:	6823      	ldr	r3, [r4, #0]
     c5a:	2b00      	cmp	r3, #0
     c5c:	d104      	bne.n	c68 <core_util_critical_section_exit+0x24>
     c5e:	4b04      	ldr	r3, [pc, #16]	; (c70 <core_util_critical_section_exit+0x2c>)
     c60:	781b      	ldrb	r3, [r3, #0]
     c62:	2b00      	cmp	r3, #0
     c64:	d100      	bne.n	c68 <core_util_critical_section_exit+0x24>
     c66:	b662      	cpsie	i
     c68:	bd10      	pop	{r4, pc}
     c6a:	46c0      	nop			; (mov r8, r8)
     c6c:	1ffff428 	.word	0x1ffff428
     c70:	1ffff424 	.word	0x1ffff424

00000c74 <semihost_exit>:
     c74:	b530      	push	{r4, r5, lr}
     c76:	b085      	sub	sp, #20
     c78:	466d      	mov	r5, sp
     c7a:	2418      	movs	r4, #24
     c7c:	1c20      	adds	r0, r4, #0
     c7e:	1c29      	adds	r1, r5, #0
     c80:	beab      	bkpt	0x00ab
     c82:	1c04      	adds	r4, r0, #0
     c84:	0020      	movs	r0, r4
     c86:	b005      	add	sp, #20
     c88:	bd30      	pop	{r4, r5, pc}
	...

00000c8c <semihost_connected>:
     c8c:	4b01      	ldr	r3, [pc, #4]	; (c94 <semihost_connected+0x8>)
     c8e:	6818      	ldr	r0, [r3, #0]
     c90:	4770      	bx	lr
     c92:	46c0      	nop			; (mov r8, r8)
     c94:	1ffff0c4 	.word	0x1ffff0c4

00000c98 <mbed_die>:
     c98:	b510      	push	{r4, lr}
     c9a:	b088      	sub	sp, #32
     c9c:	f7ff ffbc 	bl	c18 <core_util_critical_section_enter>
     ca0:	4909      	ldr	r1, [pc, #36]	; (cc8 <mbed_die+0x30>)
     ca2:	a802      	add	r0, sp, #8
     ca4:	f7ff ff35 	bl	b12 <gpio_init_out>
     ca8:	2496      	movs	r4, #150	; 0x96
     caa:	9a03      	ldr	r2, [sp, #12]
     cac:	9b05      	ldr	r3, [sp, #20]
     cae:	0020      	movs	r0, r4
     cb0:	601a      	str	r2, [r3, #0]
     cb2:	9201      	str	r2, [sp, #4]
     cb4:	f002 fdd8 	bl	3868 <wait_ms>
     cb8:	9a03      	ldr	r2, [sp, #12]
     cba:	9b06      	ldr	r3, [sp, #24]
     cbc:	0020      	movs	r0, r4
     cbe:	601a      	str	r2, [r3, #0]
     cc0:	9201      	str	r2, [sp, #4]
     cc2:	f002 fdd1 	bl	3868 <wait_ms>
     cc6:	e7f0      	b.n	caa <mbed_die+0x12>
     cc8:	00001048 	.word	0x00001048

00000ccc <error>:
     ccc:	b40f      	push	{r0, r1, r2, r3}
     cce:	2001      	movs	r0, #1
     cd0:	b510      	push	{r4, lr}
     cd2:	f002 ff0f 	bl	3af4 <__wrap_exit>

00000cd6 <default_idle_hook>:
     cd6:	b510      	push	{r4, lr}
     cd8:	f001 fb6c 	bl	23b4 <hal_sleep>
     cdc:	bd10      	pop	{r4, pc}
	...

00000ce0 <rtos_idle_loop>:
     ce0:	b510      	push	{r4, lr}
     ce2:	4b02      	ldr	r3, [pc, #8]	; (cec <rtos_idle_loop+0xc>)
     ce4:	681b      	ldr	r3, [r3, #0]
     ce6:	4798      	blx	r3
     ce8:	e7fb      	b.n	ce2 <rtos_idle_loop+0x2>
     cea:	46c0      	nop			; (mov r8, r8)
     cec:	1ffff0c8 	.word	0x1ffff0c8

00000cf0 <pre_main>:
     cf0:	b510      	push	{r4, lr}
     cf2:	480c      	ldr	r0, [pc, #48]	; (d24 <pre_main+0x34>)
     cf4:	f000 fde4 	bl	18c0 <osMutexCreate>
     cf8:	0002      	movs	r2, r0
     cfa:	4b0b      	ldr	r3, [pc, #44]	; (d28 <pre_main+0x38>)
     cfc:	480b      	ldr	r0, [pc, #44]	; (d2c <pre_main+0x3c>)
     cfe:	601a      	str	r2, [r3, #0]
     d00:	f000 fdde 	bl	18c0 <osMutexCreate>
     d04:	0002      	movs	r2, r0
     d06:	4b0a      	ldr	r3, [pc, #40]	; (d30 <pre_main+0x40>)
     d08:	480a      	ldr	r0, [pc, #40]	; (d34 <pre_main+0x44>)
     d0a:	601a      	str	r2, [r3, #0]
     d0c:	f000 fdd8 	bl	18c0 <osMutexCreate>
     d10:	4b09      	ldr	r3, [pc, #36]	; (d38 <pre_main+0x48>)
     d12:	6018      	str	r0, [r3, #0]
     d14:	f004 fb8a 	bl	542c <__libc_init_array>
     d18:	2100      	movs	r1, #0
     d1a:	2000      	movs	r0, #0
     d1c:	f002 fea8 	bl	3a70 <__wrap_main>
     d20:	bd10      	pop	{r4, pc}
     d22:	46c0      	nop			; (mov r8, r8)
     d24:	00007300 	.word	0x00007300
     d28:	200008cc 	.word	0x200008cc
     d2c:	000072fc 	.word	0x000072fc
     d30:	1ffff434 	.word	0x1ffff434
     d34:	000072f8 	.word	0x000072f8
     d38:	1ffff42c 	.word	0x1ffff42c

00000d3c <os_idle_demon>:
     d3c:	b510      	push	{r4, lr}
     d3e:	f7ff ffcf 	bl	ce0 <rtos_idle_loop>
     d42:	bd10      	pop	{r4, pc}

00000d44 <os_error>:
     d44:	b510      	push	{r4, lr}
     d46:	0004      	movs	r4, r0
     d48:	f000 fd0c 	bl	1764 <svcThreadGetId>
     d4c:	0021      	movs	r1, r4
     d4e:	0002      	movs	r2, r0
     d50:	4801      	ldr	r0, [pc, #4]	; (d58 <os_error+0x14>)
     d52:	f7ff ffbb 	bl	ccc <error>
     d56:	bd10      	pop	{r4, pc}
     d58:	000072c0 	.word	0x000072c0

00000d5c <sysThreadTerminate>:
     d5c:	b510      	push	{r4, lr}
     d5e:	f002 ffe9 	bl	3d34 <thread_terminate_hook>
     d62:	bd10      	pop	{r4, pc}

00000d64 <set_stack_heap>:
     d64:	2280      	movs	r2, #128	; 0x80
     d66:	490a      	ldr	r1, [pc, #40]	; (d90 <set_stack_heap+0x2c>)
     d68:	4b0a      	ldr	r3, [pc, #40]	; (d94 <set_stack_heap+0x30>)
     d6a:	b510      	push	{r4, lr}
     d6c:	1a5b      	subs	r3, r3, r1
     d6e:	0092      	lsls	r2, r2, #2
     d70:	0018      	movs	r0, r3
     d72:	4293      	cmp	r3, r2
     d74:	d900      	bls.n	d78 <set_stack_heap+0x14>
     d76:	0010      	movs	r0, r2
     d78:	4a07      	ldr	r2, [pc, #28]	; (d98 <set_stack_heap+0x34>)
     d7a:	1a1b      	subs	r3, r3, r0
     d7c:	4c07      	ldr	r4, [pc, #28]	; (d9c <set_stack_heap+0x38>)
     d7e:	6013      	str	r3, [r2, #0]
     d80:	18cb      	adds	r3, r1, r3
     d82:	4a07      	ldr	r2, [pc, #28]	; (da0 <set_stack_heap+0x3c>)
     d84:	6023      	str	r3, [r4, #0]
     d86:	4b07      	ldr	r3, [pc, #28]	; (da4 <set_stack_heap+0x40>)
     d88:	6010      	str	r0, [r2, #0]
     d8a:	6019      	str	r1, [r3, #0]
     d8c:	bd10      	pop	{r4, pc}
     d8e:	46c0      	nop			; (mov r8, r8)
     d90:	20000e68 	.word	0x20000e68
     d94:	20003000 	.word	0x20003000
     d98:	20000604 	.word	0x20000604
     d9c:	1ffff43c 	.word	0x1ffff43c
     da0:	1ffff438 	.word	0x1ffff438
     da4:	20000608 	.word	0x20000608

00000da8 <software_init_hook_rtos>:
     da8:	f000 fe82 	bl	1ab0 <osKernelInitialize>
     dac:	f7ff ffda 	bl	d64 <set_stack_heap>
     db0:	4803      	ldr	r0, [pc, #12]	; (dc0 <software_init_hook_rtos+0x18>)
     db2:	2100      	movs	r1, #0
     db4:	f000 fe16 	bl	19e4 <osThreadCreate>
     db8:	f000 fc4c 	bl	1654 <osKernelStart>
     dbc:	e7fe      	b.n	dbc <software_init_hook_rtos+0x14>
     dbe:	0000      	.short	0x0000
     dc0:	1ffff0cc 	.word	0x1ffff0cc

00000dc4 <__rtos_malloc_lock>:
     dc4:	2101      	movs	r1, #1
     dc6:	b510      	push	{r4, lr}
     dc8:	4b02      	ldr	r3, [pc, #8]	; (dd4 <__rtos_malloc_lock+0x10>)
     dca:	4249      	negs	r1, r1
     dcc:	6818      	ldr	r0, [r3, #0]
     dce:	f000 fd99 	bl	1904 <osMutexWait>
     dd2:	bd10      	pop	{r4, pc}
     dd4:	1ffff434 	.word	0x1ffff434

00000dd8 <__rtos_malloc_unlock>:
     dd8:	b510      	push	{r4, lr}
     dda:	4b02      	ldr	r3, [pc, #8]	; (de4 <__rtos_malloc_unlock+0xc>)
     ddc:	6818      	ldr	r0, [r3, #0]
     dde:	f000 fdbb 	bl	1958 <osMutexRelease>
     de2:	bd10      	pop	{r4, pc}
     de4:	1ffff434 	.word	0x1ffff434

00000de8 <rt_put_prio>:
     de8:	7802      	ldrb	r2, [r0, #0]
     dea:	b530      	push	{r4, r5, lr}
     dec:	3a01      	subs	r2, #1
     dee:	788c      	ldrb	r4, [r1, #2]
     df0:	6843      	ldr	r3, [r0, #4]
     df2:	b2d2      	uxtb	r2, r2
     df4:	2b00      	cmp	r3, #0
     df6:	d002      	beq.n	dfe <rt_put_prio+0x16>
     df8:	789d      	ldrb	r5, [r3, #2]
     dfa:	42a5      	cmp	r5, r4
     dfc:	d208      	bcs.n	e10 <rt_put_prio+0x28>
     dfe:	604b      	str	r3, [r1, #4]
     e00:	6041      	str	r1, [r0, #4]
     e02:	2a02      	cmp	r2, #2
     e04:	d807      	bhi.n	e16 <rt_put_prio+0x2e>
     e06:	2b00      	cmp	r3, #0
     e08:	d000      	beq.n	e0c <rt_put_prio+0x24>
     e0a:	6099      	str	r1, [r3, #8]
     e0c:	6088      	str	r0, [r1, #8]
     e0e:	bd30      	pop	{r4, r5, pc}
     e10:	0018      	movs	r0, r3
     e12:	685b      	ldr	r3, [r3, #4]
     e14:	e7ee      	b.n	df4 <rt_put_prio+0xc>
     e16:	2300      	movs	r3, #0
     e18:	608b      	str	r3, [r1, #8]
     e1a:	e7f8      	b.n	e0e <rt_put_prio+0x26>

00000e1c <rt_get_first>:
     e1c:	6843      	ldr	r3, [r0, #4]
     e1e:	b510      	push	{r4, lr}
     e20:	7804      	ldrb	r4, [r0, #0]
     e22:	6859      	ldr	r1, [r3, #4]
     e24:	3c01      	subs	r4, #1
     e26:	6041      	str	r1, [r0, #4]
     e28:	2200      	movs	r2, #0
     e2a:	2c02      	cmp	r4, #2
     e2c:	d806      	bhi.n	e3c <rt_get_first+0x20>
     e2e:	4291      	cmp	r1, r2
     e30:	d001      	beq.n	e36 <rt_get_first+0x1a>
     e32:	6088      	str	r0, [r1, #8]
     e34:	605a      	str	r2, [r3, #4]
     e36:	609a      	str	r2, [r3, #8]
     e38:	0018      	movs	r0, r3
     e3a:	bd10      	pop	{r4, pc}
     e3c:	605a      	str	r2, [r3, #4]
     e3e:	e7fb      	b.n	e38 <rt_get_first+0x1c>

00000e40 <rt_put_rdy_first>:
     e40:	4b03      	ldr	r3, [pc, #12]	; (e50 <rt_put_rdy_first+0x10>)
     e42:	685a      	ldr	r2, [r3, #4]
     e44:	6042      	str	r2, [r0, #4]
     e46:	2200      	movs	r2, #0
     e48:	6058      	str	r0, [r3, #4]
     e4a:	6082      	str	r2, [r0, #8]
     e4c:	4770      	bx	lr
     e4e:	46c0      	nop			; (mov r8, r8)
     e50:	20000dc0 	.word	0x20000dc0

00000e54 <rt_put_dly>:
     e54:	4a12      	ldr	r2, [pc, #72]	; (ea0 <rt_put_dly+0x4c>)
     e56:	b510      	push	{r4, lr}
     e58:	68d3      	ldr	r3, [r2, #12]
     e5a:	2b00      	cmp	r3, #0
     e5c:	d013      	beq.n	e86 <rt_put_dly+0x32>
     e5e:	8a93      	ldrh	r3, [r2, #20]
     e60:	68d4      	ldr	r4, [r2, #12]
     e62:	428b      	cmp	r3, r1
     e64:	d30d      	bcc.n	e82 <rt_put_dly+0x2e>
     e66:	60c4      	str	r4, [r0, #12]
     e68:	60d0      	str	r0, [r2, #12]
     e6a:	68c4      	ldr	r4, [r0, #12]
     e6c:	6102      	str	r2, [r0, #16]
     e6e:	2c00      	cmp	r4, #0
     e70:	d000      	beq.n	e74 <rt_put_dly+0x20>
     e72:	6120      	str	r0, [r4, #16]
     e74:	1a5b      	subs	r3, r3, r1
     e76:	b29b      	uxth	r3, r3
     e78:	8283      	strh	r3, [r0, #20]
     e7a:	8a91      	ldrh	r1, [r2, #20]
     e7c:	1acb      	subs	r3, r1, r3
     e7e:	8293      	strh	r3, [r2, #20]
     e80:	e008      	b.n	e94 <rt_put_dly+0x40>
     e82:	2c00      	cmp	r4, #0
     e84:	d107      	bne.n	e96 <rt_put_dly+0x42>
     e86:	2400      	movs	r4, #0
     e88:	1acb      	subs	r3, r1, r3
     e8a:	60c4      	str	r4, [r0, #12]
     e8c:	60d0      	str	r0, [r2, #12]
     e8e:	6102      	str	r2, [r0, #16]
     e90:	8293      	strh	r3, [r2, #20]
     e92:	8284      	strh	r4, [r0, #20]
     e94:	bd10      	pop	{r4, pc}
     e96:	8aa2      	ldrh	r2, [r4, #20]
     e98:	189b      	adds	r3, r3, r2
     e9a:	0022      	movs	r2, r4
     e9c:	e7e0      	b.n	e60 <rt_put_dly+0xc>
     e9e:	46c0      	nop			; (mov r8, r8)
     ea0:	20000dd8 	.word	0x20000dd8

00000ea4 <rt_dec_dly>:
     ea4:	b570      	push	{r4, r5, r6, lr}
     ea6:	4d19      	ldr	r5, [pc, #100]	; (f0c <rt_dec_dly+0x68>)
     ea8:	68eb      	ldr	r3, [r5, #12]
     eaa:	2b00      	cmp	r3, #0
     eac:	d009      	beq.n	ec2 <rt_dec_dly+0x1e>
     eae:	2601      	movs	r6, #1
     eb0:	8aab      	ldrh	r3, [r5, #20]
     eb2:	3b01      	subs	r3, #1
     eb4:	82ab      	strh	r3, [r5, #20]
     eb6:	8aaa      	ldrh	r2, [r5, #20]
     eb8:	2a00      	cmp	r2, #0
     eba:	d102      	bne.n	ec2 <rt_dec_dly+0x1e>
     ebc:	68ec      	ldr	r4, [r5, #12]
     ebe:	2c00      	cmp	r4, #0
     ec0:	d100      	bne.n	ec4 <rt_dec_dly+0x20>
     ec2:	bd70      	pop	{r4, r5, r6, pc}
     ec4:	68a3      	ldr	r3, [r4, #8]
     ec6:	2b00      	cmp	r3, #0
     ec8:	d008      	beq.n	edc <rt_dec_dly+0x38>
     eca:	6861      	ldr	r1, [r4, #4]
     ecc:	6059      	str	r1, [r3, #4]
     ece:	6861      	ldr	r1, [r4, #4]
     ed0:	2900      	cmp	r1, #0
     ed2:	d001      	beq.n	ed8 <rt_dec_dly+0x34>
     ed4:	608b      	str	r3, [r1, #8]
     ed6:	6062      	str	r2, [r4, #4]
     ed8:	2300      	movs	r3, #0
     eda:	60a3      	str	r3, [r4, #8]
     edc:	0021      	movs	r1, r4
     ede:	480c      	ldr	r0, [pc, #48]	; (f10 <rt_dec_dly+0x6c>)
     ee0:	f7ff ff82 	bl	de8 <rt_put_prio>
     ee4:	8aa3      	ldrh	r3, [r4, #20]
     ee6:	82ab      	strh	r3, [r5, #20]
     ee8:	7863      	ldrb	r3, [r4, #1]
     eea:	2b04      	cmp	r3, #4
     eec:	d104      	bne.n	ef8 <rt_dec_dly+0x54>
     eee:	4b09      	ldr	r3, [pc, #36]	; (f14 <rt_dec_dly+0x70>)
     ef0:	8ae2      	ldrh	r2, [r4, #22]
     ef2:	681b      	ldr	r3, [r3, #0]
     ef4:	189b      	adds	r3, r3, r2
     ef6:	82a3      	strh	r3, [r4, #20]
     ef8:	2200      	movs	r2, #0
     efa:	68e3      	ldr	r3, [r4, #12]
     efc:	7066      	strb	r6, [r4, #1]
     efe:	60eb      	str	r3, [r5, #12]
     f00:	4293      	cmp	r3, r2
     f02:	d001      	beq.n	f08 <rt_dec_dly+0x64>
     f04:	611d      	str	r5, [r3, #16]
     f06:	60e2      	str	r2, [r4, #12]
     f08:	6122      	str	r2, [r4, #16]
     f0a:	e7d4      	b.n	eb6 <rt_dec_dly+0x12>
     f0c:	20000dd8 	.word	0x20000dd8
     f10:	20000dc0 	.word	0x20000dc0
     f14:	20000e54 	.word	0x20000e54

00000f18 <rt_rmv_list>:
     f18:	6883      	ldr	r3, [r0, #8]
     f1a:	2b00      	cmp	r3, #0
     f1c:	d006      	beq.n	f2c <rt_rmv_list+0x14>
     f1e:	6842      	ldr	r2, [r0, #4]
     f20:	605a      	str	r2, [r3, #4]
     f22:	6842      	ldr	r2, [r0, #4]
     f24:	2a00      	cmp	r2, #0
     f26:	d000      	beq.n	f2a <rt_rmv_list+0x12>
     f28:	6093      	str	r3, [r2, #8]
     f2a:	4770      	bx	lr
     f2c:	4b04      	ldr	r3, [pc, #16]	; (f40 <rt_rmv_list+0x28>)
     f2e:	685a      	ldr	r2, [r3, #4]
     f30:	4290      	cmp	r0, r2
     f32:	d102      	bne.n	f3a <rt_rmv_list+0x22>
     f34:	6842      	ldr	r2, [r0, #4]
     f36:	605a      	str	r2, [r3, #4]
     f38:	e7f7      	b.n	f2a <rt_rmv_list+0x12>
     f3a:	1e13      	subs	r3, r2, #0
     f3c:	d1f7      	bne.n	f2e <rt_rmv_list+0x16>
     f3e:	e7f4      	b.n	f2a <rt_rmv_list+0x12>
     f40:	20000dc0 	.word	0x20000dc0

00000f44 <rt_resort_prio>:
     f44:	b570      	push	{r4, r5, r6, lr}
     f46:	6884      	ldr	r4, [r0, #8]
     f48:	0005      	movs	r5, r0
     f4a:	2c00      	cmp	r4, #0
     f4c:	d105      	bne.n	f5a <rt_resort_prio+0x16>
     f4e:	7843      	ldrb	r3, [r0, #1]
     f50:	2b01      	cmp	r3, #1
     f52:	d10c      	bne.n	f6e <rt_resort_prio+0x2a>
     f54:	4c06      	ldr	r4, [pc, #24]	; (f70 <rt_resort_prio+0x2c>)
     f56:	e003      	b.n	f60 <rt_resort_prio+0x1c>
     f58:	68a4      	ldr	r4, [r4, #8]
     f5a:	7823      	ldrb	r3, [r4, #0]
     f5c:	2b00      	cmp	r3, #0
     f5e:	d0fb      	beq.n	f58 <rt_resort_prio+0x14>
     f60:	0028      	movs	r0, r5
     f62:	f7ff ffd9 	bl	f18 <rt_rmv_list>
     f66:	0029      	movs	r1, r5
     f68:	0020      	movs	r0, r4
     f6a:	f7ff ff3d 	bl	de8 <rt_put_prio>
     f6e:	bd70      	pop	{r4, r5, r6, pc}
     f70:	20000dc0 	.word	0x20000dc0

00000f74 <rt_rmv_dly>:
     f74:	6903      	ldr	r3, [r0, #16]
     f76:	b510      	push	{r4, lr}
     f78:	2b00      	cmp	r3, #0
     f7a:	d00d      	beq.n	f98 <rt_rmv_dly+0x24>
     f7c:	68c2      	ldr	r2, [r0, #12]
     f7e:	60da      	str	r2, [r3, #12]
     f80:	68c2      	ldr	r2, [r0, #12]
     f82:	2a00      	cmp	r2, #0
     f84:	d009      	beq.n	f9a <rt_rmv_dly+0x26>
     f86:	8a99      	ldrh	r1, [r3, #20]
     f88:	8a84      	ldrh	r4, [r0, #20]
     f8a:	1909      	adds	r1, r1, r4
     f8c:	8299      	strh	r1, [r3, #20]
     f8e:	6113      	str	r3, [r2, #16]
     f90:	2300      	movs	r3, #0
     f92:	60c3      	str	r3, [r0, #12]
     f94:	2300      	movs	r3, #0
     f96:	6103      	str	r3, [r0, #16]
     f98:	bd10      	pop	{r4, pc}
     f9a:	829a      	strh	r2, [r3, #20]
     f9c:	e7fa      	b.n	f94 <rt_rmv_dly+0x20>
	...

00000fa0 <rt_psq_enq>:
     fa0:	b570      	push	{r4, r5, r6, lr}
     fa2:	4a11      	ldr	r2, [pc, #68]	; (fe8 <rt_psq_enq+0x48>)
     fa4:	78d4      	ldrb	r4, [r2, #3]
     fa6:	f3ef 8610 	mrs	r6, PRIMASK
     faa:	f3ef 8310 	mrs	r3, PRIMASK
     fae:	b672      	cpsid	i
     fb0:	7893      	ldrb	r3, [r2, #2]
     fb2:	429c      	cmp	r4, r3
     fb4:	d911      	bls.n	fda <rt_psq_enq+0x3a>
     fb6:	3301      	adds	r3, #1
     fb8:	7093      	strb	r3, [r2, #2]
     fba:	7813      	ldrb	r3, [r2, #0]
     fbc:	1c5d      	adds	r5, r3, #1
     fbe:	42ac      	cmp	r4, r5
     fc0:	d100      	bne.n	fc4 <rt_psq_enq+0x24>
     fc2:	2500      	movs	r5, #0
     fc4:	7015      	strb	r5, [r2, #0]
     fc6:	2e00      	cmp	r6, #0
     fc8:	d100      	bne.n	fcc <rt_psq_enq+0x2c>
     fca:	b662      	cpsie	i
     fcc:	429c      	cmp	r4, r3
     fce:	d906      	bls.n	fde <rt_psq_enq+0x3e>
     fd0:	00db      	lsls	r3, r3, #3
     fd2:	18d3      	adds	r3, r2, r3
     fd4:	6058      	str	r0, [r3, #4]
     fd6:	6099      	str	r1, [r3, #8]
     fd8:	bd70      	pop	{r4, r5, r6, pc}
     fda:	2e00      	cmp	r6, #0
     fdc:	d0f5      	beq.n	fca <rt_psq_enq+0x2a>
     fde:	2002      	movs	r0, #2
     fe0:	f7ff feb0 	bl	d44 <os_error>
     fe4:	e7f8      	b.n	fd8 <rt_psq_enq+0x38>
     fe6:	46c0      	nop			; (mov r8, r8)
     fe8:	20000844 	.word	0x20000844

00000fec <rt_init_stack>:
     fec:	b5f7      	push	{r0, r1, r2, r4, r5, r6, r7, lr}
     fee:	6a83      	ldr	r3, [r0, #40]	; 0x28
     ff0:	9101      	str	r1, [sp, #4]
     ff2:	089b      	lsrs	r3, r3, #2
     ff4:	d102      	bne.n	ffc <rt_init_stack+0x10>
     ff6:	4b20      	ldr	r3, [pc, #128]	; (1078 <rt_init_stack+0x8c>)
     ff8:	881b      	ldrh	r3, [r3, #0]
     ffa:	089b      	lsrs	r3, r3, #2
     ffc:	6b06      	ldr	r6, [r0, #48]	; 0x30
     ffe:	009c      	lsls	r4, r3, #2
    1000:	1934      	adds	r4, r6, r4
    1002:	0762      	lsls	r2, r4, #29
    1004:	d500      	bpl.n	1008 <rt_init_stack+0x1c>
    1006:	3c04      	subs	r4, #4
    1008:	2780      	movs	r7, #128	; 0x80
    100a:	1f22      	subs	r2, r4, #4
    100c:	047f      	lsls	r7, r7, #17
    100e:	6017      	str	r7, [r2, #0]
    1010:	0027      	movs	r7, r4
    1012:	9a01      	ldr	r2, [sp, #4]
    1014:	0025      	movs	r5, r4
    1016:	3f08      	subs	r7, #8
    1018:	603a      	str	r2, [r7, #0]
    101a:	2200      	movs	r2, #0
    101c:	3d40      	subs	r5, #64	; 0x40
    101e:	0029      	movs	r1, r5
    1020:	4694      	mov	r12, r2
    1022:	4662      	mov	r2, r12
    1024:	c104      	stmia	r1!, {r2}
    1026:	428f      	cmp	r7, r1
    1028:	d1fb      	bne.n	1022 <rt_init_stack+0x36>
    102a:	0022      	movs	r2, r4
    102c:	69c7      	ldr	r7, [r0, #28]
    102e:	3a20      	subs	r2, #32
    1030:	6017      	str	r7, [r2, #0]
    1032:	9a01      	ldr	r2, [sp, #4]
    1034:	62c5      	str	r5, [r0, #44]	; 0x2c
    1036:	6342      	str	r2, [r0, #52]	; 0x34
    1038:	4a0f      	ldr	r2, [pc, #60]	; (1078 <rt_init_stack+0x8c>)
    103a:	6812      	ldr	r2, [r2, #0]
    103c:	9201      	str	r2, [sp, #4]
    103e:	00d2      	lsls	r2, r2, #3
    1040:	d512      	bpl.n	1068 <rt_init_stack+0x7c>
    1042:	2b11      	cmp	r3, #17
    1044:	d910      	bls.n	1068 <rt_init_stack+0x7c>
    1046:	3b10      	subs	r3, #16
    1048:	085b      	lsrs	r3, r3, #1
    104a:	00db      	lsls	r3, r3, #3
    104c:	425b      	negs	r3, r3
    104e:	001a      	movs	r2, r3
    1050:	3a38      	subs	r2, #56	; 0x38
    1052:	18a4      	adds	r4, r4, r2
    1054:	002a      	movs	r2, r5
    1056:	4909      	ldr	r1, [pc, #36]	; (107c <rt_init_stack+0x90>)
    1058:	42a2      	cmp	r2, r4
    105a:	d108      	bne.n	106e <rt_init_stack+0x82>
    105c:	18eb      	adds	r3, r5, r3
    105e:	3304      	adds	r3, #4
    1060:	429e      	cmp	r6, r3
    1062:	d201      	bcs.n	1068 <rt_init_stack+0x7c>
    1064:	4a05      	ldr	r2, [pc, #20]	; (107c <rt_init_stack+0x90>)
    1066:	601a      	str	r2, [r3, #0]
    1068:	4b05      	ldr	r3, [pc, #20]	; (1080 <rt_init_stack+0x94>)
    106a:	6033      	str	r3, [r6, #0]
    106c:	bdf7      	pop	{r0, r1, r2, r4, r5, r6, r7, pc}
    106e:	3a08      	subs	r2, #8
    1070:	6051      	str	r1, [r2, #4]
    1072:	6011      	str	r1, [r2, #0]
    1074:	e7f0      	b.n	1058 <rt_init_stack+0x6c>
    1076:	46c0      	nop			; (mov r8, r8)
    1078:	00007308 	.word	0x00007308
    107c:	cccccccc 	.word	0xcccccccc
    1080:	e25a2ea5 	.word	0xe25a2ea5

00001084 <rt_ret_val>:
    1084:	6ac3      	ldr	r3, [r0, #44]	; 0x2c
    1086:	6219      	str	r1, [r3, #32]
    1088:	4770      	bx	lr

0000108a <rt_ret_val2>:
    108a:	6ac3      	ldr	r3, [r0, #44]	; 0x2c
    108c:	6219      	str	r1, [r3, #32]
    108e:	625a      	str	r2, [r3, #36]	; 0x24
    1090:	4770      	bx	lr
	...

00001094 <rt_psh_req>:
    1094:	4b06      	ldr	r3, [pc, #24]	; (10b0 <rt_psh_req+0x1c>)
    1096:	781b      	ldrb	r3, [r3, #0]
    1098:	2b00      	cmp	r3, #0
    109a:	d104      	bne.n	10a6 <rt_psh_req+0x12>
    109c:	2280      	movs	r2, #128	; 0x80
    109e:	4b05      	ldr	r3, [pc, #20]	; (10b4 <rt_psh_req+0x20>)
    10a0:	0552      	lsls	r2, r2, #21
    10a2:	601a      	str	r2, [r3, #0]
    10a4:	4770      	bx	lr
    10a6:	2201      	movs	r2, #1
    10a8:	4b03      	ldr	r3, [pc, #12]	; (10b8 <rt_psh_req+0x24>)
    10aa:	701a      	strb	r2, [r3, #0]
    10ac:	e7fa      	b.n	10a4 <rt_psh_req+0x10>
    10ae:	46c0      	nop			; (mov r8, r8)
    10b0:	20000490 	.word	0x20000490
    10b4:	e000ed04 	.word	0xe000ed04
    10b8:	20000491 	.word	0x20000491

000010bc <rt_pop_req>:
    10bc:	4b1b      	ldr	r3, [pc, #108]	; (112c <rt_pop_req+0x70>)
    10be:	b570      	push	{r4, r5, r6, lr}
    10c0:	6818      	ldr	r0, [r3, #0]
    10c2:	2301      	movs	r3, #1
    10c4:	7043      	strb	r3, [r0, #1]
    10c6:	f7ff febb 	bl	e40 <rt_put_rdy_first>
    10ca:	4c19      	ldr	r4, [pc, #100]	; (1130 <rt_pop_req+0x74>)
    10cc:	7865      	ldrb	r5, [r4, #1]
    10ce:	78a3      	ldrb	r3, [r4, #2]
    10d0:	2b00      	cmp	r3, #0
    10d2:	d106      	bne.n	10e2 <rt_pop_req+0x26>
    10d4:	7065      	strb	r5, [r4, #1]
    10d6:	4817      	ldr	r0, [pc, #92]	; (1134 <rt_pop_req+0x78>)
    10d8:	f7ff fea0 	bl	e1c <rt_get_first>
    10dc:	f000 fdba 	bl	1c54 <rt_switch_req>
    10e0:	bd70      	pop	{r4, r5, r6, pc}
    10e2:	00eb      	lsls	r3, r5, #3
    10e4:	18e3      	adds	r3, r4, r3
    10e6:	6858      	ldr	r0, [r3, #4]
    10e8:	7802      	ldrb	r2, [r0, #0]
    10ea:	2a00      	cmp	r2, #0
    10ec:	d114      	bne.n	1118 <rt_pop_req+0x5c>
    10ee:	6899      	ldr	r1, [r3, #8]
    10f0:	b289      	uxth	r1, r1
    10f2:	f000 f9c7 	bl	1484 <rt_evt_psh>
    10f6:	78e3      	ldrb	r3, [r4, #3]
    10f8:	3501      	adds	r5, #1
    10fa:	429d      	cmp	r5, r3
    10fc:	d100      	bne.n	1100 <rt_pop_req+0x44>
    10fe:	2500      	movs	r5, #0
    1100:	f3ef 8310 	mrs	r3, PRIMASK
    1104:	f3ef 8210 	mrs	r2, PRIMASK
    1108:	b672      	cpsid	i
    110a:	78a2      	ldrb	r2, [r4, #2]
    110c:	3a01      	subs	r2, #1
    110e:	70a2      	strb	r2, [r4, #2]
    1110:	2b00      	cmp	r3, #0
    1112:	d1dc      	bne.n	10ce <rt_pop_req+0x12>
    1114:	b662      	cpsie	i
    1116:	e7da      	b.n	10ce <rt_pop_req+0x12>
    1118:	2a01      	cmp	r2, #1
    111a:	d103      	bne.n	1124 <rt_pop_req+0x68>
    111c:	6899      	ldr	r1, [r3, #8]
    111e:	f000 f93f 	bl	13a0 <rt_mbx_psh>
    1122:	e7e8      	b.n	10f6 <rt_pop_req+0x3a>
    1124:	f001 f8f2 	bl	230c <rt_sem_psh>
    1128:	e7e5      	b.n	10f6 <rt_pop_req+0x3a>
    112a:	46c0      	nop			; (mov r8, r8)
    112c:	20000e0c 	.word	0x20000e0c
    1130:	20000844 	.word	0x20000844
    1134:	20000dc0 	.word	0x20000dc0

00001138 <os_tick_init>:
    1138:	4b09      	ldr	r3, [pc, #36]	; (1160 <os_tick_init+0x28>)
    113a:	2001      	movs	r0, #1
    113c:	681a      	ldr	r2, [r3, #0]
    113e:	4b09      	ldr	r3, [pc, #36]	; (1164 <os_tick_init+0x2c>)
    1140:	4240      	negs	r0, r0
    1142:	601a      	str	r2, [r3, #0]
    1144:	2200      	movs	r2, #0
    1146:	4b08      	ldr	r3, [pc, #32]	; (1168 <os_tick_init+0x30>)
    1148:	601a      	str	r2, [r3, #0]
    114a:	4b08      	ldr	r3, [pc, #32]	; (116c <os_tick_init+0x34>)
    114c:	3207      	adds	r2, #7
    114e:	601a      	str	r2, [r3, #0]
    1150:	23ff      	movs	r3, #255	; 0xff
    1152:	4a07      	ldr	r2, [pc, #28]	; (1170 <os_tick_init+0x38>)
    1154:	061b      	lsls	r3, r3, #24
    1156:	6811      	ldr	r1, [r2, #0]
    1158:	430b      	orrs	r3, r1
    115a:	6013      	str	r3, [r2, #0]
    115c:	4770      	bx	lr
    115e:	46c0      	nop			; (mov r8, r8)
    1160:	00007320 	.word	0x00007320
    1164:	e000e014 	.word	0xe000e014
    1168:	e000e018 	.word	0xe000e018
    116c:	e000e010 	.word	0xe000e010
    1170:	e000ed20 	.word	0xe000ed20

00001174 <os_tick_irqack>:
    1174:	4770      	bx	lr
	...

00001178 <rt_systick>:
    1178:	4b0b      	ldr	r3, [pc, #44]	; (11a8 <rt_systick+0x30>)
    117a:	b510      	push	{r4, lr}
    117c:	6818      	ldr	r0, [r3, #0]
    117e:	2301      	movs	r3, #1
    1180:	7043      	strb	r3, [r0, #1]
    1182:	f7ff fe5d 	bl	e40 <rt_put_rdy_first>
    1186:	f000 f9b1 	bl	14ec <rt_chk_robin>
    118a:	4a08      	ldr	r2, [pc, #32]	; (11ac <rt_systick+0x34>)
    118c:	6813      	ldr	r3, [r2, #0]
    118e:	3301      	adds	r3, #1
    1190:	6013      	str	r3, [r2, #0]
    1192:	f7ff fe87 	bl	ea4 <rt_dec_dly>
    1196:	f000 fcdf 	bl	1b58 <sysTimerTick>
    119a:	4805      	ldr	r0, [pc, #20]	; (11b0 <rt_systick+0x38>)
    119c:	f7ff fe3e 	bl	e1c <rt_get_first>
    11a0:	f000 fd58 	bl	1c54 <rt_switch_req>
    11a4:	bd10      	pop	{r4, pc}
    11a6:	46c0      	nop			; (mov r8, r8)
    11a8:	20000e0c 	.word	0x20000e0c
    11ac:	20000e54 	.word	0x20000e54
    11b0:	20000dc0 	.word	0x20000dc0

000011b4 <rt_stk_check>:
    11b4:	4b07      	ldr	r3, [pc, #28]	; (11d4 <rt_stk_check+0x20>)
    11b6:	b510      	push	{r4, lr}
    11b8:	681a      	ldr	r2, [r3, #0]
    11ba:	6b13      	ldr	r3, [r2, #48]	; 0x30
    11bc:	6ad2      	ldr	r2, [r2, #44]	; 0x2c
    11be:	4293      	cmp	r3, r2
    11c0:	d803      	bhi.n	11ca <rt_stk_check+0x16>
    11c2:	4a05      	ldr	r2, [pc, #20]	; (11d8 <rt_stk_check+0x24>)
    11c4:	681b      	ldr	r3, [r3, #0]
    11c6:	4293      	cmp	r3, r2
    11c8:	d002      	beq.n	11d0 <rt_stk_check+0x1c>
    11ca:	2001      	movs	r0, #1
    11cc:	f7ff fdba 	bl	d44 <os_error>
    11d0:	bd10      	pop	{r4, pc}
    11d2:	46c0      	nop			; (mov r8, r8)
    11d4:	20000e0c 	.word	0x20000e0c
    11d8:	e25a2ea5 	.word	0xe25a2ea5

000011dc <_init_box>:
    11dc:	b530      	push	{r4, r5, lr}
    11de:	0003      	movs	r3, r0
    11e0:	2a00      	cmp	r2, #0
    11e2:	da18      	bge.n	1216 <_init_box+0x3a>
    11e4:	2007      	movs	r0, #7
    11e6:	2410      	movs	r4, #16
    11e8:	0052      	lsls	r2, r2, #1
    11ea:	0852      	lsrs	r2, r2, #1
    11ec:	3207      	adds	r2, #7
    11ee:	4382      	bics	r2, r0
    11f0:	2001      	movs	r0, #1
    11f2:	2a00      	cmp	r2, #0
    11f4:	d016      	beq.n	1224 <_init_box+0x48>
    11f6:	1915      	adds	r5, r2, r4
    11f8:	428d      	cmp	r5, r1
    11fa:	d813      	bhi.n	1224 <_init_box+0x48>
    11fc:	1859      	adds	r1, r3, r1
    11fe:	191c      	adds	r4, r3, r4
    1200:	4250      	negs	r0, r2
    1202:	6059      	str	r1, [r3, #4]
    1204:	601c      	str	r4, [r3, #0]
    1206:	609a      	str	r2, [r3, #8]
    1208:	1809      	adds	r1, r1, r0
    120a:	18a3      	adds	r3, r4, r2
    120c:	4299      	cmp	r1, r3
    120e:	d307      	bcc.n	1220 <_init_box+0x44>
    1210:	501b      	str	r3, [r3, r0]
    1212:	001c      	movs	r4, r3
    1214:	e7f9      	b.n	120a <_init_box+0x2e>
    1216:	2003      	movs	r0, #3
    1218:	3203      	adds	r2, #3
    121a:	4382      	bics	r2, r0
    121c:	240c      	movs	r4, #12
    121e:	e7e7      	b.n	11f0 <_init_box+0x14>
    1220:	2000      	movs	r0, #0
    1222:	6020      	str	r0, [r4, #0]
    1224:	bd30      	pop	{r4, r5, pc}

00001226 <rt_alloc_box>:
    1226:	f3ef 8210 	mrs	r2, PRIMASK
    122a:	b672      	cpsid	i
    122c:	2301      	movs	r3, #1
    122e:	401a      	ands	r2, r3
    1230:	6803      	ldr	r3, [r0, #0]
    1232:	2b00      	cmp	r3, #0
    1234:	d001      	beq.n	123a <rt_alloc_box+0x14>
    1236:	6819      	ldr	r1, [r3, #0]
    1238:	6001      	str	r1, [r0, #0]
    123a:	2a00      	cmp	r2, #0
    123c:	d100      	bne.n	1240 <rt_alloc_box+0x1a>
    123e:	b662      	cpsie	i
    1240:	0018      	movs	r0, r3
    1242:	4770      	bx	lr

00001244 <rt_free_box>:
    1244:	0003      	movs	r3, r0
    1246:	2001      	movs	r0, #1
    1248:	4299      	cmp	r1, r3
    124a:	d30c      	bcc.n	1266 <rt_free_box+0x22>
    124c:	685a      	ldr	r2, [r3, #4]
    124e:	4291      	cmp	r1, r2
    1250:	d209      	bcs.n	1266 <rt_free_box+0x22>
    1252:	f3ef 8210 	mrs	r2, PRIMASK
    1256:	b672      	cpsid	i
    1258:	6818      	ldr	r0, [r3, #0]
    125a:	6008      	str	r0, [r1, #0]
    125c:	6019      	str	r1, [r3, #0]
    125e:	2000      	movs	r0, #0
    1260:	07d3      	lsls	r3, r2, #31
    1262:	d400      	bmi.n	1266 <rt_free_box+0x22>
    1264:	b662      	cpsie	i
    1266:	4770      	bx	lr

00001268 <rt_mbx_init>:
    1268:	2301      	movs	r3, #1
    126a:	7003      	strb	r3, [r0, #0]
    126c:	2300      	movs	r3, #0
    126e:	3910      	subs	r1, #16
    1270:	0889      	lsrs	r1, r1, #2
    1272:	7043      	strb	r3, [r0, #1]
    1274:	7083      	strb	r3, [r0, #2]
    1276:	6043      	str	r3, [r0, #4]
    1278:	8103      	strh	r3, [r0, #8]
    127a:	8143      	strh	r3, [r0, #10]
    127c:	8183      	strh	r3, [r0, #12]
    127e:	81c1      	strh	r1, [r0, #14]
    1280:	4770      	bx	lr
	...

00001284 <rt_mbx_wait>:
    1284:	b570      	push	{r4, r5, r6, lr}
    1286:	0015      	movs	r5, r2
    1288:	8982      	ldrh	r2, [r0, #12]
    128a:	0004      	movs	r4, r0
    128c:	2a00      	cmp	r2, #0
    128e:	d03a      	beq.n	1306 <rt_mbx_wait+0x82>
    1290:	8943      	ldrh	r3, [r0, #10]
    1292:	1d18      	adds	r0, r3, #4
    1294:	0080      	lsls	r0, r0, #2
    1296:	5900      	ldr	r0, [r0, r4]
    1298:	3301      	adds	r3, #1
    129a:	6008      	str	r0, [r1, #0]
    129c:	89e1      	ldrh	r1, [r4, #14]
    129e:	b29b      	uxth	r3, r3
    12a0:	8163      	strh	r3, [r4, #10]
    12a2:	4299      	cmp	r1, r3
    12a4:	d101      	bne.n	12aa <rt_mbx_wait+0x26>
    12a6:	2300      	movs	r3, #0
    12a8:	8163      	strh	r3, [r4, #10]
    12aa:	6863      	ldr	r3, [r4, #4]
    12ac:	2b00      	cmp	r3, #0
    12ae:	d01e      	beq.n	12ee <rt_mbx_wait+0x6a>
    12b0:	7863      	ldrb	r3, [r4, #1]
    12b2:	2b02      	cmp	r3, #2
    12b4:	d11b      	bne.n	12ee <rt_mbx_wait+0x6a>
    12b6:	0020      	movs	r0, r4
    12b8:	f7ff fdb0 	bl	e1c <rt_get_first>
    12bc:	0005      	movs	r5, r0
    12be:	2100      	movs	r1, #0
    12c0:	f7ff fee0 	bl	1084 <rt_ret_val>
    12c4:	8923      	ldrh	r3, [r4, #8]
    12c6:	69e9      	ldr	r1, [r5, #28]
    12c8:	1d1a      	adds	r2, r3, #4
    12ca:	0092      	lsls	r2, r2, #2
    12cc:	5111      	str	r1, [r2, r4]
    12ce:	3301      	adds	r3, #1
    12d0:	89e2      	ldrh	r2, [r4, #14]
    12d2:	b29b      	uxth	r3, r3
    12d4:	8123      	strh	r3, [r4, #8]
    12d6:	429a      	cmp	r2, r3
    12d8:	d101      	bne.n	12de <rt_mbx_wait+0x5a>
    12da:	2300      	movs	r3, #0
    12dc:	8123      	strh	r3, [r4, #8]
    12de:	0028      	movs	r0, r5
    12e0:	f7ff fe48 	bl	f74 <rt_rmv_dly>
    12e4:	0028      	movs	r0, r5
    12e6:	f000 fcd3 	bl	1c90 <rt_dispatch>
    12ea:	2000      	movs	r0, #0
    12ec:	bd70      	pop	{r4, r5, r6, pc}
    12ee:	f3ef 8310 	mrs	r3, PRIMASK
    12f2:	f3ef 8110 	mrs	r1, PRIMASK
    12f6:	b672      	cpsid	i
    12f8:	2000      	movs	r0, #0
    12fa:	3a01      	subs	r2, #1
    12fc:	81a2      	strh	r2, [r4, #12]
    12fe:	4283      	cmp	r3, r0
    1300:	d1f4      	bne.n	12ec <rt_mbx_wait+0x68>
    1302:	b662      	cpsie	i
    1304:	e7f2      	b.n	12ec <rt_mbx_wait+0x68>
    1306:	2001      	movs	r0, #1
    1308:	2d00      	cmp	r5, #0
    130a:	d0ef      	beq.n	12ec <rt_mbx_wait+0x68>
    130c:	6862      	ldr	r2, [r4, #4]
    130e:	4b09      	ldr	r3, [pc, #36]	; (1334 <rt_mbx_wait+0xb0>)
    1310:	2a00      	cmp	r2, #0
    1312:	d009      	beq.n	1328 <rt_mbx_wait+0xa4>
    1314:	6819      	ldr	r1, [r3, #0]
    1316:	0020      	movs	r0, r4
    1318:	f7ff fd66 	bl	de8 <rt_put_prio>
    131c:	0028      	movs	r0, r5
    131e:	2108      	movs	r1, #8
    1320:	f000 fcd6 	bl	1cd0 <rt_block>
    1324:	2001      	movs	r0, #1
    1326:	e7e1      	b.n	12ec <rt_mbx_wait+0x68>
    1328:	681b      	ldr	r3, [r3, #0]
    132a:	6063      	str	r3, [r4, #4]
    132c:	605a      	str	r2, [r3, #4]
    132e:	609c      	str	r4, [r3, #8]
    1330:	7060      	strb	r0, [r4, #1]
    1332:	e7f3      	b.n	131c <rt_mbx_wait+0x98>
    1334:	20000e0c 	.word	0x20000e0c

00001338 <rt_mbx_check>:
    1338:	89c3      	ldrh	r3, [r0, #14]
    133a:	8980      	ldrh	r0, [r0, #12]
    133c:	1a18      	subs	r0, r3, r0
    133e:	4770      	bx	lr

00001340 <isr_mbx_send>:
    1340:	b510      	push	{r4, lr}
    1342:	f7ff fe2d 	bl	fa0 <rt_psq_enq>
    1346:	f7ff fea5 	bl	1094 <rt_psh_req>
    134a:	bd10      	pop	{r4, pc}

0000134c <isr_mbx_receive>:
    134c:	b510      	push	{r4, lr}
    134e:	0004      	movs	r4, r0
    1350:	8983      	ldrh	r3, [r0, #12]
    1352:	2000      	movs	r0, #0
    1354:	4283      	cmp	r3, r0
    1356:	d022      	beq.n	139e <isr_mbx_receive+0x52>
    1358:	8963      	ldrh	r3, [r4, #10]
    135a:	3304      	adds	r3, #4
    135c:	009b      	lsls	r3, r3, #2
    135e:	591b      	ldr	r3, [r3, r4]
    1360:	600b      	str	r3, [r1, #0]
    1362:	7863      	ldrb	r3, [r4, #1]
    1364:	2b02      	cmp	r3, #2
    1366:	d105      	bne.n	1374 <isr_mbx_receive+0x28>
    1368:	0001      	movs	r1, r0
    136a:	0020      	movs	r0, r4
    136c:	f7ff fe18 	bl	fa0 <rt_psq_enq>
    1370:	f7ff fe90 	bl	1094 <rt_psh_req>
    1374:	f3ef 8310 	mrs	r3, PRIMASK
    1378:	f3ef 8210 	mrs	r2, PRIMASK
    137c:	b672      	cpsid	i
    137e:	89a2      	ldrh	r2, [r4, #12]
    1380:	3a01      	subs	r2, #1
    1382:	81a2      	strh	r2, [r4, #12]
    1384:	2b00      	cmp	r3, #0
    1386:	d100      	bne.n	138a <isr_mbx_receive+0x3e>
    1388:	b662      	cpsie	i
    138a:	8963      	ldrh	r3, [r4, #10]
    138c:	89e2      	ldrh	r2, [r4, #14]
    138e:	3301      	adds	r3, #1
    1390:	b29b      	uxth	r3, r3
    1392:	8163      	strh	r3, [r4, #10]
    1394:	2004      	movs	r0, #4
    1396:	429a      	cmp	r2, r3
    1398:	d101      	bne.n	139e <isr_mbx_receive+0x52>
    139a:	2300      	movs	r3, #0
    139c:	8163      	strh	r3, [r4, #10]
    139e:	bd10      	pop	{r4, pc}

000013a0 <rt_mbx_psh>:
    13a0:	6843      	ldr	r3, [r0, #4]
    13a2:	b570      	push	{r4, r5, r6, lr}
    13a4:	0004      	movs	r4, r0
    13a6:	000d      	movs	r5, r1
    13a8:	2b00      	cmp	r3, #0
    13aa:	d04a      	beq.n	1442 <rt_mbx_psh+0xa2>
    13ac:	7846      	ldrb	r6, [r0, #1]
    13ae:	2e02      	cmp	r6, #2
    13b0:	d01f      	beq.n	13f2 <rt_mbx_psh+0x52>
    13b2:	2e03      	cmp	r6, #3
    13b4:	d00a      	beq.n	13cc <rt_mbx_psh+0x2c>
    13b6:	2e01      	cmp	r6, #1
    13b8:	d142      	bne.n	1440 <rt_mbx_psh+0xa0>
    13ba:	f7ff fd2f 	bl	e1c <rt_get_first>
    13be:	0004      	movs	r4, r0
    13c0:	002a      	movs	r2, r5
    13c2:	2110      	movs	r1, #16
    13c4:	f7ff fe61 	bl	108a <rt_ret_val2>
    13c8:	7066      	strb	r6, [r4, #1]
    13ca:	e00d      	b.n	13e8 <rt_mbx_psh+0x48>
    13cc:	0008      	movs	r0, r1
    13ce:	f7ff ff2a 	bl	1226 <rt_alloc_box>
    13d2:	1e05      	subs	r5, r0, #0
    13d4:	d034      	beq.n	1440 <rt_mbx_psh+0xa0>
    13d6:	0020      	movs	r0, r4
    13d8:	f7ff fd20 	bl	e1c <rt_get_first>
    13dc:	0029      	movs	r1, r5
    13de:	0004      	movs	r4, r0
    13e0:	f7ff fe50 	bl	1084 <rt_ret_val>
    13e4:	2301      	movs	r3, #1
    13e6:	7063      	strb	r3, [r4, #1]
    13e8:	0020      	movs	r0, r4
    13ea:	f7ff fdc3 	bl	f74 <rt_rmv_dly>
    13ee:	0021      	movs	r1, r4
    13f0:	e023      	b.n	143a <rt_mbx_psh+0x9a>
    13f2:	f7ff fd13 	bl	e1c <rt_get_first>
    13f6:	0005      	movs	r5, r0
    13f8:	2100      	movs	r1, #0
    13fa:	f7ff fe43 	bl	1084 <rt_ret_val>
    13fe:	8923      	ldrh	r3, [r4, #8]
    1400:	69e9      	ldr	r1, [r5, #28]
    1402:	1d1a      	adds	r2, r3, #4
    1404:	0092      	lsls	r2, r2, #2
    1406:	5111      	str	r1, [r2, r4]
    1408:	f3ef 8210 	mrs	r2, PRIMASK
    140c:	f3ef 8110 	mrs	r1, PRIMASK
    1410:	b672      	cpsid	i
    1412:	89a1      	ldrh	r1, [r4, #12]
    1414:	3101      	adds	r1, #1
    1416:	81a1      	strh	r1, [r4, #12]
    1418:	2a00      	cmp	r2, #0
    141a:	d100      	bne.n	141e <rt_mbx_psh+0x7e>
    141c:	b662      	cpsie	i
    141e:	3301      	adds	r3, #1
    1420:	89e2      	ldrh	r2, [r4, #14]
    1422:	b29b      	uxth	r3, r3
    1424:	8123      	strh	r3, [r4, #8]
    1426:	429a      	cmp	r2, r3
    1428:	d101      	bne.n	142e <rt_mbx_psh+0x8e>
    142a:	2300      	movs	r3, #0
    142c:	8123      	strh	r3, [r4, #8]
    142e:	2301      	movs	r3, #1
    1430:	0028      	movs	r0, r5
    1432:	706b      	strb	r3, [r5, #1]
    1434:	f7ff fd9e 	bl	f74 <rt_rmv_dly>
    1438:	0029      	movs	r1, r5
    143a:	4811      	ldr	r0, [pc, #68]	; (1480 <rt_mbx_psh+0xe0>)
    143c:	f7ff fcd4 	bl	de8 <rt_put_prio>
    1440:	bd70      	pop	{r4, r5, r6, pc}
    1442:	8982      	ldrh	r2, [r0, #12]
    1444:	89c0      	ldrh	r0, [r0, #14]
    1446:	4282      	cmp	r2, r0
    1448:	d215      	bcs.n	1476 <rt_mbx_psh+0xd6>
    144a:	8923      	ldrh	r3, [r4, #8]
    144c:	1d19      	adds	r1, r3, #4
    144e:	0089      	lsls	r1, r1, #2
    1450:	510d      	str	r5, [r1, r4]
    1452:	f3ef 8110 	mrs	r1, PRIMASK
    1456:	f3ef 8510 	mrs	r5, PRIMASK
    145a:	b672      	cpsid	i
    145c:	3201      	adds	r2, #1
    145e:	81a2      	strh	r2, [r4, #12]
    1460:	2900      	cmp	r1, #0
    1462:	d100      	bne.n	1466 <rt_mbx_psh+0xc6>
    1464:	b662      	cpsie	i
    1466:	3301      	adds	r3, #1
    1468:	b29b      	uxth	r3, r3
    146a:	4298      	cmp	r0, r3
    146c:	d001      	beq.n	1472 <rt_mbx_psh+0xd2>
    146e:	8123      	strh	r3, [r4, #8]
    1470:	e7e6      	b.n	1440 <rt_mbx_psh+0xa0>
    1472:	2300      	movs	r3, #0
    1474:	e7fb      	b.n	146e <rt_mbx_psh+0xce>
    1476:	2003      	movs	r0, #3
    1478:	f7ff fc64 	bl	d44 <os_error>
    147c:	e7e0      	b.n	1440 <rt_mbx_psh+0xa0>
    147e:	46c0      	nop			; (mov r8, r8)
    1480:	20000dc0 	.word	0x20000dc0

00001484 <rt_evt_psh>:
    1484:	b510      	push	{r4, lr}
    1486:	8b03      	ldrh	r3, [r0, #24]
    1488:	7842      	ldrb	r2, [r0, #1]
    148a:	4319      	orrs	r1, r3
    148c:	0004      	movs	r4, r0
    148e:	8301      	strh	r1, [r0, #24]
    1490:	8b43      	ldrh	r3, [r0, #26]
    1492:	2a06      	cmp	r2, #6
    1494:	d114      	bne.n	14c0 <rt_evt_psh+0x3c>
    1496:	001a      	movs	r2, r3
    1498:	400a      	ands	r2, r1
    149a:	4293      	cmp	r3, r2
    149c:	d10f      	bne.n	14be <rt_evt_psh+0x3a>
    149e:	4399      	bics	r1, r3
    14a0:	8321      	strh	r1, [r4, #24]
    14a2:	0020      	movs	r0, r4
    14a4:	f7ff fd66 	bl	f74 <rt_rmv_dly>
    14a8:	2301      	movs	r3, #1
    14aa:	2108      	movs	r1, #8
    14ac:	0020      	movs	r0, r4
    14ae:	7063      	strb	r3, [r4, #1]
    14b0:	8b62      	ldrh	r2, [r4, #26]
    14b2:	f7ff fdea 	bl	108a <rt_ret_val2>
    14b6:	0021      	movs	r1, r4
    14b8:	4805      	ldr	r0, [pc, #20]	; (14d0 <rt_evt_psh+0x4c>)
    14ba:	f7ff fc95 	bl	de8 <rt_put_prio>
    14be:	bd10      	pop	{r4, pc}
    14c0:	2a05      	cmp	r2, #5
    14c2:	d1fc      	bne.n	14be <rt_evt_psh+0x3a>
    14c4:	001a      	movs	r2, r3
    14c6:	400a      	ands	r2, r1
    14c8:	d0f9      	beq.n	14be <rt_evt_psh+0x3a>
    14ca:	8342      	strh	r2, [r0, #26]
    14cc:	e7e7      	b.n	149e <rt_evt_psh+0x1a>
    14ce:	46c0      	nop			; (mov r8, r8)
    14d0:	20000dc0 	.word	0x20000dc0

000014d4 <rt_init_robin>:
    14d4:	2200      	movs	r2, #0
    14d6:	4b03      	ldr	r3, [pc, #12]	; (14e4 <rt_init_robin+0x10>)
    14d8:	601a      	str	r2, [r3, #0]
    14da:	4a03      	ldr	r2, [pc, #12]	; (14e8 <rt_init_robin+0x14>)
    14dc:	6812      	ldr	r2, [r2, #0]
    14de:	80da      	strh	r2, [r3, #6]
    14e0:	4770      	bx	lr
    14e2:	46c0      	nop			; (mov r8, r8)
    14e4:	20000df8 	.word	0x20000df8
    14e8:	00007304 	.word	0x00007304

000014ec <rt_chk_robin>:
    14ec:	b510      	push	{r4, lr}
    14ee:	4b0d      	ldr	r3, [pc, #52]	; (1524 <rt_chk_robin+0x38>)
    14f0:	4c0d      	ldr	r4, [pc, #52]	; (1528 <rt_chk_robin+0x3c>)
    14f2:	6818      	ldr	r0, [r3, #0]
    14f4:	6862      	ldr	r2, [r4, #4]
    14f6:	490d      	ldr	r1, [pc, #52]	; (152c <rt_chk_robin+0x40>)
    14f8:	4290      	cmp	r0, r2
    14fa:	d005      	beq.n	1508 <rt_chk_robin+0x1c>
    14fc:	601a      	str	r2, [r3, #0]
    14fe:	88da      	ldrh	r2, [r3, #6]
    1500:	6808      	ldr	r0, [r1, #0]
    1502:	3a01      	subs	r2, #1
    1504:	1882      	adds	r2, r0, r2
    1506:	809a      	strh	r2, [r3, #4]
    1508:	8898      	ldrh	r0, [r3, #4]
    150a:	880a      	ldrh	r2, [r1, #0]
    150c:	4290      	cmp	r0, r2
    150e:	d108      	bne.n	1522 <rt_chk_robin+0x36>
    1510:	2200      	movs	r2, #0
    1512:	0020      	movs	r0, r4
    1514:	601a      	str	r2, [r3, #0]
    1516:	f7ff fc81 	bl	e1c <rt_get_first>
    151a:	0001      	movs	r1, r0
    151c:	0020      	movs	r0, r4
    151e:	f7ff fc63 	bl	de8 <rt_put_prio>
    1522:	bd10      	pop	{r4, pc}
    1524:	20000df8 	.word	0x20000df8
    1528:	20000dc0 	.word	0x20000dc0
    152c:	20000e54 	.word	0x20000e54

00001530 <rt_timer_insert>:
    1530:	2200      	movs	r2, #0
    1532:	b530      	push	{r4, r5, lr}
    1534:	4c0b      	ldr	r4, [pc, #44]	; (1564 <rt_timer_insert+0x34>)
    1536:	6823      	ldr	r3, [r4, #0]
    1538:	2b00      	cmp	r3, #0
    153a:	d10a      	bne.n	1552 <rt_timer_insert+0x22>
    153c:	6003      	str	r3, [r0, #0]
    153e:	6081      	str	r1, [r0, #8]
    1540:	2b00      	cmp	r3, #0
    1542:	d002      	beq.n	154a <rt_timer_insert+0x1a>
    1544:	689d      	ldr	r5, [r3, #8]
    1546:	1a69      	subs	r1, r5, r1
    1548:	6099      	str	r1, [r3, #8]
    154a:	2a00      	cmp	r2, #0
    154c:	d008      	beq.n	1560 <rt_timer_insert+0x30>
    154e:	6010      	str	r0, [r2, #0]
    1550:	bd30      	pop	{r4, r5, pc}
    1552:	689d      	ldr	r5, [r3, #8]
    1554:	42a9      	cmp	r1, r5
    1556:	d3f1      	bcc.n	153c <rt_timer_insert+0xc>
    1558:	001a      	movs	r2, r3
    155a:	1b49      	subs	r1, r1, r5
    155c:	681b      	ldr	r3, [r3, #0]
    155e:	e7eb      	b.n	1538 <rt_timer_insert+0x8>
    1560:	6020      	str	r0, [r4, #0]
    1562:	e7f5      	b.n	1550 <rt_timer_insert+0x20>
    1564:	20000e08 	.word	0x20000e08

00001568 <rt_ms2tick>:
    1568:	2300      	movs	r3, #0
    156a:	b513      	push	{r0, r1, r4, lr}
    156c:	0002      	movs	r2, r0
    156e:	4298      	cmp	r0, r3
    1570:	d015      	beq.n	159e <rt_ms2tick+0x36>
    1572:	1c43      	adds	r3, r0, #1
    1574:	d015      	beq.n	15a2 <rt_ms2tick+0x3a>
    1576:	4c0c      	ldr	r4, [pc, #48]	; (15a8 <rt_ms2tick+0x40>)
    1578:	490c      	ldr	r1, [pc, #48]	; (15ac <rt_ms2tick+0x44>)
    157a:	0023      	movs	r3, r4
    157c:	4288      	cmp	r0, r1
    157e:	d80e      	bhi.n	159e <rt_ms2tick+0x36>
    1580:	20fa      	movs	r0, #250	; 0xfa
    1582:	4b0b      	ldr	r3, [pc, #44]	; (15b0 <rt_ms2tick+0x48>)
    1584:	0080      	lsls	r0, r0, #2
    1586:	4350      	muls	r0, r2
    1588:	681b      	ldr	r3, [r3, #0]
    158a:	9301      	str	r3, [sp, #4]
    158c:	3b01      	subs	r3, #1
    158e:	18c0      	adds	r0, r0, r3
    1590:	9901      	ldr	r1, [sp, #4]
    1592:	f002 fcc1 	bl	3f18 <__udivsi3>
    1596:	0023      	movs	r3, r4
    1598:	42a0      	cmp	r0, r4
    159a:	d800      	bhi.n	159e <rt_ms2tick+0x36>
    159c:	b283      	uxth	r3, r0
    159e:	0018      	movs	r0, r3
    15a0:	bd16      	pop	{r1, r2, r4, pc}
    15a2:	4b04      	ldr	r3, [pc, #16]	; (15b4 <rt_ms2tick+0x4c>)
    15a4:	e7fb      	b.n	159e <rt_ms2tick+0x36>
    15a6:	46c0      	nop			; (mov r8, r8)
    15a8:	0000fffe 	.word	0x0000fffe
    15ac:	003d0900 	.word	0x003d0900
    15b0:	000072bc 	.word	0x000072bc
    15b4:	0000ffff 	.word	0x0000ffff

000015b8 <rt_tid2ptcb>:
    15b8:	2800      	cmp	r0, #0
    15ba:	d006      	beq.n	15ca <rt_tid2ptcb+0x12>
    15bc:	0783      	lsls	r3, r0, #30
    15be:	d105      	bne.n	15cc <rt_tid2ptcb+0x14>
    15c0:	7803      	ldrb	r3, [r0, #0]
    15c2:	425a      	negs	r2, r3
    15c4:	4153      	adcs	r3, r2
    15c6:	425b      	negs	r3, r3
    15c8:	4018      	ands	r0, r3
    15ca:	4770      	bx	lr
    15cc:	2000      	movs	r0, #0
    15ce:	e7fc      	b.n	15ca <rt_tid2ptcb+0x12>

000015d0 <svcKernelStart>:
    15d0:	b5b0      	push	{r4, r5, r7, lr}
    15d2:	4d0f      	ldr	r5, [pc, #60]	; (1610 <svcKernelStart+0x40>)
    15d4:	af00      	add	r7, sp, #0
    15d6:	7828      	ldrb	r0, [r5, #0]
    15d8:	2800      	cmp	r0, #0
    15da:	d115      	bne.n	1608 <svcKernelStart+0x38>
    15dc:	4c0d      	ldr	r4, [pc, #52]	; (1614 <svcKernelStart+0x44>)
    15de:	6823      	ldr	r3, [r4, #0]
    15e0:	3305      	adds	r3, #5
    15e2:	7fd9      	ldrb	r1, [r3, #31]
    15e4:	f000 fb96 	bl	1d14 <rt_tsk_prio>
    15e8:	6823      	ldr	r3, [r4, #0]
    15ea:	78da      	ldrb	r2, [r3, #3]
    15ec:	2aff      	cmp	r2, #255	; 0xff
    15ee:	d103      	bne.n	15f8 <svcKernelStart+0x28>
    15f0:	6ada      	ldr	r2, [r3, #44]	; 0x2c
    15f2:	3220      	adds	r2, #32
    15f4:	f382 8809 	msr	PSP, r2
    15f8:	6862      	ldr	r2, [r4, #4]
    15fa:	2a00      	cmp	r2, #0
    15fc:	d100      	bne.n	1600 <svcKernelStart+0x30>
    15fe:	c40c      	stmia	r4!, {r2, r3}
    1600:	f000 fd3c 	bl	207c <rt_sys_start>
    1604:	2301      	movs	r3, #1
    1606:	702b      	strb	r3, [r5, #0]
    1608:	46bd      	mov	sp, r7
    160a:	2000      	movs	r0, #0
    160c:	bdb0      	pop	{r4, r5, r7, pc}
    160e:	46c0      	nop			; (mov r8, r8)
    1610:	20000e05 	.word	0x20000e05
    1614:	20000e0c 	.word	0x20000e0c

00001618 <svcKernelRunning>:
    1618:	4b01      	ldr	r3, [pc, #4]	; (1620 <svcKernelRunning+0x8>)
    161a:	7818      	ldrb	r0, [r3, #0]
    161c:	4770      	bx	lr
    161e:	46c0      	nop			; (mov r8, r8)
    1620:	20000e05 	.word	0x20000e05

00001624 <osKernelRunning>:
    1624:	b590      	push	{r4, r7, lr}
    1626:	f3ef 8410 	mrs	r4, PRIMASK
    162a:	2c00      	cmp	r4, #0
    162c:	d107      	bne.n	163e <osKernelRunning+0x1a>
    162e:	f3ef 8405 	mrs	r4, IPSR
    1632:	2c00      	cmp	r4, #0
    1634:	d103      	bne.n	163e <osKernelRunning+0x1a>
    1636:	f3ef 8414 	mrs	r4, CONTROL
    163a:	07e4      	lsls	r4, r4, #31
    163c:	d402      	bmi.n	1644 <osKernelRunning+0x20>
    163e:	4b03      	ldr	r3, [pc, #12]	; (164c <osKernelRunning+0x28>)
    1640:	7818      	ldrb	r0, [r3, #0]
    1642:	bd90      	pop	{r4, r7, pc}
    1644:	4f02      	ldr	r7, [pc, #8]	; (1650 <osKernelRunning+0x2c>)
    1646:	46bc      	mov	r12, r7
    1648:	df00      	svc	0
    164a:	e7fa      	b.n	1642 <osKernelRunning+0x1e>
    164c:	20000e05 	.word	0x20000e05
    1650:	00001619 	.word	0x00001619

00001654 <osKernelStart>:
    1654:	b5f0      	push	{r4, r5, r6, r7, lr}
    1656:	b089      	sub	sp, #36	; 0x24
    1658:	af00      	add	r7, sp, #0
    165a:	f3ef 8310 	mrs	r3, PRIMASK
    165e:	2582      	movs	r5, #130	; 0x82
    1660:	2b00      	cmp	r3, #0
    1662:	d13a      	bne.n	16da <osKernelStart+0x86>
    1664:	f3ef 8305 	mrs	r3, IPSR
    1668:	2b00      	cmp	r3, #0
    166a:	d136      	bne.n	16da <osKernelStart+0x86>
    166c:	f7ff ffda 	bl	1624 <osKernelRunning>
    1670:	2800      	cmp	r0, #0
    1672:	d107      	bne.n	1684 <osKernelStart+0x30>
    1674:	4c1b      	ldr	r4, [pc, #108]	; (16e4 <osKernelStart+0x90>)
    1676:	6824      	ldr	r4, [r4, #0]
    1678:	2c00      	cmp	r4, #0
    167a:	d003      	beq.n	1684 <osKernelStart+0x30>
    167c:	6864      	ldr	r4, [r4, #4]
    167e:	2c00      	cmp	r4, #0
    1680:	d000      	beq.n	1684 <osKernelStart+0x30>
    1682:	47a0      	blx	r4
    1684:	f3ef 8414 	mrs	r4, CONTROL
    1688:	2603      	movs	r6, #3
    168a:	4034      	ands	r4, r6
    168c:	2c02      	cmp	r4, #2
    168e:	d018      	beq.n	16c2 <osKernelStart+0x6e>
    1690:	42b4      	cmp	r4, r6
    1692:	d01d      	beq.n	16d0 <osKernelStart+0x7c>
    1694:	25ff      	movs	r5, #255	; 0xff
    1696:	2c01      	cmp	r4, #1
    1698:	d01f      	beq.n	16da <osKernelStart+0x86>
    169a:	2420      	movs	r4, #32
    169c:	193c      	adds	r4, r7, r4
    169e:	f384 8809 	msr	PSP, r4
    16a2:	4c11      	ldr	r4, [pc, #68]	; (16e8 <osKernelStart+0x94>)
    16a4:	7824      	ldrb	r4, [r4, #0]
    16a6:	07e4      	lsls	r4, r4, #31
    16a8:	d50f      	bpl.n	16ca <osKernelStart+0x76>
    16aa:	2402      	movs	r4, #2
    16ac:	f384 8814 	msr	CONTROL, r4
    16b0:	f3bf 8f4f 	dsb	sy
    16b4:	f3bf 8f6f 	isb	sy
    16b8:	4f0c      	ldr	r7, [pc, #48]	; (16ec <osKernelStart+0x98>)
    16ba:	46bc      	mov	r12, r7
    16bc:	df00      	svc	0
    16be:	0005      	movs	r5, r0
    16c0:	e00b      	b.n	16da <osKernelStart+0x86>
    16c2:	4c09      	ldr	r4, [pc, #36]	; (16e8 <osKernelStart+0x94>)
    16c4:	7824      	ldrb	r4, [r4, #0]
    16c6:	07e4      	lsls	r4, r4, #31
    16c8:	d4f6      	bmi.n	16b8 <osKernelStart+0x64>
    16ca:	f386 8814 	msr	CONTROL, r6
    16ce:	e7ef      	b.n	16b0 <osKernelStart+0x5c>
    16d0:	4c05      	ldr	r4, [pc, #20]	; (16e8 <osKernelStart+0x94>)
    16d2:	25ff      	movs	r5, #255	; 0xff
    16d4:	7824      	ldrb	r4, [r4, #0]
    16d6:	07e4      	lsls	r4, r4, #31
    16d8:	d5ee      	bpl.n	16b8 <osKernelStart+0x64>
    16da:	0028      	movs	r0, r5
    16dc:	46bd      	mov	sp, r7
    16de:	b009      	add	sp, #36	; 0x24
    16e0:	bdf0      	pop	{r4, r5, r6, r7, pc}
    16e2:	46c0      	nop			; (mov r8, r8)
    16e4:	20000df4 	.word	0x20000df4
    16e8:	000072ea 	.word	0x000072ea
    16ec:	000015d1 	.word	0x000015d1

000016f0 <svcThreadCreate>:
    16f0:	b570      	push	{r4, r5, r6, lr}
    16f2:	000b      	movs	r3, r1
    16f4:	0015      	movs	r5, r2
    16f6:	2800      	cmp	r0, #0
    16f8:	d102      	bne.n	1700 <svcThreadCreate+0x10>
    16fa:	2400      	movs	r4, #0
    16fc:	0020      	movs	r0, r4
    16fe:	bd70      	pop	{r4, r5, r6, pc}
    1700:	6806      	ldr	r6, [r0, #0]
    1702:	2e00      	cmp	r6, #0
    1704:	d0f9      	beq.n	16fa <svcThreadCreate+0xa>
    1706:	2204      	movs	r2, #4
    1708:	5e84      	ldrsh	r4, [r0, r2]
    170a:	1ce2      	adds	r2, r4, #3
    170c:	b292      	uxth	r2, r2
    170e:	2a06      	cmp	r2, #6
    1710:	d8f3      	bhi.n	16fa <svcThreadCreate+0xa>
    1712:	2200      	movs	r2, #0
    1714:	68c1      	ldr	r1, [r0, #12]
    1716:	4291      	cmp	r1, r2
    1718:	d000      	beq.n	171c <svcThreadCreate+0x2c>
    171a:	6902      	ldr	r2, [r0, #16]
    171c:	3404      	adds	r4, #4
    171e:	0209      	lsls	r1, r1, #8
    1720:	4321      	orrs	r1, r4
    1722:	0030      	movs	r0, r6
    1724:	f000 fb36 	bl	1d94 <rt_tsk_create>
    1728:	2800      	cmp	r0, #0
    172a:	d0e6      	beq.n	16fa <svcThreadCreate+0xa>
    172c:	4b0a      	ldr	r3, [pc, #40]	; (1758 <svcThreadCreate+0x68>)
    172e:	3801      	subs	r0, #1
    1730:	0080      	lsls	r0, r0, #2
    1732:	58c4      	ldr	r4, [r0, r3]
    1734:	4a09      	ldr	r2, [pc, #36]	; (175c <svcThreadCreate+0x6c>)
    1736:	6ae3      	ldr	r3, [r4, #44]	; 0x2c
    1738:	635a      	str	r2, [r3, #52]	; 0x34
    173a:	4b09      	ldr	r3, [pc, #36]	; (1760 <svcThreadCreate+0x70>)
    173c:	681b      	ldr	r3, [r3, #0]
    173e:	2b00      	cmp	r3, #0
    1740:	d007      	beq.n	1752 <svcThreadCreate+0x62>
    1742:	689b      	ldr	r3, [r3, #8]
    1744:	2b00      	cmp	r3, #0
    1746:	d004      	beq.n	1752 <svcThreadCreate+0x62>
    1748:	78e0      	ldrb	r0, [r4, #3]
    174a:	0029      	movs	r1, r5
    174c:	4798      	blx	r3
    174e:	63e0      	str	r0, [r4, #60]	; 0x3c
    1750:	e7d4      	b.n	16fc <svcThreadCreate+0xc>
    1752:	63e5      	str	r5, [r4, #60]	; 0x3c
    1754:	e7d2      	b.n	16fc <svcThreadCreate+0xc>
    1756:	46c0      	nop			; (mov r8, r8)
    1758:	20000828 	.word	0x20000828
    175c:	00001929 	.word	0x00001929
    1760:	20000df4 	.word	0x20000df4

00001764 <svcThreadGetId>:
    1764:	b510      	push	{r4, lr}
    1766:	f000 facd 	bl	1d04 <rt_tsk_self>
    176a:	1e03      	subs	r3, r0, #0
    176c:	d003      	beq.n	1776 <svcThreadGetId+0x12>
    176e:	3801      	subs	r0, #1
    1770:	4b02      	ldr	r3, [pc, #8]	; (177c <svcThreadGetId+0x18>)
    1772:	0080      	lsls	r0, r0, #2
    1774:	58c3      	ldr	r3, [r0, r3]
    1776:	0018      	movs	r0, r3
    1778:	bd10      	pop	{r4, pc}
    177a:	46c0      	nop			; (mov r8, r8)
    177c:	20000828 	.word	0x20000828

00001780 <svcThreadTerminate>:
    1780:	b510      	push	{r4, lr}
    1782:	f7ff ff19 	bl	15b8 <rt_tid2ptcb>
    1786:	2380      	movs	r3, #128	; 0x80
    1788:	1e04      	subs	r4, r0, #0
    178a:	d00f      	beq.n	17ac <svcThreadTerminate+0x2c>
    178c:	4b08      	ldr	r3, [pc, #32]	; (17b0 <svcThreadTerminate+0x30>)
    178e:	681b      	ldr	r3, [r3, #0]
    1790:	2b00      	cmp	r3, #0
    1792:	d004      	beq.n	179e <svcThreadTerminate+0x1e>
    1794:	68db      	ldr	r3, [r3, #12]
    1796:	2b00      	cmp	r3, #0
    1798:	d001      	beq.n	179e <svcThreadTerminate+0x1e>
    179a:	6bc0      	ldr	r0, [r0, #60]	; 0x3c
    179c:	4798      	blx	r3
    179e:	78e0      	ldrb	r0, [r4, #3]
    17a0:	f000 fb4a 	bl	1e38 <rt_tsk_delete>
    17a4:	2381      	movs	r3, #129	; 0x81
    17a6:	28ff      	cmp	r0, #255	; 0xff
    17a8:	d000      	beq.n	17ac <svcThreadTerminate+0x2c>
    17aa:	2300      	movs	r3, #0
    17ac:	0018      	movs	r0, r3
    17ae:	bd10      	pop	{r4, pc}
    17b0:	20000df4 	.word	0x20000df4

000017b4 <svcDelay>:
    17b4:	2300      	movs	r3, #0
    17b6:	b510      	push	{r4, lr}
    17b8:	4298      	cmp	r0, r3
    17ba:	d004      	beq.n	17c6 <svcDelay+0x12>
    17bc:	f7ff fed4 	bl	1568 <rt_ms2tick>
    17c0:	f000 fd9e 	bl	2300 <rt_dly_wait>
    17c4:	2340      	movs	r3, #64	; 0x40
    17c6:	0018      	movs	r0, r3
    17c8:	bd10      	pop	{r4, pc}
	...

000017cc <osDelay>:
    17cc:	b5b0      	push	{r4, r5, r7, lr}
    17ce:	0005      	movs	r5, r0
    17d0:	f3ef 8410 	mrs	r4, PRIMASK
    17d4:	2082      	movs	r0, #130	; 0x82
    17d6:	2c00      	cmp	r4, #0
    17d8:	d107      	bne.n	17ea <osDelay+0x1e>
    17da:	f3ef 8405 	mrs	r4, IPSR
    17de:	2c00      	cmp	r4, #0
    17e0:	d103      	bne.n	17ea <osDelay+0x1e>
    17e2:	0028      	movs	r0, r5
    17e4:	4f01      	ldr	r7, [pc, #4]	; (17ec <osDelay+0x20>)
    17e6:	46bc      	mov	r12, r7
    17e8:	df00      	svc	0
    17ea:	bdb0      	pop	{r4, r5, r7, pc}
    17ec:	000017b5 	.word	0x000017b5

000017f0 <svcTimerCall>:
    17f0:	0783      	lsls	r3, r0, #30
    17f2:	d106      	bne.n	1802 <svcTimerCall+0x12>
    17f4:	2800      	cmp	r0, #0
    17f6:	d007      	beq.n	1808 <svcTimerCall+0x18>
    17f8:	6943      	ldr	r3, [r0, #20]
    17fa:	6901      	ldr	r1, [r0, #16]
    17fc:	681b      	ldr	r3, [r3, #0]
    17fe:	0018      	movs	r0, r3
    1800:	4770      	bx	lr
    1802:	2300      	movs	r3, #0
    1804:	0019      	movs	r1, r3
    1806:	e7fa      	b.n	17fe <svcTimerCall+0xe>
    1808:	0003      	movs	r3, r0
    180a:	e7fb      	b.n	1804 <svcTimerCall+0x14>

0000180c <osTimerCall>:
    180c:	b590      	push	{r4, r7, lr}
    180e:	0004      	movs	r4, r0
    1810:	0008      	movs	r0, r1
    1812:	4f03      	ldr	r7, [pc, #12]	; (1820 <osTimerCall+0x14>)
    1814:	46bc      	mov	r12, r7
    1816:	df00      	svc	0
    1818:	6020      	str	r0, [r4, #0]
    181a:	6061      	str	r1, [r4, #4]
    181c:	0020      	movs	r0, r4
    181e:	bd90      	pop	{r4, r7, pc}
    1820:	000017f1 	.word	0x000017f1

00001824 <svcMutexCreate>:
    1824:	b510      	push	{r4, lr}
    1826:	1e03      	subs	r3, r0, #0
    1828:	d00a      	beq.n	1840 <svcMutexCreate+0x1c>
    182a:	6804      	ldr	r4, [r0, #0]
    182c:	1e23      	subs	r3, r4, #0
    182e:	d007      	beq.n	1840 <svcMutexCreate+0x1c>
    1830:	2300      	movs	r3, #0
    1832:	7822      	ldrb	r2, [r4, #0]
    1834:	429a      	cmp	r2, r3
    1836:	d103      	bne.n	1840 <svcMutexCreate+0x1c>
    1838:	0020      	movs	r0, r4
    183a:	f000 fc55 	bl	20e8 <rt_mut_init>
    183e:	0023      	movs	r3, r4
    1840:	0018      	movs	r0, r3
    1842:	bd10      	pop	{r4, pc}

00001844 <svcMutexWait>:
    1844:	b570      	push	{r4, r5, r6, lr}
    1846:	2403      	movs	r4, #3
    1848:	0005      	movs	r5, r0
    184a:	000e      	movs	r6, r1
    184c:	4004      	ands	r4, r0
    184e:	2380      	movs	r3, #128	; 0x80
    1850:	2c00      	cmp	r4, #0
    1852:	d112      	bne.n	187a <svcMutexWait+0x36>
    1854:	2800      	cmp	r0, #0
    1856:	d010      	beq.n	187a <svcMutexWait+0x36>
    1858:	7802      	ldrb	r2, [r0, #0]
    185a:	2a03      	cmp	r2, #3
    185c:	d10d      	bne.n	187a <svcMutexWait+0x36>
    185e:	0008      	movs	r0, r1
    1860:	f7ff fe82 	bl	1568 <rt_ms2tick>
    1864:	0001      	movs	r1, r0
    1866:	0028      	movs	r0, r5
    1868:	f000 fd16 	bl	2298 <rt_mut_wait>
    186c:	0023      	movs	r3, r4
    186e:	2801      	cmp	r0, #1
    1870:	d103      	bne.n	187a <svcMutexWait+0x36>
    1872:	33c1      	adds	r3, #193	; 0xc1
    1874:	2e00      	cmp	r6, #0
    1876:	d100      	bne.n	187a <svcMutexWait+0x36>
    1878:	3b40      	subs	r3, #64	; 0x40
    187a:	0018      	movs	r0, r3
    187c:	bd70      	pop	{r4, r5, r6, pc}

0000187e <svcMutexRelease>:
    187e:	b510      	push	{r4, lr}
    1880:	2403      	movs	r4, #3
    1882:	2380      	movs	r3, #128	; 0x80
    1884:	4004      	ands	r4, r0
    1886:	d10a      	bne.n	189e <svcMutexRelease+0x20>
    1888:	2800      	cmp	r0, #0
    188a:	d008      	beq.n	189e <svcMutexRelease+0x20>
    188c:	7802      	ldrb	r2, [r0, #0]
    188e:	2a03      	cmp	r2, #3
    1890:	d105      	bne.n	189e <svcMutexRelease+0x20>
    1892:	f000 fc8d 	bl	21b0 <rt_mut_release>
    1896:	2381      	movs	r3, #129	; 0x81
    1898:	28ff      	cmp	r0, #255	; 0xff
    189a:	d000      	beq.n	189e <svcMutexRelease+0x20>
    189c:	0023      	movs	r3, r4
    189e:	0018      	movs	r0, r3
    18a0:	bd10      	pop	{r4, pc}

000018a2 <svcMutexDelete>:
    18a2:	b510      	push	{r4, lr}
    18a4:	2403      	movs	r4, #3
    18a6:	2380      	movs	r3, #128	; 0x80
    18a8:	4004      	ands	r4, r0
    18aa:	d107      	bne.n	18bc <svcMutexDelete+0x1a>
    18ac:	2800      	cmp	r0, #0
    18ae:	d005      	beq.n	18bc <svcMutexDelete+0x1a>
    18b0:	7802      	ldrb	r2, [r0, #0]
    18b2:	2a03      	cmp	r2, #3
    18b4:	d102      	bne.n	18bc <svcMutexDelete+0x1a>
    18b6:	f000 fc1f 	bl	20f8 <rt_mut_delete>
    18ba:	0023      	movs	r3, r4
    18bc:	0018      	movs	r0, r3
    18be:	bd10      	pop	{r4, pc}

000018c0 <osMutexCreate>:
    18c0:	b5f8      	push	{r3, r4, r5, r6, r7, lr}
    18c2:	0005      	movs	r5, r0
    18c4:	f3ef 8610 	mrs	r6, PRIMASK
    18c8:	2000      	movs	r0, #0
    18ca:	4286      	cmp	r6, r0
    18cc:	d10f      	bne.n	18ee <osMutexCreate+0x2e>
    18ce:	f3ef 8405 	mrs	r4, IPSR
    18d2:	0030      	movs	r0, r6
    18d4:	2c00      	cmp	r4, #0
    18d6:	d10a      	bne.n	18ee <osMutexCreate+0x2e>
    18d8:	f3ef 8014 	mrs	r0, CONTROL
    18dc:	07c0      	lsls	r0, r0, #31
    18de:	d407      	bmi.n	18f0 <osMutexCreate+0x30>
    18e0:	4806      	ldr	r0, [pc, #24]	; (18fc <osMutexCreate+0x3c>)
    18e2:	7800      	ldrb	r0, [r0, #0]
    18e4:	2800      	cmp	r0, #0
    18e6:	d103      	bne.n	18f0 <osMutexCreate+0x30>
    18e8:	0028      	movs	r0, r5
    18ea:	f7ff ff9b 	bl	1824 <svcMutexCreate>
    18ee:	bdf8      	pop	{r3, r4, r5, r6, r7, pc}
    18f0:	0028      	movs	r0, r5
    18f2:	4f03      	ldr	r7, [pc, #12]	; (1900 <osMutexCreate+0x40>)
    18f4:	46bc      	mov	r12, r7
    18f6:	df00      	svc	0
    18f8:	e7f9      	b.n	18ee <osMutexCreate+0x2e>
    18fa:	46c0      	nop			; (mov r8, r8)
    18fc:	20000e05 	.word	0x20000e05
    1900:	00001825 	.word	0x00001825

00001904 <osMutexWait>:
    1904:	b5b0      	push	{r4, r5, r7, lr}
    1906:	0005      	movs	r5, r0
    1908:	f3ef 8410 	mrs	r4, PRIMASK
    190c:	2082      	movs	r0, #130	; 0x82
    190e:	2c00      	cmp	r4, #0
    1910:	d107      	bne.n	1922 <osMutexWait+0x1e>
    1912:	f3ef 8405 	mrs	r4, IPSR
    1916:	2c00      	cmp	r4, #0
    1918:	d103      	bne.n	1922 <osMutexWait+0x1e>
    191a:	0028      	movs	r0, r5
    191c:	4f01      	ldr	r7, [pc, #4]	; (1924 <osMutexWait+0x20>)
    191e:	46bc      	mov	r12, r7
    1920:	df00      	svc	0
    1922:	bdb0      	pop	{r4, r5, r7, pc}
    1924:	00001845 	.word	0x00001845

00001928 <osThreadExit>:
    1928:	2101      	movs	r1, #1
    192a:	4808      	ldr	r0, [pc, #32]	; (194c <osThreadExit+0x24>)
    192c:	b5b0      	push	{r4, r5, r7, lr}
    192e:	4249      	negs	r1, r1
    1930:	6800      	ldr	r0, [r0, #0]
    1932:	f7ff ffe7 	bl	1904 <osMutexWait>
    1936:	4f06      	ldr	r7, [pc, #24]	; (1950 <osThreadExit+0x28>)
    1938:	46bc      	mov	r12, r7
    193a:	df00      	svc	0
    193c:	0004      	movs	r4, r0
    193e:	f7ff fa0d 	bl	d5c <sysThreadTerminate>
    1942:	0020      	movs	r0, r4
    1944:	4f03      	ldr	r7, [pc, #12]	; (1954 <osThreadExit+0x2c>)
    1946:	46bc      	mov	r12, r7
    1948:	df00      	svc	0
    194a:	e7fe      	b.n	194a <osThreadExit+0x22>
    194c:	20000e00 	.word	0x20000e00
    1950:	00001765 	.word	0x00001765
    1954:	00001781 	.word	0x00001781

00001958 <osMutexRelease>:
    1958:	b5b0      	push	{r4, r5, r7, lr}
    195a:	0005      	movs	r5, r0
    195c:	f3ef 8410 	mrs	r4, PRIMASK
    1960:	2082      	movs	r0, #130	; 0x82
    1962:	2c00      	cmp	r4, #0
    1964:	d107      	bne.n	1976 <osMutexRelease+0x1e>
    1966:	f3ef 8405 	mrs	r4, IPSR
    196a:	2c00      	cmp	r4, #0
    196c:	d103      	bne.n	1976 <osMutexRelease+0x1e>
    196e:	0028      	movs	r0, r5
    1970:	4f01      	ldr	r7, [pc, #4]	; (1978 <osMutexRelease+0x20>)
    1972:	46bc      	mov	r12, r7
    1974:	df00      	svc	0
    1976:	bdb0      	pop	{r4, r5, r7, pc}
    1978:	0000187f 	.word	0x0000187f

0000197c <osThreadContextCreate>:
    197c:	b5f7      	push	{r0, r1, r2, r4, r5, r6, r7, lr}
    197e:	0006      	movs	r6, r0
    1980:	9100      	str	r1, [sp, #0]
    1982:	9201      	str	r2, [sp, #4]
    1984:	f3ef 8210 	mrs	r2, PRIMASK
    1988:	2400      	movs	r4, #0
    198a:	42a2      	cmp	r2, r4
    198c:	d110      	bne.n	19b0 <osThreadContextCreate+0x34>
    198e:	f3ef 8305 	mrs	r3, IPSR
    1992:	0014      	movs	r4, r2
    1994:	2b00      	cmp	r3, #0
    1996:	d10b      	bne.n	19b0 <osThreadContextCreate+0x34>
    1998:	f3ef 8314 	mrs	r3, CONTROL
    199c:	07db      	lsls	r3, r3, #31
    199e:	d409      	bmi.n	19b4 <osThreadContextCreate+0x38>
    19a0:	4b0d      	ldr	r3, [pc, #52]	; (19d8 <osThreadContextCreate+0x5c>)
    19a2:	781b      	ldrb	r3, [r3, #0]
    19a4:	2b00      	cmp	r3, #0
    19a6:	d105      	bne.n	19b4 <osThreadContextCreate+0x38>
    19a8:	9a01      	ldr	r2, [sp, #4]
    19aa:	f7ff fea1 	bl	16f0 <svcThreadCreate>
    19ae:	0004      	movs	r4, r0
    19b0:	0020      	movs	r0, r4
    19b2:	bdfe      	pop	{r1, r2, r3, r4, r5, r6, r7, pc}
    19b4:	2101      	movs	r1, #1
    19b6:	4d09      	ldr	r5, [pc, #36]	; (19dc <osThreadContextCreate+0x60>)
    19b8:	4249      	negs	r1, r1
    19ba:	6828      	ldr	r0, [r5, #0]
    19bc:	f7ff ffa2 	bl	1904 <osMutexWait>
    19c0:	0030      	movs	r0, r6
    19c2:	9900      	ldr	r1, [sp, #0]
    19c4:	9a01      	ldr	r2, [sp, #4]
    19c6:	4f06      	ldr	r7, [pc, #24]	; (19e0 <osThreadContextCreate+0x64>)
    19c8:	46bc      	mov	r12, r7
    19ca:	df00      	svc	0
    19cc:	0004      	movs	r4, r0
    19ce:	6828      	ldr	r0, [r5, #0]
    19d0:	f7ff ffc2 	bl	1958 <osMutexRelease>
    19d4:	e7ec      	b.n	19b0 <osThreadContextCreate+0x34>
    19d6:	46c0      	nop			; (mov r8, r8)
    19d8:	20000e05 	.word	0x20000e05
    19dc:	20000e00 	.word	0x20000e00
    19e0:	000016f1 	.word	0x000016f1

000019e4 <osThreadCreate>:
    19e4:	b510      	push	{r4, lr}
    19e6:	2200      	movs	r2, #0
    19e8:	f7ff ffc8 	bl	197c <osThreadContextCreate>
    19ec:	bd10      	pop	{r4, pc}
	...

000019f0 <osMutexDelete>:
    19f0:	b5b0      	push	{r4, r5, r7, lr}
    19f2:	0005      	movs	r5, r0
    19f4:	f3ef 8410 	mrs	r4, PRIMASK
    19f8:	2082      	movs	r0, #130	; 0x82
    19fa:	2c00      	cmp	r4, #0
    19fc:	d107      	bne.n	1a0e <osMutexDelete+0x1e>
    19fe:	f3ef 8405 	mrs	r4, IPSR
    1a02:	2c00      	cmp	r4, #0
    1a04:	d103      	bne.n	1a0e <osMutexDelete+0x1e>
    1a06:	0028      	movs	r0, r5
    1a08:	4f01      	ldr	r7, [pc, #4]	; (1a10 <osMutexDelete+0x20>)
    1a0a:	46bc      	mov	r12, r7
    1a0c:	df00      	svc	0
    1a0e:	bdb0      	pop	{r4, r5, r7, pc}
    1a10:	000018a3 	.word	0x000018a3

00001a14 <svcMessageCreate>:
    1a14:	b510      	push	{r4, lr}
    1a16:	0003      	movs	r3, r0
    1a18:	1e04      	subs	r4, r0, #0
    1a1a:	d00f      	beq.n	1a3c <svcMessageCreate+0x28>
    1a1c:	6801      	ldr	r1, [r0, #0]
    1a1e:	1e0b      	subs	r3, r1, #0
    1a20:	d00c      	beq.n	1a3c <svcMessageCreate+0x28>
    1a22:	6840      	ldr	r0, [r0, #4]
    1a24:	1e03      	subs	r3, r0, #0
    1a26:	d009      	beq.n	1a3c <svcMessageCreate+0x28>
    1a28:	2300      	movs	r3, #0
    1a2a:	7802      	ldrb	r2, [r0, #0]
    1a2c:	429a      	cmp	r2, r3
    1a2e:	d105      	bne.n	1a3c <svcMessageCreate+0x28>
    1a30:	3104      	adds	r1, #4
    1a32:	0089      	lsls	r1, r1, #2
    1a34:	b289      	uxth	r1, r1
    1a36:	f7ff fc17 	bl	1268 <rt_mbx_init>
    1a3a:	6863      	ldr	r3, [r4, #4]
    1a3c:	0018      	movs	r0, r3
    1a3e:	bd10      	pop	{r4, pc}

00001a40 <svcKernelInitialize>:
    1a40:	b570      	push	{r4, r5, r6, lr}
    1a42:	4d12      	ldr	r5, [pc, #72]	; (1a8c <svcKernelInitialize+0x4c>)
    1a44:	782b      	ldrb	r3, [r5, #0]
    1a46:	2b00      	cmp	r3, #0
    1a48:	d101      	bne.n	1a4e <svcKernelInitialize+0xe>
    1a4a:	f000 fa9b 	bl	1f84 <rt_sys_init>
    1a4e:	22ff      	movs	r2, #255	; 0xff
    1a50:	4b0f      	ldr	r3, [pc, #60]	; (1a90 <svcKernelInitialize+0x50>)
    1a52:	782c      	ldrb	r4, [r5, #0]
    1a54:	681b      	ldr	r3, [r3, #0]
    1a56:	709a      	strb	r2, [r3, #2]
    1a58:	2c00      	cmp	r4, #0
    1a5a:	d111      	bne.n	1a80 <svcKernelInitialize+0x40>
    1a5c:	0021      	movs	r1, r4
    1a5e:	480d      	ldr	r0, [pc, #52]	; (1a94 <svcKernelInitialize+0x54>)
    1a60:	f7ff ffd8 	bl	1a14 <svcMessageCreate>
    1a64:	4b0c      	ldr	r3, [pc, #48]	; (1a98 <svcKernelInitialize+0x58>)
    1a66:	0022      	movs	r2, r4
    1a68:	6018      	str	r0, [r3, #0]
    1a6a:	0021      	movs	r1, r4
    1a6c:	480b      	ldr	r0, [pc, #44]	; (1a9c <svcKernelInitialize+0x5c>)
    1a6e:	f7ff fe3f 	bl	16f0 <svcThreadCreate>
    1a72:	4b0b      	ldr	r3, [pc, #44]	; (1aa0 <svcKernelInitialize+0x60>)
    1a74:	6018      	str	r0, [r3, #0]
    1a76:	480b      	ldr	r0, [pc, #44]	; (1aa4 <svcKernelInitialize+0x64>)
    1a78:	f7ff ff22 	bl	18c0 <osMutexCreate>
    1a7c:	4b0a      	ldr	r3, [pc, #40]	; (1aa8 <svcKernelInitialize+0x68>)
    1a7e:	6018      	str	r0, [r3, #0]
    1a80:	2301      	movs	r3, #1
    1a82:	2000      	movs	r0, #0
    1a84:	702b      	strb	r3, [r5, #0]
    1a86:	4b09      	ldr	r3, [pc, #36]	; (1aac <svcKernelInitialize+0x6c>)
    1a88:	7018      	strb	r0, [r3, #0]
    1a8a:	bd70      	pop	{r4, r5, r6, pc}
    1a8c:	20000e04 	.word	0x20000e04
    1a90:	20000e0c 	.word	0x20000e0c
    1a94:	000072f0 	.word	0x000072f0
    1a98:	200008c8 	.word	0x200008c8
    1a9c:	0000730c 	.word	0x0000730c
    1aa0:	20000dbc 	.word	0x20000dbc
    1aa4:	00007324 	.word	0x00007324
    1aa8:	20000e00 	.word	0x20000e00
    1aac:	20000e05 	.word	0x20000e05

00001ab0 <osKernelInitialize>:
    1ab0:	b5b0      	push	{r4, r5, r7, lr}
    1ab2:	f3ef 8510 	mrs	r5, PRIMASK
    1ab6:	2482      	movs	r4, #130	; 0x82
    1ab8:	2d00      	cmp	r5, #0
    1aba:	d10a      	bne.n	1ad2 <osKernelInitialize+0x22>
    1abc:	f3ef 8505 	mrs	r5, IPSR
    1ac0:	2d00      	cmp	r5, #0
    1ac2:	d106      	bne.n	1ad2 <osKernelInitialize+0x22>
    1ac4:	f3ef 8414 	mrs	r4, CONTROL
    1ac8:	07e4      	lsls	r4, r4, #31
    1aca:	d404      	bmi.n	1ad6 <osKernelInitialize+0x26>
    1acc:	f7ff ffb8 	bl	1a40 <svcKernelInitialize>
    1ad0:	0004      	movs	r4, r0
    1ad2:	0020      	movs	r0, r4
    1ad4:	bdb0      	pop	{r4, r5, r7, pc}
    1ad6:	4f02      	ldr	r7, [pc, #8]	; (1ae0 <osKernelInitialize+0x30>)
    1ad8:	46bc      	mov	r12, r7
    1ada:	df00      	svc	0
    1adc:	e7f8      	b.n	1ad0 <osKernelInitialize+0x20>
    1ade:	0000      	.short	0x0000
    1ae0:	00001a41 	.word	0x00001a41

00001ae4 <svcMessageGet>:
    1ae4:	b530      	push	{r4, r5, lr}
    1ae6:	0004      	movs	r4, r0
    1ae8:	b085      	sub	sp, #20
    1aea:	000d      	movs	r5, r1
    1aec:	2800      	cmp	r0, #0
    1aee:	d017      	beq.n	1b20 <svcMessageGet+0x3c>
    1af0:	7803      	ldrb	r3, [r0, #0]
    1af2:	2b01      	cmp	r3, #1
    1af4:	d114      	bne.n	1b20 <svcMessageGet+0x3c>
    1af6:	0008      	movs	r0, r1
    1af8:	f7ff fd36 	bl	1568 <rt_ms2tick>
    1afc:	a902      	add	r1, sp, #8
    1afe:	0002      	movs	r2, r0
    1b00:	0020      	movs	r0, r4
    1b02:	f7ff fbbf 	bl	1284 <rt_mbx_wait>
    1b06:	2801      	cmp	r0, #1
    1b08:	d108      	bne.n	1b1c <svcMessageGet+0x38>
    1b0a:	0028      	movs	r0, r5
    1b0c:	1e45      	subs	r5, r0, #1
    1b0e:	41a8      	sbcs	r0, r5
    1b10:	0180      	lsls	r0, r0, #6
    1b12:	9902      	ldr	r1, [sp, #8]
    1b14:	2200      	movs	r2, #0
    1b16:	0013      	movs	r3, r2
    1b18:	b005      	add	sp, #20
    1b1a:	bd30      	pop	{r4, r5, pc}
    1b1c:	2010      	movs	r0, #16
    1b1e:	e7f8      	b.n	1b12 <svcMessageGet+0x2e>
    1b20:	2080      	movs	r0, #128	; 0x80
    1b22:	2100      	movs	r1, #0
    1b24:	e7f6      	b.n	1b14 <svcMessageGet+0x30>

00001b26 <isrMessagePut>:
    1b26:	b570      	push	{r4, r5, r6, lr}
    1b28:	2380      	movs	r3, #128	; 0x80
    1b2a:	0004      	movs	r4, r0
    1b2c:	000e      	movs	r6, r1
    1b2e:	0015      	movs	r5, r2
    1b30:	2800      	cmp	r0, #0
    1b32:	d00e      	beq.n	1b52 <isrMessagePut+0x2c>
    1b34:	2a00      	cmp	r2, #0
    1b36:	d10c      	bne.n	1b52 <isrMessagePut+0x2c>
    1b38:	7802      	ldrb	r2, [r0, #0]
    1b3a:	2a01      	cmp	r2, #1
    1b3c:	d109      	bne.n	1b52 <isrMessagePut+0x2c>
    1b3e:	f7ff fbfb 	bl	1338 <rt_mbx_check>
    1b42:	2381      	movs	r3, #129	; 0x81
    1b44:	2800      	cmp	r0, #0
    1b46:	d004      	beq.n	1b52 <isrMessagePut+0x2c>
    1b48:	0031      	movs	r1, r6
    1b4a:	0020      	movs	r0, r4
    1b4c:	f7ff fbf8 	bl	1340 <isr_mbx_send>
    1b50:	002b      	movs	r3, r5
    1b52:	0018      	movs	r0, r3
    1b54:	bd70      	pop	{r4, r5, r6, pc}
	...

00001b58 <sysTimerTick>:
    1b58:	b5f8      	push	{r3, r4, r5, r6, r7, lr}
    1b5a:	4e12      	ldr	r6, [pc, #72]	; (1ba4 <sysTimerTick+0x4c>)
    1b5c:	6834      	ldr	r4, [r6, #0]
    1b5e:	2c00      	cmp	r4, #0
    1b60:	d006      	beq.n	1b70 <sysTimerTick+0x18>
    1b62:	2701      	movs	r7, #1
    1b64:	68a3      	ldr	r3, [r4, #8]
    1b66:	3b01      	subs	r3, #1
    1b68:	60a3      	str	r3, [r4, #8]
    1b6a:	68a2      	ldr	r2, [r4, #8]
    1b6c:	2a00      	cmp	r2, #0
    1b6e:	d000      	beq.n	1b72 <sysTimerTick+0x1a>
    1b70:	bdf8      	pop	{r3, r4, r5, r6, r7, pc}
    1b72:	4b0d      	ldr	r3, [pc, #52]	; (1ba8 <sysTimerTick+0x50>)
    1b74:	6825      	ldr	r5, [r4, #0]
    1b76:	0021      	movs	r1, r4
    1b78:	6818      	ldr	r0, [r3, #0]
    1b7a:	6035      	str	r5, [r6, #0]
    1b7c:	f7ff ffd3 	bl	1b26 <isrMessagePut>
    1b80:	2800      	cmp	r0, #0
    1b82:	d002      	beq.n	1b8a <sysTimerTick+0x32>
    1b84:	2004      	movs	r0, #4
    1b86:	f7ff f8dd 	bl	d44 <os_error>
    1b8a:	7963      	ldrb	r3, [r4, #5]
    1b8c:	2b01      	cmp	r3, #1
    1b8e:	d107      	bne.n	1ba0 <sysTimerTick+0x48>
    1b90:	68e1      	ldr	r1, [r4, #12]
    1b92:	0020      	movs	r0, r4
    1b94:	f7ff fccc 	bl	1530 <rt_timer_insert>
    1b98:	2d00      	cmp	r5, #0
    1b9a:	d0e9      	beq.n	1b70 <sysTimerTick+0x18>
    1b9c:	002c      	movs	r4, r5
    1b9e:	e7e4      	b.n	1b6a <sysTimerTick+0x12>
    1ba0:	7127      	strb	r7, [r4, #4]
    1ba2:	e7f9      	b.n	1b98 <sysTimerTick+0x40>
    1ba4:	20000e08 	.word	0x20000e08
    1ba8:	200008c8 	.word	0x200008c8

00001bac <isrMessageGet>:
    1bac:	b57f      	push	{r0, r1, r2, r3, r4, r5, r6, lr}
    1bae:	0004      	movs	r4, r0
    1bb0:	0016      	movs	r6, r2
    1bb2:	1e08      	subs	r0, r1, #0
    1bb4:	d001      	beq.n	1bba <isrMessageGet+0xe>
    1bb6:	2a00      	cmp	r2, #0
    1bb8:	d004      	beq.n	1bc4 <isrMessageGet+0x18>
    1bba:	2380      	movs	r3, #128	; 0x80
    1bbc:	6023      	str	r3, [r4, #0]
    1bbe:	0020      	movs	r0, r4
    1bc0:	b004      	add	sp, #16
    1bc2:	bd70      	pop	{r4, r5, r6, pc}
    1bc4:	780b      	ldrb	r3, [r1, #0]
    1bc6:	2b01      	cmp	r3, #1
    1bc8:	d1f7      	bne.n	1bba <isrMessageGet+0xe>
    1bca:	a902      	add	r1, sp, #8
    1bcc:	ad01      	add	r5, sp, #4
    1bce:	f7ff fbbd 	bl	134c <isr_mbx_receive>
    1bd2:	2804      	cmp	r0, #4
    1bd4:	d004      	beq.n	1be0 <isrMessageGet+0x34>
    1bd6:	9601      	str	r6, [sp, #4]
    1bd8:	0023      	movs	r3, r4
    1bda:	cd07      	ldmia	r5!, {r0, r1, r2}
    1bdc:	c307      	stmia	r3!, {r0, r1, r2}
    1bde:	e7ee      	b.n	1bbe <isrMessageGet+0x12>
    1be0:	2310      	movs	r3, #16
    1be2:	9301      	str	r3, [sp, #4]
    1be4:	e7f8      	b.n	1bd8 <isrMessageGet+0x2c>
	...

00001be8 <osMessageGet>:
    1be8:	b5b0      	push	{r4, r5, r7, lr}
    1bea:	0004      	movs	r4, r0
    1bec:	0015      	movs	r5, r2
    1bee:	f3ef 8010 	mrs	r0, PRIMASK
    1bf2:	2800      	cmp	r0, #0
    1bf4:	d103      	bne.n	1bfe <osMessageGet+0x16>
    1bf6:	f3ef 8005 	mrs	r0, IPSR
    1bfa:	2800      	cmp	r0, #0
    1bfc:	d005      	beq.n	1c0a <osMessageGet+0x22>
    1bfe:	002a      	movs	r2, r5
    1c00:	0020      	movs	r0, r4
    1c02:	f7ff ffd3 	bl	1bac <isrMessageGet>
    1c06:	0020      	movs	r0, r4
    1c08:	bdb0      	pop	{r4, r5, r7, pc}
    1c0a:	0008      	movs	r0, r1
    1c0c:	0011      	movs	r1, r2
    1c0e:	4f03      	ldr	r7, [pc, #12]	; (1c1c <osMessageGet+0x34>)
    1c10:	46bc      	mov	r12, r7
    1c12:	df00      	svc	0
    1c14:	6020      	str	r0, [r4, #0]
    1c16:	6061      	str	r1, [r4, #4]
    1c18:	60a2      	str	r2, [r4, #8]
    1c1a:	e7f4      	b.n	1c06 <osMessageGet+0x1e>
    1c1c:	00001ae5 	.word	0x00001ae5

00001c20 <osTimerThread>:
    1c20:	b510      	push	{r4, lr}
    1c22:	2401      	movs	r4, #1
    1c24:	b086      	sub	sp, #24
    1c26:	4264      	negs	r4, r4
    1c28:	4b09      	ldr	r3, [pc, #36]	; (1c50 <osTimerThread+0x30>)
    1c2a:	0022      	movs	r2, r4
    1c2c:	6819      	ldr	r1, [r3, #0]
    1c2e:	a803      	add	r0, sp, #12
    1c30:	f7ff ffda 	bl	1be8 <osMessageGet>
    1c34:	9b03      	ldr	r3, [sp, #12]
    1c36:	2b10      	cmp	r3, #16
    1c38:	d1f6      	bne.n	1c28 <osTimerThread+0x8>
    1c3a:	9904      	ldr	r1, [sp, #16]
    1c3c:	a801      	add	r0, sp, #4
    1c3e:	f7ff fde5 	bl	180c <osTimerCall>
    1c42:	9b01      	ldr	r3, [sp, #4]
    1c44:	2b00      	cmp	r3, #0
    1c46:	d0ef      	beq.n	1c28 <osTimerThread+0x8>
    1c48:	9802      	ldr	r0, [sp, #8]
    1c4a:	4798      	blx	r3
    1c4c:	e7ec      	b.n	1c28 <osTimerThread+0x8>
    1c4e:	46c0      	nop			; (mov r8, r8)
    1c50:	200008c8 	.word	0x200008c8

00001c54 <rt_switch_req>:
    1c54:	4b07      	ldr	r3, [pc, #28]	; (1c74 <rt_switch_req+0x20>)
    1c56:	b510      	push	{r4, lr}
    1c58:	6058      	str	r0, [r3, #4]
    1c5a:	2302      	movs	r3, #2
    1c5c:	7043      	strb	r3, [r0, #1]
    1c5e:	4b06      	ldr	r3, [pc, #24]	; (1c78 <rt_switch_req+0x24>)
    1c60:	681b      	ldr	r3, [r3, #0]
    1c62:	2b00      	cmp	r3, #0
    1c64:	d004      	beq.n	1c70 <rt_switch_req+0x1c>
    1c66:	691b      	ldr	r3, [r3, #16]
    1c68:	2b00      	cmp	r3, #0
    1c6a:	d001      	beq.n	1c70 <rt_switch_req+0x1c>
    1c6c:	6bc0      	ldr	r0, [r0, #60]	; 0x3c
    1c6e:	4798      	blx	r3
    1c70:	bd10      	pop	{r4, pc}
    1c72:	46c0      	nop			; (mov r8, r8)
    1c74:	20000e0c 	.word	0x20000e0c
    1c78:	20000df4 	.word	0x20000df4

00001c7c <rt_dispatch.part.0>:
    1c7c:	b510      	push	{r4, lr}
    1c7e:	4803      	ldr	r0, [pc, #12]	; (1c8c <rt_dispatch.part.0+0x10>)
    1c80:	f7ff f8cc 	bl	e1c <rt_get_first>
    1c84:	f7ff ffe6 	bl	1c54 <rt_switch_req>
    1c88:	bd10      	pop	{r4, pc}
    1c8a:	46c0      	nop			; (mov r8, r8)
    1c8c:	20000dc0 	.word	0x20000dc0

00001c90 <rt_dispatch>:
    1c90:	b570      	push	{r4, r5, r6, lr}
    1c92:	1e04      	subs	r4, r0, #0
    1c94:	d102      	bne.n	1c9c <rt_dispatch+0xc>
    1c96:	f7ff fff1 	bl	1c7c <rt_dispatch.part.0>
    1c9a:	bd70      	pop	{r4, r5, r6, pc}
    1c9c:	4e0a      	ldr	r6, [pc, #40]	; (1cc8 <rt_dispatch+0x38>)
    1c9e:	78a2      	ldrb	r2, [r4, #2]
    1ca0:	6830      	ldr	r0, [r6, #0]
    1ca2:	2501      	movs	r5, #1
    1ca4:	7883      	ldrb	r3, [r0, #2]
    1ca6:	429a      	cmp	r2, r3
    1ca8:	d907      	bls.n	1cba <rt_dispatch+0x2a>
    1caa:	f7ff f8c9 	bl	e40 <rt_put_rdy_first>
    1cae:	6833      	ldr	r3, [r6, #0]
    1cb0:	0020      	movs	r0, r4
    1cb2:	705d      	strb	r5, [r3, #1]
    1cb4:	f7ff ffce 	bl	1c54 <rt_switch_req>
    1cb8:	e7ef      	b.n	1c9a <rt_dispatch+0xa>
    1cba:	7065      	strb	r5, [r4, #1]
    1cbc:	0021      	movs	r1, r4
    1cbe:	4803      	ldr	r0, [pc, #12]	; (1ccc <rt_dispatch+0x3c>)
    1cc0:	f7ff f892 	bl	de8 <rt_put_prio>
    1cc4:	e7e9      	b.n	1c9a <rt_dispatch+0xa>
    1cc6:	46c0      	nop			; (mov r8, r8)
    1cc8:	20000e0c 	.word	0x20000e0c
    1ccc:	20000dc0 	.word	0x20000dc0

00001cd0 <rt_block>:
    1cd0:	b570      	push	{r4, r5, r6, lr}
    1cd2:	000d      	movs	r5, r1
    1cd4:	2800      	cmp	r0, #0
    1cd6:	d00e      	beq.n	1cf6 <rt_block+0x26>
    1cd8:	4b07      	ldr	r3, [pc, #28]	; (1cf8 <rt_block+0x28>)
    1cda:	4c08      	ldr	r4, [pc, #32]	; (1cfc <rt_block+0x2c>)
    1cdc:	4298      	cmp	r0, r3
    1cde:	d003      	beq.n	1ce8 <rt_block+0x18>
    1ce0:	0001      	movs	r1, r0
    1ce2:	6820      	ldr	r0, [r4, #0]
    1ce4:	f7ff f8b6 	bl	e54 <rt_put_dly>
    1ce8:	6823      	ldr	r3, [r4, #0]
    1cea:	4805      	ldr	r0, [pc, #20]	; (1d00 <rt_block+0x30>)
    1cec:	705d      	strb	r5, [r3, #1]
    1cee:	f7ff f895 	bl	e1c <rt_get_first>
    1cf2:	f7ff ffaf 	bl	1c54 <rt_switch_req>
    1cf6:	bd70      	pop	{r4, r5, r6, pc}
    1cf8:	0000ffff 	.word	0x0000ffff
    1cfc:	20000e0c 	.word	0x20000e0c
    1d00:	20000dc0 	.word	0x20000dc0

00001d04 <rt_tsk_self>:
    1d04:	4b02      	ldr	r3, [pc, #8]	; (1d10 <rt_tsk_self+0xc>)
    1d06:	681b      	ldr	r3, [r3, #0]
    1d08:	1e18      	subs	r0, r3, #0
    1d0a:	d000      	beq.n	1d0e <rt_tsk_self+0xa>
    1d0c:	78d8      	ldrb	r0, [r3, #3]
    1d0e:	4770      	bx	lr
    1d10:	20000e0c 	.word	0x20000e0c

00001d14 <rt_tsk_prio>:
    1d14:	b510      	push	{r4, lr}
    1d16:	2800      	cmp	r0, #0
    1d18:	d116      	bne.n	1d48 <rt_tsk_prio+0x34>
    1d1a:	4b1a      	ldr	r3, [pc, #104]	; (1d84 <rt_tsk_prio+0x70>)
    1d1c:	681b      	ldr	r3, [r3, #0]
    1d1e:	7099      	strb	r1, [r3, #2]
    1d20:	3305      	adds	r3, #5
    1d22:	77d9      	strb	r1, [r3, #31]
    1d24:	4818      	ldr	r0, [pc, #96]	; (1d88 <rt_tsk_prio+0x74>)
    1d26:	6843      	ldr	r3, [r0, #4]
    1d28:	789b      	ldrb	r3, [r3, #2]
    1d2a:	428b      	cmp	r3, r1
    1d2c:	d802      	bhi.n	1d34 <rt_tsk_prio+0x20>
    1d2e:	2200      	movs	r2, #0
    1d30:	0010      	movs	r0, r2
    1d32:	bd10      	pop	{r4, pc}
    1d34:	4c13      	ldr	r4, [pc, #76]	; (1d84 <rt_tsk_prio+0x70>)
    1d36:	6821      	ldr	r1, [r4, #0]
    1d38:	f7ff f856 	bl	de8 <rt_put_prio>
    1d3c:	2201      	movs	r2, #1
    1d3e:	6823      	ldr	r3, [r4, #0]
    1d40:	705a      	strb	r2, [r3, #1]
    1d42:	f7ff ff9b 	bl	1c7c <rt_dispatch.part.0>
    1d46:	e7f2      	b.n	1d2e <rt_tsk_prio+0x1a>
    1d48:	4b10      	ldr	r3, [pc, #64]	; (1d8c <rt_tsk_prio+0x78>)
    1d4a:	22ff      	movs	r2, #255	; 0xff
    1d4c:	881b      	ldrh	r3, [r3, #0]
    1d4e:	4298      	cmp	r0, r3
    1d50:	d8ee      	bhi.n	1d30 <rt_tsk_prio+0x1c>
    1d52:	1e43      	subs	r3, r0, #1
    1d54:	480e      	ldr	r0, [pc, #56]	; (1d90 <rt_tsk_prio+0x7c>)
    1d56:	009b      	lsls	r3, r3, #2
    1d58:	581c      	ldr	r4, [r3, r0]
    1d5a:	2c00      	cmp	r4, #0
    1d5c:	d0e8      	beq.n	1d30 <rt_tsk_prio+0x1c>
    1d5e:	1d63      	adds	r3, r4, #5
    1d60:	70a1      	strb	r1, [r4, #2]
    1d62:	77d9      	strb	r1, [r3, #31]
    1d64:	4b07      	ldr	r3, [pc, #28]	; (1d84 <rt_tsk_prio+0x70>)
    1d66:	681b      	ldr	r3, [r3, #0]
    1d68:	429c      	cmp	r4, r3
    1d6a:	d0db      	beq.n	1d24 <rt_tsk_prio+0x10>
    1d6c:	0020      	movs	r0, r4
    1d6e:	f7ff f8e9 	bl	f44 <rt_resort_prio>
    1d72:	7863      	ldrb	r3, [r4, #1]
    1d74:	2b01      	cmp	r3, #1
    1d76:	d1da      	bne.n	1d2e <rt_tsk_prio+0x1a>
    1d78:	4803      	ldr	r0, [pc, #12]	; (1d88 <rt_tsk_prio+0x74>)
    1d7a:	f7ff f84f 	bl	e1c <rt_get_first>
    1d7e:	f7ff ff87 	bl	1c90 <rt_dispatch>
    1d82:	e7d4      	b.n	1d2e <rt_tsk_prio+0x1a>
    1d84:	20000e0c 	.word	0x20000e0c
    1d88:	20000dc0 	.word	0x20000dc0
    1d8c:	000072ec 	.word	0x000072ec
    1d90:	20000828 	.word	0x20000828

00001d94 <rt_tsk_create>:
    1d94:	b5f7      	push	{r0, r1, r2, r4, r5, r6, r7, lr}
    1d96:	001f      	movs	r7, r3
    1d98:	b2cb      	uxtb	r3, r1
    1d9a:	0015      	movs	r5, r2
    1d9c:	425a      	negs	r2, r3
    1d9e:	4153      	adcs	r3, r2
    1da0:	9000      	str	r0, [sp, #0]
    1da2:	4821      	ldr	r0, [pc, #132]	; (1e28 <rt_tsk_create+0x94>)
    1da4:	18ce      	adds	r6, r1, r3
    1da6:	f7ff fa3e 	bl	1226 <rt_alloc_box>
    1daa:	1e04      	subs	r4, r0, #0
    1dac:	d102      	bne.n	1db4 <rt_tsk_create+0x20>
    1dae:	2500      	movs	r5, #0
    1db0:	0028      	movs	r0, r5
    1db2:	bdfe      	pop	{r1, r2, r3, r4, r5, r6, r7, pc}
    1db4:	6305      	str	r5, [r0, #48]	; 0x30
    1db6:	2501      	movs	r5, #1
    1db8:	4b1c      	ldr	r3, [pc, #112]	; (1e2c <rt_tsk_create+0x98>)
    1dba:	0a32      	lsrs	r2, r6, #8
    1dbc:	8819      	ldrh	r1, [r3, #0]
    1dbe:	6282      	str	r2, [r0, #40]	; 0x28
    1dc0:	428d      	cmp	r5, r1
    1dc2:	d8f4      	bhi.n	1dae <rt_tsk_create+0x1a>
    1dc4:	1e6b      	subs	r3, r5, #1
    1dc6:	9301      	str	r3, [sp, #4]
    1dc8:	4819      	ldr	r0, [pc, #100]	; (1e30 <rt_tsk_create+0x9c>)
    1dca:	00ab      	lsls	r3, r5, #2
    1dcc:	3b04      	subs	r3, #4
    1dce:	58c3      	ldr	r3, [r0, r3]
    1dd0:	2b00      	cmp	r3, #0
    1dd2:	d001      	beq.n	1dd8 <rt_tsk_create+0x44>
    1dd4:	3501      	adds	r5, #1
    1dd6:	e7f3      	b.n	1dc0 <rt_tsk_create+0x2c>
    1dd8:	2101      	movs	r1, #1
    1dda:	b2f6      	uxtb	r6, r6
    1ddc:	7061      	strb	r1, [r4, #1]
    1dde:	1d61      	adds	r1, r4, #5
    1de0:	70e5      	strb	r5, [r4, #3]
    1de2:	61e7      	str	r7, [r4, #28]
    1de4:	63a7      	str	r7, [r4, #56]	; 0x38
    1de6:	7023      	strb	r3, [r4, #0]
    1de8:	70a6      	strb	r6, [r4, #2]
    1dea:	77ce      	strb	r6, [r1, #31]
    1dec:	1da1      	adds	r1, r4, #6
    1dee:	6063      	str	r3, [r4, #4]
    1df0:	60a3      	str	r3, [r4, #8]
    1df2:	60e3      	str	r3, [r4, #12]
    1df4:	6123      	str	r3, [r4, #16]
    1df6:	6223      	str	r3, [r4, #32]
    1df8:	82a3      	strh	r3, [r4, #20]
    1dfa:	82e3      	strh	r3, [r4, #22]
    1dfc:	8323      	strh	r3, [r4, #24]
    1dfe:	8363      	strh	r3, [r4, #26]
    1e00:	77cb      	strb	r3, [r1, #31]
    1e02:	2a00      	cmp	r2, #0
    1e04:	d103      	bne.n	1e0e <rt_tsk_create+0x7a>
    1e06:	480b      	ldr	r0, [pc, #44]	; (1e34 <rt_tsk_create+0xa0>)
    1e08:	f7ff fa0d 	bl	1226 <rt_alloc_box>
    1e0c:	6320      	str	r0, [r4, #48]	; 0x30
    1e0e:	0020      	movs	r0, r4
    1e10:	9900      	ldr	r1, [sp, #0]
    1e12:	f7ff f8eb 	bl	fec <rt_init_stack>
    1e16:	1e6b      	subs	r3, r5, #1
    1e18:	4a05      	ldr	r2, [pc, #20]	; (1e30 <rt_tsk_create+0x9c>)
    1e1a:	009b      	lsls	r3, r3, #2
    1e1c:	0020      	movs	r0, r4
    1e1e:	50d4      	str	r4, [r2, r3]
    1e20:	f7ff ff36 	bl	1c90 <rt_dispatch>
    1e24:	e7c4      	b.n	1db0 <rt_tsk_create+0x1c>
    1e26:	46c0      	nop			; (mov r8, r8)
    1e28:	20000bf0 	.word	0x20000bf0
    1e2c:	000072ec 	.word	0x000072ec
    1e30:	20000828 	.word	0x20000828
    1e34:	20000618 	.word	0x20000618

00001e38 <rt_tsk_delete>:
    1e38:	b5f7      	push	{r0, r1, r2, r4, r5, r6, r7, lr}
    1e3a:	4d4c      	ldr	r5, [pc, #304]	; (1f6c <rt_tsk_delete+0x134>)
    1e3c:	2800      	cmp	r0, #0
    1e3e:	d003      	beq.n	1e48 <rt_tsk_delete+0x10>
    1e40:	682b      	ldr	r3, [r5, #0]
    1e42:	78db      	ldrb	r3, [r3, #3]
    1e44:	4298      	cmp	r0, r3
    1e46:	d140      	bne.n	1eca <rt_tsk_delete+0x92>
    1e48:	2300      	movs	r3, #0
    1e4a:	682c      	ldr	r4, [r5, #0]
    1e4c:	2701      	movs	r7, #1
    1e4e:	7063      	strb	r3, [r4, #1]
    1e50:	f001 ffab 	bl	3daa <rt_get_PSP>
    1e54:	62e0      	str	r0, [r4, #44]	; 0x2c
    1e56:	f7ff f9ad 	bl	11b4 <rt_stk_check>
    1e5a:	682b      	ldr	r3, [r5, #0]
    1e5c:	6a1c      	ldr	r4, [r3, #32]
    1e5e:	2c00      	cmp	r4, #0
    1e60:	d113      	bne.n	1e8a <rt_tsk_delete+0x52>
    1e62:	682a      	ldr	r2, [r5, #0]
    1e64:	4942      	ldr	r1, [pc, #264]	; (1f70 <rt_tsk_delete+0x138>)
    1e66:	78d3      	ldrb	r3, [r2, #3]
    1e68:	4842      	ldr	r0, [pc, #264]	; (1f74 <rt_tsk_delete+0x13c>)
    1e6a:	3b01      	subs	r3, #1
    1e6c:	009b      	lsls	r3, r3, #2
    1e6e:	505c      	str	r4, [r3, r1]
    1e70:	6b11      	ldr	r1, [r2, #48]	; 0x30
    1e72:	f7ff f9e7 	bl	1244 <rt_free_box>
    1e76:	6829      	ldr	r1, [r5, #0]
    1e78:	483f      	ldr	r0, [pc, #252]	; (1f78 <rt_tsk_delete+0x140>)
    1e7a:	630c      	str	r4, [r1, #48]	; 0x30
    1e7c:	f7ff f9e2 	bl	1244 <rt_free_box>
    1e80:	602c      	str	r4, [r5, #0]
    1e82:	f7ff fefb 	bl	1c7c <rt_dispatch.part.0>
    1e86:	0020      	movs	r0, r4
    1e88:	bdfe      	pop	{r1, r2, r3, r4, r5, r6, r7, pc}
    1e8a:	6863      	ldr	r3, [r4, #4]
    1e8c:	2b00      	cmp	r3, #0
    1e8e:	d016      	beq.n	1ebe <rt_tsk_delete+0x86>
    1e90:	0020      	movs	r0, r4
    1e92:	f7fe ffc3 	bl	e1c <rt_get_first>
    1e96:	0006      	movs	r6, r0
    1e98:	2100      	movs	r1, #0
    1e9a:	f7ff f8f3 	bl	1084 <rt_ret_val>
    1e9e:	0030      	movs	r0, r6
    1ea0:	f7ff f868 	bl	f74 <rt_rmv_dly>
    1ea4:	7077      	strb	r7, [r6, #1]
    1ea6:	0031      	movs	r1, r6
    1ea8:	4834      	ldr	r0, [pc, #208]	; (1f7c <rt_tsk_delete+0x144>)
    1eaa:	f7fe ff9d 	bl	de8 <rt_put_prio>
    1eae:	68e3      	ldr	r3, [r4, #12]
    1eb0:	6a32      	ldr	r2, [r6, #32]
    1eb2:	8067      	strh	r7, [r4, #2]
    1eb4:	60a6      	str	r6, [r4, #8]
    1eb6:	60e2      	str	r2, [r4, #12]
    1eb8:	6234      	str	r4, [r6, #32]
    1eba:	001c      	movs	r4, r3
    1ebc:	e7cf      	b.n	1e5e <rt_tsk_delete+0x26>
    1ebe:	68e2      	ldr	r2, [r4, #12]
    1ec0:	8063      	strh	r3, [r4, #2]
    1ec2:	60a3      	str	r3, [r4, #8]
    1ec4:	60e3      	str	r3, [r4, #12]
    1ec6:	0014      	movs	r4, r2
    1ec8:	e7c9      	b.n	1e5e <rt_tsk_delete+0x26>
    1eca:	4b2d      	ldr	r3, [pc, #180]	; (1f80 <rt_tsk_delete+0x148>)
    1ecc:	24ff      	movs	r4, #255	; 0xff
    1ece:	881b      	ldrh	r3, [r3, #0]
    1ed0:	4298      	cmp	r0, r3
    1ed2:	d8d8      	bhi.n	1e86 <rt_tsk_delete+0x4e>
    1ed4:	3801      	subs	r0, #1
    1ed6:	0083      	lsls	r3, r0, #2
    1ed8:	9301      	str	r3, [sp, #4]
    1eda:	9a01      	ldr	r2, [sp, #4]
    1edc:	4b24      	ldr	r3, [pc, #144]	; (1f70 <rt_tsk_delete+0x138>)
    1ede:	58d6      	ldr	r6, [r2, r3]
    1ee0:	2e00      	cmp	r6, #0
    1ee2:	d0d0      	beq.n	1e86 <rt_tsk_delete+0x4e>
    1ee4:	0030      	movs	r0, r6
    1ee6:	f7ff f817 	bl	f18 <rt_rmv_list>
    1eea:	0030      	movs	r0, r6
    1eec:	f7ff f842 	bl	f74 <rt_rmv_dly>
    1ef0:	6a34      	ldr	r4, [r6, #32]
    1ef2:	2c00      	cmp	r4, #0
    1ef4:	d117      	bne.n	1f26 <rt_tsk_delete+0xee>
    1ef6:	4b1e      	ldr	r3, [pc, #120]	; (1f70 <rt_tsk_delete+0x138>)
    1ef8:	9a01      	ldr	r2, [sp, #4]
    1efa:	6b31      	ldr	r1, [r6, #48]	; 0x30
    1efc:	481d      	ldr	r0, [pc, #116]	; (1f74 <rt_tsk_delete+0x13c>)
    1efe:	509c      	str	r4, [r3, r2]
    1f00:	f7ff f9a0 	bl	1244 <rt_free_box>
    1f04:	0031      	movs	r1, r6
    1f06:	6334      	str	r4, [r6, #48]	; 0x30
    1f08:	481b      	ldr	r0, [pc, #108]	; (1f78 <rt_tsk_delete+0x140>)
    1f0a:	f7ff f99b 	bl	1244 <rt_free_box>
    1f0e:	481b      	ldr	r0, [pc, #108]	; (1f7c <rt_tsk_delete+0x144>)
    1f10:	6829      	ldr	r1, [r5, #0]
    1f12:	6843      	ldr	r3, [r0, #4]
    1f14:	789a      	ldrb	r2, [r3, #2]
    1f16:	788b      	ldrb	r3, [r1, #2]
    1f18:	429a      	cmp	r2, r3
    1f1a:	d9b4      	bls.n	1e86 <rt_tsk_delete+0x4e>
    1f1c:	2301      	movs	r3, #1
    1f1e:	704b      	strb	r3, [r1, #1]
    1f20:	f7fe ff62 	bl	de8 <rt_put_prio>
    1f24:	e7ad      	b.n	1e82 <rt_tsk_delete+0x4a>
    1f26:	6863      	ldr	r3, [r4, #4]
    1f28:	2b00      	cmp	r3, #0
    1f2a:	d018      	beq.n	1f5e <rt_tsk_delete+0x126>
    1f2c:	0020      	movs	r0, r4
    1f2e:	f7fe ff75 	bl	e1c <rt_get_first>
    1f32:	0007      	movs	r7, r0
    1f34:	2100      	movs	r1, #0
    1f36:	f7ff f8a5 	bl	1084 <rt_ret_val>
    1f3a:	0038      	movs	r0, r7
    1f3c:	f7ff f81a 	bl	f74 <rt_rmv_dly>
    1f40:	2301      	movs	r3, #1
    1f42:	0039      	movs	r1, r7
    1f44:	707b      	strb	r3, [r7, #1]
    1f46:	480d      	ldr	r0, [pc, #52]	; (1f7c <rt_tsk_delete+0x144>)
    1f48:	f7fe ff4e 	bl	de8 <rt_put_prio>
    1f4c:	2201      	movs	r2, #1
    1f4e:	68e3      	ldr	r3, [r4, #12]
    1f50:	8062      	strh	r2, [r4, #2]
    1f52:	6a3a      	ldr	r2, [r7, #32]
    1f54:	60a7      	str	r7, [r4, #8]
    1f56:	60e2      	str	r2, [r4, #12]
    1f58:	623c      	str	r4, [r7, #32]
    1f5a:	001c      	movs	r4, r3
    1f5c:	e7c9      	b.n	1ef2 <rt_tsk_delete+0xba>
    1f5e:	68e2      	ldr	r2, [r4, #12]
    1f60:	8063      	strh	r3, [r4, #2]
    1f62:	60a3      	str	r3, [r4, #8]
    1f64:	60e3      	str	r3, [r4, #12]
    1f66:	0014      	movs	r4, r2
    1f68:	e7c3      	b.n	1ef2 <rt_tsk_delete+0xba>
    1f6a:	46c0      	nop			; (mov r8, r8)
    1f6c:	20000e0c 	.word	0x20000e0c
    1f70:	20000828 	.word	0x20000828
    1f74:	20000618 	.word	0x20000618
    1f78:	20000bf0 	.word	0x20000bf0
    1f7c:	20000dc0 	.word	0x20000dc0
    1f80:	000072ec 	.word	0x000072ec

00001f84 <rt_sys_init>:
    1f84:	4b2d      	ldr	r3, [pc, #180]	; (203c <rt_sys_init+0xb8>)
    1f86:	b570      	push	{r4, r5, r6, lr}
    1f88:	8819      	ldrh	r1, [r3, #0]
    1f8a:	2300      	movs	r3, #0
    1f8c:	001c      	movs	r4, r3
    1f8e:	482c      	ldr	r0, [pc, #176]	; (2040 <rt_sys_init+0xbc>)
    1f90:	428b      	cmp	r3, r1
    1f92:	d34e      	bcc.n	2032 <rt_sys_init+0xae>
    1f94:	4b2b      	ldr	r3, [pc, #172]	; (2044 <rt_sys_init+0xc0>)
    1f96:	2240      	movs	r2, #64	; 0x40
    1f98:	8819      	ldrh	r1, [r3, #0]
    1f9a:	482b      	ldr	r0, [pc, #172]	; (2048 <rt_sys_init+0xc4>)
    1f9c:	f7ff f91e 	bl	11dc <_init_box>
    1fa0:	2280      	movs	r2, #128	; 0x80
    1fa2:	4b2a      	ldr	r3, [pc, #168]	; (204c <rt_sys_init+0xc8>)
    1fa4:	0612      	lsls	r2, r2, #24
    1fa6:	881b      	ldrh	r3, [r3, #0]
    1fa8:	4e29      	ldr	r6, [pc, #164]	; (2050 <rt_sys_init+0xcc>)
    1faa:	431a      	orrs	r2, r3
    1fac:	4b29      	ldr	r3, [pc, #164]	; (2054 <rt_sys_init+0xd0>)
    1fae:	0030      	movs	r0, r6
    1fb0:	6819      	ldr	r1, [r3, #0]
    1fb2:	f7ff f913 	bl	11dc <_init_box>
    1fb6:	4b28      	ldr	r3, [pc, #160]	; (2058 <rt_sys_init+0xd4>)
    1fb8:	2208      	movs	r2, #8
    1fba:	8819      	ldrh	r1, [r3, #0]
    1fbc:	4b27      	ldr	r3, [pc, #156]	; (205c <rt_sys_init+0xd8>)
    1fbe:	2500      	movs	r5, #0
    1fc0:	6818      	ldr	r0, [r3, #0]
    1fc2:	f7ff f90b 	bl	11dc <_init_box>
    1fc6:	23ff      	movs	r3, #255	; 0xff
    1fc8:	4c25      	ldr	r4, [pc, #148]	; (2060 <rt_sys_init+0xdc>)
    1fca:	0030      	movs	r0, r6
    1fcc:	70e3      	strb	r3, [r4, #3]
    1fce:	3bfe      	subs	r3, #254	; 0xfe
    1fd0:	7063      	strb	r3, [r4, #1]
    1fd2:	1d63      	adds	r3, r4, #5
    1fd4:	77dd      	strb	r5, [r3, #31]
    1fd6:	1da3      	adds	r3, r4, #6
    1fd8:	77dd      	strb	r5, [r3, #31]
    1fda:	62a5      	str	r5, [r4, #40]	; 0x28
    1fdc:	7025      	strb	r5, [r4, #0]
    1fde:	70a5      	strb	r5, [r4, #2]
    1fe0:	6065      	str	r5, [r4, #4]
    1fe2:	60a5      	str	r5, [r4, #8]
    1fe4:	60e5      	str	r5, [r4, #12]
    1fe6:	6125      	str	r5, [r4, #16]
    1fe8:	6225      	str	r5, [r4, #32]
    1fea:	82a5      	strh	r5, [r4, #20]
    1fec:	82e5      	strh	r5, [r4, #22]
    1fee:	8325      	strh	r5, [r4, #24]
    1ff0:	8365      	strh	r5, [r4, #26]
    1ff2:	f7ff f918 	bl	1226 <rt_alloc_box>
    1ff6:	491b      	ldr	r1, [pc, #108]	; (2064 <rt_sys_init+0xe0>)
    1ff8:	6320      	str	r0, [r4, #48]	; 0x30
    1ffa:	0020      	movs	r0, r4
    1ffc:	f7fe fff6 	bl	fec <rt_init_stack>
    2000:	2204      	movs	r2, #4
    2002:	4b19      	ldr	r3, [pc, #100]	; (2068 <rt_sys_init+0xe4>)
    2004:	0020      	movs	r0, r4
    2006:	701a      	strb	r2, [r3, #0]
    2008:	605d      	str	r5, [r3, #4]
    200a:	4b18      	ldr	r3, [pc, #96]	; (206c <rt_sys_init+0xe8>)
    200c:	701a      	strb	r2, [r3, #0]
    200e:	60dd      	str	r5, [r3, #12]
    2010:	611d      	str	r5, [r3, #16]
    2012:	829d      	strh	r5, [r3, #20]
    2014:	4b16      	ldr	r3, [pc, #88]	; (2070 <rt_sys_init+0xec>)
    2016:	601c      	str	r4, [r3, #0]
    2018:	2302      	movs	r3, #2
    201a:	7063      	strb	r3, [r4, #1]
    201c:	f7ff fe1a 	bl	1c54 <rt_switch_req>
    2020:	4a14      	ldr	r2, [pc, #80]	; (2074 <rt_sys_init+0xf0>)
    2022:	4b15      	ldr	r3, [pc, #84]	; (2078 <rt_sys_init+0xf4>)
    2024:	7812      	ldrb	r2, [r2, #0]
    2026:	701d      	strb	r5, [r3, #0]
    2028:	705d      	strb	r5, [r3, #1]
    202a:	70da      	strb	r2, [r3, #3]
    202c:	f7ff fa52 	bl	14d4 <rt_init_robin>
    2030:	bd70      	pop	{r4, r5, r6, pc}
    2032:	009a      	lsls	r2, r3, #2
    2034:	1812      	adds	r2, r2, r0
    2036:	6014      	str	r4, [r2, #0]
    2038:	3301      	adds	r3, #1
    203a:	e7a9      	b.n	1f90 <rt_sys_init+0xc>
    203c:	000072ec 	.word	0x000072ec
    2040:	20000828 	.word	0x20000828
    2044:	000072b8 	.word	0x000072b8
    2048:	20000bf0 	.word	0x20000bf0
    204c:	00007308 	.word	0x00007308
    2050:	20000618 	.word	0x20000618
    2054:	000072b4 	.word	0x000072b4
    2058:	000072ba 	.word	0x000072ba
    205c:	1ffff430 	.word	0x1ffff430
    2060:	20000e14 	.word	0x20000e14
    2064:	00000d3d 	.word	0x00000d3d
    2068:	20000dc0 	.word	0x20000dc0
    206c:	20000dd8 	.word	0x20000dd8
    2070:	20000e0c 	.word	0x20000e0c
    2074:	000072e9 	.word	0x000072e9
    2078:	20000844 	.word	0x20000844

0000207c <rt_sys_start>:
    207c:	22ff      	movs	r2, #255	; 0xff
    207e:	4b15      	ldr	r3, [pc, #84]	; (20d4 <rt_sys_start+0x58>)
    2080:	0412      	lsls	r2, r2, #16
    2082:	6819      	ldr	r1, [r3, #0]
    2084:	b510      	push	{r4, lr}
    2086:	430a      	orrs	r2, r1
    2088:	601a      	str	r2, [r3, #0]
    208a:	681b      	ldr	r3, [r3, #0]
    208c:	4a12      	ldr	r2, [pc, #72]	; (20d8 <rt_sys_start+0x5c>)
    208e:	025b      	lsls	r3, r3, #9
    2090:	6811      	ldr	r1, [r2, #0]
    2092:	0e9b      	lsrs	r3, r3, #26
    2094:	069b      	lsls	r3, r3, #26
    2096:	430b      	orrs	r3, r1
    2098:	6013      	str	r3, [r2, #0]
    209a:	f7ff f84d 	bl	1138 <os_tick_init>
    209e:	490f      	ldr	r1, [pc, #60]	; (20dc <rt_sys_start+0x60>)
    20a0:	6008      	str	r0, [r1, #0]
    20a2:	2800      	cmp	r0, #0
    20a4:	db15      	blt.n	20d2 <rt_sys_start+0x56>
    20a6:	0883      	lsrs	r3, r0, #2
    20a8:	4a0d      	ldr	r2, [pc, #52]	; (20e0 <rt_sys_start+0x64>)
    20aa:	009b      	lsls	r3, r3, #2
    20ac:	189b      	adds	r3, r3, r2
    20ae:	2218      	movs	r2, #24
    20b0:	00c0      	lsls	r0, r0, #3
    20b2:	4010      	ands	r0, r2
    20b4:	32e7      	adds	r2, #231	; 0xe7
    20b6:	4082      	lsls	r2, r0
    20b8:	681c      	ldr	r4, [r3, #0]
    20ba:	4322      	orrs	r2, r4
    20bc:	601a      	str	r2, [r3, #0]
    20be:	680a      	ldr	r2, [r1, #0]
    20c0:	4908      	ldr	r1, [pc, #32]	; (20e4 <rt_sys_start+0x68>)
    20c2:	0953      	lsrs	r3, r2, #5
    20c4:	009b      	lsls	r3, r3, #2
    20c6:	185b      	adds	r3, r3, r1
    20c8:	211f      	movs	r1, #31
    20ca:	400a      	ands	r2, r1
    20cc:	391e      	subs	r1, #30
    20ce:	4091      	lsls	r1, r2
    20d0:	6019      	str	r1, [r3, #0]
    20d2:	bd10      	pop	{r4, pc}
    20d4:	e000ed20 	.word	0xe000ed20
    20d8:	e000ed1c 	.word	0xe000ed1c
    20dc:	20000df0 	.word	0x20000df0
    20e0:	e000e400 	.word	0xe000e400
    20e4:	e000e100 	.word	0xe000e100

000020e8 <rt_mut_init>:
    20e8:	2303      	movs	r3, #3
    20ea:	7003      	strb	r3, [r0, #0]
    20ec:	2300      	movs	r3, #0
    20ee:	8043      	strh	r3, [r0, #2]
    20f0:	6043      	str	r3, [r0, #4]
    20f2:	6083      	str	r3, [r0, #8]
    20f4:	60c3      	str	r3, [r0, #12]
    20f6:	4770      	bx	lr

000020f8 <rt_mut_delete>:
    20f8:	b5f8      	push	{r3, r4, r5, r6, r7, lr}
    20fa:	8843      	ldrh	r3, [r0, #2]
    20fc:	0004      	movs	r4, r0
    20fe:	2b00      	cmp	r3, #0
    2100:	d014      	beq.n	212c <rt_mut_delete+0x34>
    2102:	6880      	ldr	r0, [r0, #8]
    2104:	6a03      	ldr	r3, [r0, #32]
    2106:	429c      	cmp	r4, r3
    2108:	d12b      	bne.n	2162 <rt_mut_delete+0x6a>
    210a:	68e3      	ldr	r3, [r4, #12]
    210c:	6203      	str	r3, [r0, #32]
    210e:	1d43      	adds	r3, r0, #5
    2110:	7fdb      	ldrb	r3, [r3, #31]
    2112:	6a02      	ldr	r2, [r0, #32]
    2114:	2a00      	cmp	r2, #0
    2116:	d12c      	bne.n	2172 <rt_mut_delete+0x7a>
    2118:	7882      	ldrb	r2, [r0, #2]
    211a:	429a      	cmp	r2, r3
    211c:	d006      	beq.n	212c <rt_mut_delete+0x34>
    211e:	7083      	strb	r3, [r0, #2]
    2120:	4b21      	ldr	r3, [pc, #132]	; (21a8 <rt_mut_delete+0xb0>)
    2122:	681b      	ldr	r3, [r3, #0]
    2124:	4298      	cmp	r0, r3
    2126:	d001      	beq.n	212c <rt_mut_delete+0x34>
    2128:	f7fe ff0c 	bl	f44 <rt_resort_prio>
    212c:	2701      	movs	r7, #1
    212e:	6865      	ldr	r5, [r4, #4]
    2130:	4e1e      	ldr	r6, [pc, #120]	; (21ac <rt_mut_delete+0xb4>)
    2132:	2d00      	cmp	r5, #0
    2134:	d128      	bne.n	2188 <rt_mut_delete+0x90>
    2136:	6873      	ldr	r3, [r6, #4]
    2138:	2b00      	cmp	r3, #0
    213a:	d00e      	beq.n	215a <rt_mut_delete+0x62>
    213c:	4f1a      	ldr	r7, [pc, #104]	; (21a8 <rt_mut_delete+0xb0>)
    213e:	789a      	ldrb	r2, [r3, #2]
    2140:	6839      	ldr	r1, [r7, #0]
    2142:	788b      	ldrb	r3, [r1, #2]
    2144:	429a      	cmp	r2, r3
    2146:	d908      	bls.n	215a <rt_mut_delete+0x62>
    2148:	0030      	movs	r0, r6
    214a:	f7fe fe4d 	bl	de8 <rt_put_prio>
    214e:	2201      	movs	r2, #1
    2150:	683b      	ldr	r3, [r7, #0]
    2152:	0028      	movs	r0, r5
    2154:	705a      	strb	r2, [r3, #1]
    2156:	f7ff fd9b 	bl	1c90 <rt_dispatch>
    215a:	2000      	movs	r0, #0
    215c:	7020      	strb	r0, [r4, #0]
    215e:	bdf8      	pop	{r3, r4, r5, r6, r7, pc}
    2160:	0013      	movs	r3, r2
    2162:	2b00      	cmp	r3, #0
    2164:	d0d3      	beq.n	210e <rt_mut_delete+0x16>
    2166:	68da      	ldr	r2, [r3, #12]
    2168:	4294      	cmp	r4, r2
    216a:	d1f9      	bne.n	2160 <rt_mut_delete+0x68>
    216c:	68e2      	ldr	r2, [r4, #12]
    216e:	60da      	str	r2, [r3, #12]
    2170:	e7cd      	b.n	210e <rt_mut_delete+0x16>
    2172:	6851      	ldr	r1, [r2, #4]
    2174:	2900      	cmp	r1, #0
    2176:	d005      	beq.n	2184 <rt_mut_delete+0x8c>
    2178:	788d      	ldrb	r5, [r1, #2]
    217a:	1c29      	adds	r1, r5, #0
    217c:	429d      	cmp	r5, r3
    217e:	d200      	bcs.n	2182 <rt_mut_delete+0x8a>
    2180:	1c19      	adds	r1, r3, #0
    2182:	b2cb      	uxtb	r3, r1
    2184:	68d2      	ldr	r2, [r2, #12]
    2186:	e7c5      	b.n	2114 <rt_mut_delete+0x1c>
    2188:	0020      	movs	r0, r4
    218a:	f7fe fe47 	bl	e1c <rt_get_first>
    218e:	0005      	movs	r5, r0
    2190:	2100      	movs	r1, #0
    2192:	f7fe ff77 	bl	1084 <rt_ret_val>
    2196:	0028      	movs	r0, r5
    2198:	f7fe feec 	bl	f74 <rt_rmv_dly>
    219c:	706f      	strb	r7, [r5, #1]
    219e:	0029      	movs	r1, r5
    21a0:	0030      	movs	r0, r6
    21a2:	f7fe fe21 	bl	de8 <rt_put_prio>
    21a6:	e7c2      	b.n	212e <rt_mut_delete+0x36>
    21a8:	20000e0c 	.word	0x20000e0c
    21ac:	20000dc0 	.word	0x20000dc0

000021b0 <rt_mut_release>:
    21b0:	b5f7      	push	{r0, r1, r2, r4, r5, r6, r7, lr}
    21b2:	8843      	ldrh	r3, [r0, #2]
    21b4:	0005      	movs	r5, r0
    21b6:	20ff      	movs	r0, #255	; 0xff
    21b8:	2b00      	cmp	r3, #0
    21ba:	d00b      	beq.n	21d4 <rt_mut_release+0x24>
    21bc:	4a34      	ldr	r2, [pc, #208]	; (2290 <rt_mut_release+0xe0>)
    21be:	68a9      	ldr	r1, [r5, #8]
    21c0:	6812      	ldr	r2, [r2, #0]
    21c2:	9201      	str	r2, [sp, #4]
    21c4:	4291      	cmp	r1, r2
    21c6:	d105      	bne.n	21d4 <rt_mut_release+0x24>
    21c8:	3b01      	subs	r3, #1
    21ca:	b29b      	uxth	r3, r3
    21cc:	806b      	strh	r3, [r5, #2]
    21ce:	2b00      	cmp	r3, #0
    21d0:	d001      	beq.n	21d6 <rt_mut_release+0x26>
    21d2:	2000      	movs	r0, #0
    21d4:	bdfe      	pop	{r1, r2, r3, r4, r5, r6, r7, pc}
    21d6:	6a0b      	ldr	r3, [r1, #32]
    21d8:	429d      	cmp	r5, r3
    21da:	d135      	bne.n	2248 <rt_mut_release+0x98>
    21dc:	68eb      	ldr	r3, [r5, #12]
    21de:	620b      	str	r3, [r1, #32]
    21e0:	1d4b      	adds	r3, r1, #5
    21e2:	7fdb      	ldrb	r3, [r3, #31]
    21e4:	6a0c      	ldr	r4, [r1, #32]
    21e6:	2c00      	cmp	r4, #0
    21e8:	d136      	bne.n	2258 <rt_mut_release+0xa8>
    21ea:	708b      	strb	r3, [r1, #2]
    21ec:	686a      	ldr	r2, [r5, #4]
    21ee:	4f29      	ldr	r7, [pc, #164]	; (2294 <rt_mut_release+0xe4>)
    21f0:	2a00      	cmp	r2, #0
    21f2:	d03c      	beq.n	226e <rt_mut_release+0xbe>
    21f4:	0028      	movs	r0, r5
    21f6:	f7fe fe11 	bl	e1c <rt_get_first>
    21fa:	0006      	movs	r6, r0
    21fc:	0021      	movs	r1, r4
    21fe:	f7fe ff41 	bl	1084 <rt_ret_val>
    2202:	0030      	movs	r0, r6
    2204:	f7fe feb6 	bl	f74 <rt_rmv_dly>
    2208:	2301      	movs	r3, #1
    220a:	806b      	strh	r3, [r5, #2]
    220c:	6a33      	ldr	r3, [r6, #32]
    220e:	60ae      	str	r6, [r5, #8]
    2210:	60eb      	str	r3, [r5, #12]
    2212:	4b1f      	ldr	r3, [pc, #124]	; (2290 <rt_mut_release+0xe0>)
    2214:	6235      	str	r5, [r6, #32]
    2216:	6819      	ldr	r1, [r3, #0]
    2218:	687b      	ldr	r3, [r7, #4]
    221a:	788a      	ldrb	r2, [r1, #2]
    221c:	789b      	ldrb	r3, [r3, #2]
    221e:	0030      	movs	r0, r6
    2220:	429a      	cmp	r2, r3
    2222:	d20d      	bcs.n	2240 <rt_mut_release+0x90>
    2224:	0038      	movs	r0, r7
    2226:	f7fe fddf 	bl	de8 <rt_put_prio>
    222a:	0038      	movs	r0, r7
    222c:	0031      	movs	r1, r6
    222e:	f7fe fddb 	bl	de8 <rt_put_prio>
    2232:	2201      	movs	r2, #1
    2234:	4b16      	ldr	r3, [pc, #88]	; (2290 <rt_mut_release+0xe0>)
    2236:	0020      	movs	r0, r4
    2238:	681b      	ldr	r3, [r3, #0]
    223a:	705a      	strb	r2, [r3, #1]
    223c:	2301      	movs	r3, #1
    223e:	7073      	strb	r3, [r6, #1]
    2240:	f7ff fd26 	bl	1c90 <rt_dispatch>
    2244:	e7c5      	b.n	21d2 <rt_mut_release+0x22>
    2246:	0013      	movs	r3, r2
    2248:	2b00      	cmp	r3, #0
    224a:	d0c9      	beq.n	21e0 <rt_mut_release+0x30>
    224c:	68da      	ldr	r2, [r3, #12]
    224e:	4295      	cmp	r5, r2
    2250:	d1f9      	bne.n	2246 <rt_mut_release+0x96>
    2252:	68ea      	ldr	r2, [r5, #12]
    2254:	60da      	str	r2, [r3, #12]
    2256:	e7c3      	b.n	21e0 <rt_mut_release+0x30>
    2258:	6862      	ldr	r2, [r4, #4]
    225a:	2a00      	cmp	r2, #0
    225c:	d005      	beq.n	226a <rt_mut_release+0xba>
    225e:	7890      	ldrb	r0, [r2, #2]
    2260:	1c02      	adds	r2, r0, #0
    2262:	4298      	cmp	r0, r3
    2264:	d200      	bcs.n	2268 <rt_mut_release+0xb8>
    2266:	1c1a      	adds	r2, r3, #0
    2268:	b2d3      	uxtb	r3, r2
    226a:	68e4      	ldr	r4, [r4, #12]
    226c:	e7bb      	b.n	21e6 <rt_mut_release+0x36>
    226e:	687a      	ldr	r2, [r7, #4]
    2270:	7892      	ldrb	r2, [r2, #2]
    2272:	429a      	cmp	r2, r3
    2274:	d9ad      	bls.n	21d2 <rt_mut_release+0x22>
    2276:	0038      	movs	r0, r7
    2278:	f7fe fdb6 	bl	de8 <rt_put_prio>
    227c:	2201      	movs	r2, #1
    227e:	4b04      	ldr	r3, [pc, #16]	; (2290 <rt_mut_release+0xe0>)
    2280:	0020      	movs	r0, r4
    2282:	681b      	ldr	r3, [r3, #0]
    2284:	705a      	strb	r2, [r3, #1]
    2286:	f7ff fd03 	bl	1c90 <rt_dispatch>
    228a:	0020      	movs	r0, r4
    228c:	e7a2      	b.n	21d4 <rt_mut_release+0x24>
    228e:	46c0      	nop			; (mov r8, r8)
    2290:	20000e0c 	.word	0x20000e0c
    2294:	20000dc0 	.word	0x20000dc0

00002298 <rt_mut_wait>:
    2298:	b570      	push	{r4, r5, r6, lr}
    229a:	8842      	ldrh	r2, [r0, #2]
    229c:	0004      	movs	r4, r0
    229e:	000e      	movs	r6, r1
    22a0:	4d16      	ldr	r5, [pc, #88]	; (22fc <rt_mut_wait+0x64>)
    22a2:	2a00      	cmp	r2, #0
    22a4:	d108      	bne.n	22b8 <rt_mut_wait+0x20>
    22a6:	682b      	ldr	r3, [r5, #0]
    22a8:	6a19      	ldr	r1, [r3, #32]
    22aa:	6083      	str	r3, [r0, #8]
    22ac:	60c1      	str	r1, [r0, #12]
    22ae:	6218      	str	r0, [r3, #32]
    22b0:	2000      	movs	r0, #0
    22b2:	3201      	adds	r2, #1
    22b4:	8062      	strh	r2, [r4, #2]
    22b6:	bd70      	pop	{r4, r5, r6, pc}
    22b8:	6883      	ldr	r3, [r0, #8]
    22ba:	6829      	ldr	r1, [r5, #0]
    22bc:	428b      	cmp	r3, r1
    22be:	d0f7      	beq.n	22b0 <rt_mut_wait+0x18>
    22c0:	2001      	movs	r0, #1
    22c2:	2e00      	cmp	r6, #0
    22c4:	d0f7      	beq.n	22b6 <rt_mut_wait+0x1e>
    22c6:	788a      	ldrb	r2, [r1, #2]
    22c8:	7899      	ldrb	r1, [r3, #2]
    22ca:	4291      	cmp	r1, r2
    22cc:	d203      	bcs.n	22d6 <rt_mut_wait+0x3e>
    22ce:	709a      	strb	r2, [r3, #2]
    22d0:	0018      	movs	r0, r3
    22d2:	f7fe fe37 	bl	f44 <rt_resort_prio>
    22d6:	6862      	ldr	r2, [r4, #4]
    22d8:	2a00      	cmp	r2, #0
    22da:	d009      	beq.n	22f0 <rt_mut_wait+0x58>
    22dc:	6829      	ldr	r1, [r5, #0]
    22de:	0020      	movs	r0, r4
    22e0:	f7fe fd82 	bl	de8 <rt_put_prio>
    22e4:	0030      	movs	r0, r6
    22e6:	2109      	movs	r1, #9
    22e8:	f7ff fcf2 	bl	1cd0 <rt_block>
    22ec:	2001      	movs	r0, #1
    22ee:	e7e2      	b.n	22b6 <rt_mut_wait+0x1e>
    22f0:	682b      	ldr	r3, [r5, #0]
    22f2:	6063      	str	r3, [r4, #4]
    22f4:	605a      	str	r2, [r3, #4]
    22f6:	609c      	str	r4, [r3, #8]
    22f8:	e7f4      	b.n	22e4 <rt_mut_wait+0x4c>
    22fa:	46c0      	nop			; (mov r8, r8)
    22fc:	20000e0c 	.word	0x20000e0c

00002300 <rt_dly_wait>:
    2300:	b510      	push	{r4, lr}
    2302:	2103      	movs	r1, #3
    2304:	f7ff fce4 	bl	1cd0 <rt_block>
    2308:	bd10      	pop	{r4, pc}
	...

0000230c <rt_sem_psh>:
    230c:	6843      	ldr	r3, [r0, #4]
    230e:	b510      	push	{r4, lr}
    2310:	2b00      	cmp	r3, #0
    2312:	d00e      	beq.n	2332 <rt_sem_psh+0x26>
    2314:	f7fe fd82 	bl	e1c <rt_get_first>
    2318:	0004      	movs	r4, r0
    231a:	f7fe fe2b 	bl	f74 <rt_rmv_dly>
    231e:	2101      	movs	r1, #1
    2320:	0020      	movs	r0, r4
    2322:	7061      	strb	r1, [r4, #1]
    2324:	f7fe feae 	bl	1084 <rt_ret_val>
    2328:	0021      	movs	r1, r4
    232a:	4804      	ldr	r0, [pc, #16]	; (233c <rt_sem_psh+0x30>)
    232c:	f7fe fd5c 	bl	de8 <rt_put_prio>
    2330:	bd10      	pop	{r4, pc}
    2332:	8843      	ldrh	r3, [r0, #2]
    2334:	3301      	adds	r3, #1
    2336:	8043      	strh	r3, [r0, #2]
    2338:	e7fa      	b.n	2330 <rt_sem_psh+0x24>
    233a:	46c0      	nop			; (mov r8, r8)
    233c:	20000dc0 	.word	0x20000dc0

00002340 <gpio_set>:
    2340:	b510      	push	{r4, lr}
    2342:	0004      	movs	r4, r0
    2344:	2101      	movs	r1, #1
    2346:	f000 fb27 	bl	2998 <pin_function>
    234a:	2001      	movs	r0, #1
    234c:	0664      	lsls	r4, r4, #25
    234e:	0ee4      	lsrs	r4, r4, #27
    2350:	40a0      	lsls	r0, r4
    2352:	bd10      	pop	{r4, pc}

00002354 <gpio_init>:
    2354:	b570      	push	{r4, r5, r6, lr}
    2356:	0005      	movs	r5, r0
    2358:	000c      	movs	r4, r1
    235a:	8029      	strh	r1, [r5, #0]
    235c:	1c4b      	adds	r3, r1, #1
    235e:	d00f      	beq.n	2380 <gpio_init+0x2c>
    2360:	0008      	movs	r0, r1
    2362:	f7ff ffed 	bl	2340 <gpio_set>
    2366:	4b07      	ldr	r3, [pc, #28]	; (2384 <gpio_init+0x30>)
    2368:	0b24      	lsrs	r4, r4, #12
    236a:	18e4      	adds	r4, r4, r3
    236c:	01a4      	lsls	r4, r4, #6
    236e:	1d23      	adds	r3, r4, #4
    2370:	60eb      	str	r3, [r5, #12]
    2372:	3304      	adds	r3, #4
    2374:	612b      	str	r3, [r5, #16]
    2376:	3414      	adds	r4, #20
    2378:	3308      	adds	r3, #8
    237a:	6068      	str	r0, [r5, #4]
    237c:	616b      	str	r3, [r5, #20]
    237e:	60ac      	str	r4, [r5, #8]
    2380:	bd70      	pop	{r4, r5, r6, pc}
    2382:	46c0      	nop			; (mov r8, r8)
    2384:	03e03fc0 	.word	0x03e03fc0

00002388 <gpio_mode>:
    2388:	b510      	push	{r4, lr}
    238a:	2300      	movs	r3, #0
    238c:	5ec0      	ldrsh	r0, [r0, r3]
    238e:	f000 fb23 	bl	29d8 <pin_mode>
    2392:	bd10      	pop	{r4, pc}

00002394 <gpio_dir>:
    2394:	2900      	cmp	r1, #0
    2396:	d002      	beq.n	239e <gpio_dir+0xa>
    2398:	2901      	cmp	r1, #1
    239a:	d006      	beq.n	23aa <gpio_dir+0x16>
    239c:	4770      	bx	lr
    239e:	6882      	ldr	r2, [r0, #8]
    23a0:	6841      	ldr	r1, [r0, #4]
    23a2:	6813      	ldr	r3, [r2, #0]
    23a4:	438b      	bics	r3, r1
    23a6:	6013      	str	r3, [r2, #0]
    23a8:	e7f8      	b.n	239c <gpio_dir+0x8>
    23aa:	6882      	ldr	r2, [r0, #8]
    23ac:	6841      	ldr	r1, [r0, #4]
    23ae:	6813      	ldr	r3, [r2, #0]
    23b0:	430b      	orrs	r3, r1
    23b2:	e7f8      	b.n	23a6 <gpio_dir+0x12>

000023b4 <hal_sleep>:
    23b4:	222a      	movs	r2, #42	; 0x2a
    23b6:	4b03      	ldr	r3, [pc, #12]	; (23c4 <hal_sleep+0x10>)
    23b8:	701a      	strb	r2, [r3, #0]
    23ba:	2200      	movs	r2, #0
    23bc:	4b02      	ldr	r3, [pc, #8]	; (23c8 <hal_sleep+0x14>)
    23be:	611a      	str	r2, [r3, #16]
    23c0:	bf30      	wfi
    23c2:	4770      	bx	lr
    23c4:	4007e000 	.word	0x4007e000
    23c8:	e000ed00 	.word	0xe000ed00

000023cc <lptmr_set>:
    23cc:	2200      	movs	r2, #0
    23ce:	4b06      	ldr	r3, [pc, #24]	; (23e8 <lptmr_set+0x1c>)
    23d0:	601a      	str	r2, [r3, #0]
    23d2:	6098      	str	r0, [r3, #8]
    23d4:	6819      	ldr	r1, [r3, #0]
    23d6:	3240      	adds	r2, #64	; 0x40
    23d8:	430a      	orrs	r2, r1
    23da:	601a      	str	r2, [r3, #0]
    23dc:	2201      	movs	r2, #1
    23de:	6819      	ldr	r1, [r3, #0]
    23e0:	430a      	orrs	r2, r1
    23e2:	601a      	str	r2, [r3, #0]
    23e4:	4770      	bx	lr
    23e6:	46c0      	nop			; (mov r8, r8)
    23e8:	40040000 	.word	0x40040000

000023ec <lptmr_isr>:
    23ec:	2380      	movs	r3, #128	; 0x80
    23ee:	4a0d      	ldr	r2, [pc, #52]	; (2424 <lptmr_isr+0x38>)
    23f0:	b570      	push	{r4, r5, r6, lr}
    23f2:	6811      	ldr	r1, [r2, #0]
    23f4:	4d0c      	ldr	r5, [pc, #48]	; (2428 <lptmr_isr+0x3c>)
    23f6:	430b      	orrs	r3, r1
    23f8:	6013      	str	r3, [r2, #0]
    23fa:	682c      	ldr	r4, [r5, #0]
    23fc:	2c00      	cmp	r4, #0
    23fe:	d005      	beq.n	240c <lptmr_isr+0x20>
    2400:	480a      	ldr	r0, [pc, #40]	; (242c <lptmr_isr+0x40>)
    2402:	3c01      	subs	r4, #1
    2404:	f7ff ffe2 	bl	23cc <lptmr_set>
    2408:	602c      	str	r4, [r5, #0]
    240a:	bd70      	pop	{r4, r5, r6, pc}
    240c:	4d08      	ldr	r5, [pc, #32]	; (2430 <lptmr_isr+0x44>)
    240e:	8828      	ldrh	r0, [r5, #0]
    2410:	2800      	cmp	r0, #0
    2412:	d003      	beq.n	241c <lptmr_isr+0x30>
    2414:	f7ff ffda 	bl	23cc <lptmr_set>
    2418:	802c      	strh	r4, [r5, #0]
    241a:	e7f6      	b.n	240a <lptmr_isr+0x1e>
    241c:	f7fe fb7e 	bl	b1c <us_ticker_irq_handler>
    2420:	e7f3      	b.n	240a <lptmr_isr+0x1e>
    2422:	46c0      	nop			; (mov r8, r8)
    2424:	40040000 	.word	0x40040000
    2428:	200004a8 	.word	0x200004a8
    242c:	0000ffff 	.word	0x0000ffff
    2430:	200004ac 	.word	0x200004ac

00002434 <us_ticker_init>:
    2434:	b5f7      	push	{r0, r1, r2, r4, r5, r6, r7, lr}
    2436:	4b68      	ldr	r3, [pc, #416]	; (25d8 <us_ticker_init+0x1a4>)
    2438:	681a      	ldr	r2, [r3, #0]
    243a:	9201      	str	r2, [sp, #4]
    243c:	2a00      	cmp	r2, #0
    243e:	d000      	beq.n	2442 <us_ticker_init+0xe>
    2440:	e08f      	b.n	2562 <us_ticker_init+0x12e>
    2442:	2401      	movs	r4, #1
    2444:	601c      	str	r4, [r3, #0]
    2446:	2380      	movs	r3, #128	; 0x80
    2448:	4e64      	ldr	r6, [pc, #400]	; (25dc <us_ticker_init+0x1a8>)
    244a:	4a65      	ldr	r2, [pc, #404]	; (25e0 <us_ticker_init+0x1ac>)
    244c:	041b      	lsls	r3, r3, #16
    244e:	58b1      	ldr	r1, [r6, r2]
    2450:	4d64      	ldr	r5, [pc, #400]	; (25e4 <us_ticker_init+0x1b0>)
    2452:	430b      	orrs	r3, r1
    2454:	50b3      	str	r3, [r6, r2]
    2456:	9a01      	ldr	r2, [sp, #4]
    2458:	4b63      	ldr	r3, [pc, #396]	; (25e8 <us_ticker_init+0x1b4>)
    245a:	4f64      	ldr	r7, [pc, #400]	; (25ec <us_ticker_init+0x1b8>)
    245c:	601a      	str	r2, [r3, #0]
    245e:	2301      	movs	r3, #1
    2460:	425b      	negs	r3, r3
    2462:	616b      	str	r3, [r5, #20]
    2464:	3305      	adds	r3, #5
    2466:	61eb      	str	r3, [r5, #28]
    2468:	69eb      	ldr	r3, [r5, #28]
    246a:	4323      	orrs	r3, r4
    246c:	61eb      	str	r3, [r5, #28]
    246e:	4b60      	ldr	r3, [pc, #384]	; (25f0 <us_ticker_init+0x1bc>)
    2470:	6838      	ldr	r0, [r7, #0]
    2472:	58f1      	ldr	r1, [r6, r3]
    2474:	2307      	movs	r3, #7
    2476:	0c09      	lsrs	r1, r1, #16
    2478:	4019      	ands	r1, r3
    247a:	1909      	adds	r1, r1, r4
    247c:	f001 fd4c 	bl	3f18 <__udivsi3>
    2480:	4b5c      	ldr	r3, [pc, #368]	; (25f4 <us_ticker_init+0x1c0>)
    2482:	495d      	ldr	r1, [pc, #372]	; (25f8 <us_ticker_init+0x1c4>)
    2484:	18c0      	adds	r0, r0, r3
    2486:	f001 fd47 	bl	3f18 <__udivsi3>
    248a:	4a5c      	ldr	r2, [pc, #368]	; (25fc <us_ticker_init+0x1c8>)
    248c:	3801      	subs	r0, #1
    248e:	6068      	str	r0, [r5, #4]
    2490:	60ec      	str	r4, [r5, #12]
    2492:	58b3      	ldr	r3, [r6, r2]
    2494:	4d5a      	ldr	r5, [pc, #360]	; (2600 <us_ticker_init+0x1cc>)
    2496:	4323      	orrs	r3, r4
    2498:	50b3      	str	r3, [r6, r2]
    249a:	9b01      	ldr	r3, [sp, #4]
    249c:	201c      	movs	r0, #28
    249e:	602b      	str	r3, [r5, #0]
    24a0:	4958      	ldr	r1, [pc, #352]	; (2604 <us_ticker_init+0x1d0>)
    24a2:	f000 fd6f 	bl	2f84 <NVIC_SetVector>
    24a6:	2280      	movs	r2, #128	; 0x80
    24a8:	4b57      	ldr	r3, [pc, #348]	; (2608 <us_ticker_init+0x1d4>)
    24aa:	0552      	lsls	r2, r2, #21
    24ac:	601a      	str	r2, [r3, #0]
    24ae:	223f      	movs	r2, #63	; 0x3f
    24b0:	4b4f      	ldr	r3, [pc, #316]	; (25f0 <us_ticker_init+0x1bc>)
    24b2:	683f      	ldr	r7, [r7, #0]
    24b4:	58f0      	ldr	r0, [r6, r3]
    24b6:	4e55      	ldr	r6, [pc, #340]	; (260c <us_ticker_init+0x1d8>)
    24b8:	0f00      	lsrs	r0, r0, #28
    24ba:	7833      	ldrb	r3, [r6, #0]
    24bc:	1900      	adds	r0, r0, r4
    24be:	4347      	muls	r7, r0
    24c0:	4393      	bics	r3, r2
    24c2:	2b80      	cmp	r3, #128	; 0x80
    24c4:	d033      	beq.n	252e <us_ticker_init+0xfa>
    24c6:	7833      	ldrb	r3, [r6, #0]
    24c8:	4393      	bics	r3, r2
    24ca:	d164      	bne.n	2596 <us_ticker_init+0x162>
    24cc:	7973      	ldrb	r3, [r6, #5]
    24ce:	065b      	lsls	r3, r3, #25
    24d0:	d453      	bmi.n	257a <us_ticker_init+0x146>
    24d2:	79b3      	ldrb	r3, [r6, #6]
    24d4:	06db      	lsls	r3, r3, #27
    24d6:	d45e      	bmi.n	2596 <us_ticker_init+0x162>
    24d8:	7833      	ldrb	r3, [r6, #0]
    24da:	3a38      	subs	r2, #56	; 0x38
    24dc:	08db      	lsrs	r3, r3, #3
    24de:	7871      	ldrb	r1, [r6, #1]
    24e0:	4013      	ands	r3, r2
    24e2:	3229      	adds	r2, #41	; 0x29
    24e4:	409c      	lsls	r4, r3
    24e6:	4211      	tst	r1, r2
    24e8:	d003      	beq.n	24f2 <us_ticker_init+0xbe>
    24ea:	23ff      	movs	r3, #255	; 0xff
    24ec:	0164      	lsls	r4, r4, #5
    24ee:	015b      	lsls	r3, r3, #5
    24f0:	401c      	ands	r4, r3
    24f2:	221f      	movs	r2, #31
    24f4:	78f3      	ldrb	r3, [r6, #3]
    24f6:	4393      	bics	r3, r2
    24f8:	2b60      	cmp	r3, #96	; 0x60
    24fa:	d035      	beq.n	2568 <us_ticker_init+0x134>
    24fc:	d807      	bhi.n	250e <us_ticker_init+0xda>
    24fe:	2b20      	cmp	r3, #32
    2500:	d00e      	beq.n	2520 <us_ticker_init+0xec>
    2502:	2b40      	cmp	r3, #64	; 0x40
    2504:	d02e      	beq.n	2564 <us_ticker_init+0x130>
    2506:	2b00      	cmp	r3, #0
    2508:	d135      	bne.n	2576 <us_ticker_init+0x142>
    250a:	21a0      	movs	r1, #160	; 0xa0
    250c:	e006      	b.n	251c <us_ticker_init+0xe8>
    250e:	2ba0      	cmp	r3, #160	; 0xa0
    2510:	d02d      	beq.n	256e <us_ticker_init+0x13a>
    2512:	2bc0      	cmp	r3, #192	; 0xc0
    2514:	d02d      	beq.n	2572 <us_ticker_init+0x13e>
    2516:	2b80      	cmp	r3, #128	; 0x80
    2518:	d12d      	bne.n	2576 <us_ticker_init+0x142>
    251a:	21b7      	movs	r1, #183	; 0xb7
    251c:	0089      	lsls	r1, r1, #2
    251e:	e001      	b.n	2524 <us_ticker_init+0xf0>
    2520:	21a0      	movs	r1, #160	; 0xa0
    2522:	00c9      	lsls	r1, r1, #3
    2524:	0020      	movs	r0, r4
    2526:	4378      	muls	r0, r7
    2528:	f001 fcf6 	bl	3f18 <__udivsi3>
    252c:	0007      	movs	r7, r0
    252e:	2f00      	cmp	r7, #0
    2530:	d031      	beq.n	2596 <us_ticker_init+0x162>
    2532:	4931      	ldr	r1, [pc, #196]	; (25f8 <us_ticker_init+0x1c4>)
    2534:	0038      	movs	r0, r7
    2536:	f001 fd75 	bl	4024 <__aeabi_uidivmod>
    253a:	1e0c      	subs	r4, r1, #0
    253c:	d12b      	bne.n	2596 <us_ticker_init+0x162>
    253e:	492e      	ldr	r1, [pc, #184]	; (25f8 <us_ticker_init+0x1c4>)
    2540:	0038      	movs	r0, r7
    2542:	f001 fce9 	bl	3f18 <__udivsi3>
    2546:	2307      	movs	r3, #7
    2548:	2801      	cmp	r0, #1
    254a:	d042      	beq.n	25d2 <us_ticker_init+0x19e>
    254c:	0021      	movs	r1, r4
    254e:	2301      	movs	r3, #1
    2550:	0840      	lsrs	r0, r0, #1
    2552:	2801      	cmp	r0, #1
    2554:	d11a      	bne.n	258c <us_ticker_init+0x158>
    2556:	2378      	movs	r3, #120	; 0x78
    2558:	00c9      	lsls	r1, r1, #3
    255a:	4019      	ands	r1, r3
    255c:	3b75      	subs	r3, #117	; 0x75
    255e:	4319      	orrs	r1, r3
    2560:	6069      	str	r1, [r5, #4]
    2562:	bdf7      	pop	{r0, r1, r2, r4, r5, r6, r7, pc}
    2564:	21f0      	movs	r1, #240	; 0xf0
    2566:	e7dc      	b.n	2522 <us_ticker_init+0xee>
    2568:	21a0      	movs	r1, #160	; 0xa0
    256a:	0109      	lsls	r1, r1, #4
    256c:	e7da      	b.n	2524 <us_ticker_init+0xf0>
    256e:	21b7      	movs	r1, #183	; 0xb7
    2570:	e7d7      	b.n	2522 <us_ticker_init+0xee>
    2572:	4927      	ldr	r1, [pc, #156]	; (2610 <us_ticker_init+0x1dc>)
    2574:	e7d6      	b.n	2524 <us_ticker_init+0xf0>
    2576:	4927      	ldr	r1, [pc, #156]	; (2614 <us_ticker_init+0x1e0>)
    2578:	e7d4      	b.n	2524 <us_ticker_init+0xf0>
    257a:	231f      	movs	r3, #31
    257c:	7930      	ldrb	r0, [r6, #4]
    257e:	7971      	ldrb	r1, [r6, #5]
    2580:	4018      	ands	r0, r3
    2582:	3001      	adds	r0, #1
    2584:	4019      	ands	r1, r3
    2586:	4378      	muls	r0, r7
    2588:	3118      	adds	r1, #24
    258a:	e7cd      	b.n	2528 <us_ticker_init+0xf4>
    258c:	4218      	tst	r0, r3
    258e:	d102      	bne.n	2596 <us_ticker_init+0x162>
    2590:	3101      	adds	r1, #1
    2592:	0840      	lsrs	r0, r0, #1
    2594:	e7dd      	b.n	2552 <us_ticker_init+0x11e>
    2596:	2302      	movs	r3, #2
    2598:	7832      	ldrb	r2, [r6, #0]
    259a:	4313      	orrs	r3, r2
    259c:	7033      	strb	r3, [r6, #0]
    259e:	2301      	movs	r3, #1
    25a0:	7872      	ldrb	r2, [r6, #1]
    25a2:	4313      	orrs	r3, r2
    25a4:	7073      	strb	r3, [r6, #1]
    25a6:	2300      	movs	r3, #0
    25a8:	220e      	movs	r2, #14
    25aa:	606b      	str	r3, [r5, #4]
    25ac:	7a33      	ldrb	r3, [r6, #8]
    25ae:	4013      	ands	r3, r2
    25b0:	d00a      	beq.n	25c8 <us_ticker_init+0x194>
    25b2:	2b02      	cmp	r3, #2
    25b4:	d00c      	beq.n	25d0 <us_ticker_init+0x19c>
    25b6:	7a33      	ldrb	r3, [r6, #8]
    25b8:	4393      	bics	r3, r2
    25ba:	7233      	strb	r3, [r6, #8]
    25bc:	2304      	movs	r3, #4
    25be:	7a32      	ldrb	r2, [r6, #8]
    25c0:	431a      	orrs	r2, r3
    25c2:	7232      	strb	r2, [r6, #8]
    25c4:	686a      	ldr	r2, [r5, #4]
    25c6:	e001      	b.n	25cc <us_ticker_init+0x198>
    25c8:	2308      	movs	r3, #8
    25ca:	686a      	ldr	r2, [r5, #4]
    25cc:	4313      	orrs	r3, r2
    25ce:	e000      	b.n	25d2 <us_ticker_init+0x19e>
    25d0:	686b      	ldr	r3, [r5, #4]
    25d2:	606b      	str	r3, [r5, #4]
    25d4:	e7c5      	b.n	2562 <us_ticker_init+0x12e>
    25d6:	46c0      	nop			; (mov r8, r8)
    25d8:	200004a4 	.word	0x200004a4
    25dc:	40047000 	.word	0x40047000
    25e0:	0000103c 	.word	0x0000103c
    25e4:	400370fc 	.word	0x400370fc
    25e8:	40037000 	.word	0x40037000
    25ec:	1ffff0e0 	.word	0x1ffff0e0
    25f0:	00001044 	.word	0x00001044
    25f4:	0007a120 	.word	0x0007a120
    25f8:	000f4240 	.word	0x000f4240
    25fc:	00001038 	.word	0x00001038
    2600:	40040000 	.word	0x40040000
    2604:	000023ed 	.word	0x000023ed
    2608:	e000e100 	.word	0xe000e100
    260c:	40064000 	.word	0x40064000
    2610:	00000895 	.word	0x00000895
    2614:	00000b71 	.word	0x00000b71

00002618 <us_ticker_read>:
    2618:	4b05      	ldr	r3, [pc, #20]	; (2630 <us_ticker_read+0x18>)
    261a:	b510      	push	{r4, lr}
    261c:	681b      	ldr	r3, [r3, #0]
    261e:	2b00      	cmp	r3, #0
    2620:	d101      	bne.n	2626 <us_ticker_read+0xe>
    2622:	f7ff ff07 	bl	2434 <us_ticker_init>
    2626:	4b03      	ldr	r3, [pc, #12]	; (2634 <us_ticker_read+0x1c>)
    2628:	6998      	ldr	r0, [r3, #24]
    262a:	43c0      	mvns	r0, r0
    262c:	bd10      	pop	{r4, pc}
    262e:	46c0      	nop			; (mov r8, r8)
    2630:	200004a4 	.word	0x200004a4
    2634:	400370fc 	.word	0x400370fc

00002638 <us_ticker_disable_interrupt>:
    2638:	2140      	movs	r1, #64	; 0x40
    263a:	4a02      	ldr	r2, [pc, #8]	; (2644 <us_ticker_disable_interrupt+0xc>)
    263c:	6813      	ldr	r3, [r2, #0]
    263e:	438b      	bics	r3, r1
    2640:	6013      	str	r3, [r2, #0]
    2642:	4770      	bx	lr
    2644:	40040000 	.word	0x40040000

00002648 <us_ticker_clear_interrupt>:
    2648:	4770      	bx	lr
	...

0000264c <us_ticker_set_interrupt>:
    264c:	b570      	push	{r4, r5, r6, lr}
    264e:	0004      	movs	r4, r0
    2650:	f7ff ffe2 	bl	2618 <us_ticker_read>
    2654:	1a20      	subs	r0, r4, r0
    2656:	2800      	cmp	r0, #0
    2658:	dc00      	bgt.n	265c <us_ticker_set_interrupt+0x10>
    265a:	2001      	movs	r0, #1
    265c:	4d08      	ldr	r5, [pc, #32]	; (2680 <us_ticker_set_interrupt+0x34>)
    265e:	4e09      	ldr	r6, [pc, #36]	; (2684 <us_ticker_set_interrupt+0x38>)
    2660:	1404      	asrs	r4, r0, #16
    2662:	b280      	uxth	r0, r0
    2664:	602c      	str	r4, [r5, #0]
    2666:	8030      	strh	r0, [r6, #0]
    2668:	2c00      	cmp	r4, #0
    266a:	d005      	beq.n	2678 <us_ticker_set_interrupt+0x2c>
    266c:	4806      	ldr	r0, [pc, #24]	; (2688 <us_ticker_set_interrupt+0x3c>)
    266e:	3c01      	subs	r4, #1
    2670:	f7ff feac 	bl	23cc <lptmr_set>
    2674:	602c      	str	r4, [r5, #0]
    2676:	bd70      	pop	{r4, r5, r6, pc}
    2678:	f7ff fea8 	bl	23cc <lptmr_set>
    267c:	8034      	strh	r4, [r6, #0]
    267e:	e7fa      	b.n	2676 <us_ticker_set_interrupt+0x2a>
    2680:	200004a8 	.word	0x200004a8
    2684:	200004ac 	.word	0x200004ac
    2688:	0000ffff 	.word	0x0000ffff

0000268c <mcgpllfll_frequency.part.0>:
    268c:	4a0c      	ldr	r2, [pc, #48]	; (26c0 <mcgpllfll_frequency.part.0+0x34>)
    268e:	4b0d      	ldr	r3, [pc, #52]	; (26c4 <mcgpllfll_frequency.part.0+0x38>)
    2690:	b510      	push	{r4, lr}
    2692:	5898      	ldr	r0, [r3, r2]
    2694:	4a0c      	ldr	r2, [pc, #48]	; (26c8 <mcgpllfll_frequency.part.0+0x3c>)
    2696:	0f00      	lsrs	r0, r0, #28
    2698:	6812      	ldr	r2, [r2, #0]
    269a:	3001      	adds	r0, #1
    269c:	4350      	muls	r0, r2
    269e:	4a0b      	ldr	r2, [pc, #44]	; (26cc <mcgpllfll_frequency.part.0+0x40>)
    26a0:	7951      	ldrb	r1, [r2, #5]
    26a2:	4a0b      	ldr	r2, [pc, #44]	; (26d0 <mcgpllfll_frequency.part.0+0x44>)
    26a4:	0649      	lsls	r1, r1, #25
    26a6:	d404      	bmi.n	26b2 <mcgpllfll_frequency.part.0+0x26>
    26a8:	5899      	ldr	r1, [r3, r2]
    26aa:	4c0a      	ldr	r4, [pc, #40]	; (26d4 <mcgpllfll_frequency.part.0+0x48>)
    26ac:	4021      	ands	r1, r4
    26ae:	5099      	str	r1, [r3, r2]
    26b0:	bd10      	pop	{r4, pc}
    26b2:	2180      	movs	r1, #128	; 0x80
    26b4:	589c      	ldr	r4, [r3, r2]
    26b6:	0249      	lsls	r1, r1, #9
    26b8:	4321      	orrs	r1, r4
    26ba:	5099      	str	r1, [r3, r2]
    26bc:	0840      	lsrs	r0, r0, #1
    26be:	e7f7      	b.n	26b0 <mcgpllfll_frequency.part.0+0x24>
    26c0:	00001044 	.word	0x00001044
    26c4:	40047000 	.word	0x40047000
    26c8:	1ffff0e0 	.word	0x1ffff0e0
    26cc:	40064000 	.word	0x40064000
    26d0:	00001004 	.word	0x00001004
    26d4:	fffeffff 	.word	0xfffeffff

000026d8 <pwmout_write>:
    26d8:	b570      	push	{r4, r5, r6, lr}
    26da:	1c0c      	adds	r4, r1, #0
    26dc:	0005      	movs	r5, r0
    26de:	2100      	movs	r1, #0
    26e0:	1c20      	adds	r0, r4, #0
    26e2:	f001 fda1 	bl	4228 <__aeabi_fcmplt>
    26e6:	2800      	cmp	r0, #0
    26e8:	d118      	bne.n	271c <pwmout_write+0x44>
    26ea:	21fe      	movs	r1, #254	; 0xfe
    26ec:	1c20      	adds	r0, r4, #0
    26ee:	0589      	lsls	r1, r1, #22
    26f0:	f001 fdae 	bl	4250 <__aeabi_fcmpgt>
    26f4:	2800      	cmp	r0, #0
    26f6:	d001      	beq.n	26fc <pwmout_write+0x24>
    26f8:	24fe      	movs	r4, #254	; 0xfe
    26fa:	05a4      	lsls	r4, r4, #22
    26fc:	682b      	ldr	r3, [r5, #0]
    26fe:	68ae      	ldr	r6, [r5, #8]
    2700:	6818      	ldr	r0, [r3, #0]
    2702:	3001      	adds	r0, #1
    2704:	f002 faec 	bl	4ce0 <__aeabi_ui2f>
    2708:	1c21      	adds	r1, r4, #0
    270a:	f001 ffbd 	bl	4688 <__aeabi_fmul>
    270e:	f001 fdb3 	bl	4278 <__aeabi_f2uiz>
    2712:	2200      	movs	r2, #0
    2714:	686b      	ldr	r3, [r5, #4]
    2716:	6030      	str	r0, [r6, #0]
    2718:	601a      	str	r2, [r3, #0]
    271a:	bd70      	pop	{r4, r5, r6, pc}
    271c:	2400      	movs	r4, #0
    271e:	e7ed      	b.n	26fc <pwmout_write+0x24>

00002720 <pwmout_read>:
    2720:	0003      	movs	r3, r0
    2722:	6882      	ldr	r2, [r0, #8]
    2724:	681b      	ldr	r3, [r3, #0]
    2726:	b570      	push	{r4, r5, r6, lr}
    2728:	6810      	ldr	r0, [r2, #0]
    272a:	681c      	ldr	r4, [r3, #0]
    272c:	f002 fad8 	bl	4ce0 <__aeabi_ui2f>
    2730:	1c05      	adds	r5, r0, #0
    2732:	1c60      	adds	r0, r4, #1
    2734:	f002 fad4 	bl	4ce0 <__aeabi_ui2f>
    2738:	1c01      	adds	r1, r0, #0
    273a:	1c28      	adds	r0, r5, #0
    273c:	f001 fdb4 	bl	42a8 <__aeabi_fdiv>
    2740:	21fe      	movs	r1, #254	; 0xfe
    2742:	0589      	lsls	r1, r1, #22
    2744:	1c04      	adds	r4, r0, #0
    2746:	f001 fd83 	bl	4250 <__aeabi_fcmpgt>
    274a:	2800      	cmp	r0, #0
    274c:	d001      	beq.n	2752 <pwmout_read+0x32>
    274e:	24fe      	movs	r4, #254	; 0xfe
    2750:	05a4      	lsls	r4, r4, #22
    2752:	1c20      	adds	r0, r4, #0
    2754:	bd70      	pop	{r4, r5, r6, pc}
	...

00002758 <pwmout_period_us>:
    2758:	b5f8      	push	{r3, r4, r5, r6, r7, lr}
    275a:	000f      	movs	r7, r1
    275c:	0004      	movs	r4, r0
    275e:	f7ff ffdf 	bl	2720 <pwmout_read>
    2762:	1c05      	adds	r5, r0, #0
    2764:	0038      	movs	r0, r7
    2766:	f002 fa6b 	bl	4c40 <__aeabi_i2f>
    276a:	4b07      	ldr	r3, [pc, #28]	; (2788 <pwmout_period_us+0x30>)
    276c:	6826      	ldr	r6, [r4, #0]
    276e:	6819      	ldr	r1, [r3, #0]
    2770:	f001 ff8a 	bl	4688 <__aeabi_fmul>
    2774:	f001 fd80 	bl	4278 <__aeabi_f2uiz>
    2778:	3801      	subs	r0, #1
    277a:	6030      	str	r0, [r6, #0]
    277c:	1c29      	adds	r1, r5, #0
    277e:	0020      	movs	r0, r4
    2780:	f7ff ffaa 	bl	26d8 <pwmout_write>
    2784:	bdf8      	pop	{r3, r4, r5, r6, r7, pc}
    2786:	46c0      	nop			; (mov r8, r8)
    2788:	200004b0 	.word	0x200004b0

0000278c <pwmout_period>:
    278c:	b510      	push	{r4, lr}
    278e:	0004      	movs	r4, r0
    2790:	1c08      	adds	r0, r1, #0
    2792:	4905      	ldr	r1, [pc, #20]	; (27a8 <pwmout_period+0x1c>)
    2794:	f001 ff78 	bl	4688 <__aeabi_fmul>
    2798:	f002 fa32 	bl	4c00 <__aeabi_f2iz>
    279c:	0001      	movs	r1, r0
    279e:	0020      	movs	r0, r4
    27a0:	f7ff ffda 	bl	2758 <pwmout_period_us>
    27a4:	bd10      	pop	{r4, pc}
    27a6:	46c0      	nop			; (mov r8, r8)
    27a8:	49742400 	.word	0x49742400

000027ac <pwmout_init>:
    27ac:	b5f0      	push	{r4, r5, r6, r7, lr}
    27ae:	b085      	sub	sp, #20
    27b0:	9100      	str	r1, [sp, #0]
    27b2:	0006      	movs	r6, r0
    27b4:	496a      	ldr	r1, [pc, #424]	; (2960 <pwmout_init+0x1b4>)
    27b6:	9800      	ldr	r0, [sp, #0]
    27b8:	f7fe fa14 	bl	be4 <pinmap_peripheral>
    27bc:	466b      	mov	r3, sp
    27be:	9001      	str	r0, [sp, #4]
    27c0:	889b      	ldrh	r3, [r3, #4]
    27c2:	4d68      	ldr	r5, [pc, #416]	; (2964 <pwmout_init+0x1b8>)
    27c4:	9303      	str	r3, [sp, #12]
    27c6:	4b67      	ldr	r3, [pc, #412]	; (2964 <pwmout_init+0x1b8>)
    27c8:	4c67      	ldr	r4, [pc, #412]	; (2968 <pwmout_init+0x1bc>)
    27ca:	7818      	ldrb	r0, [r3, #0]
    27cc:	233f      	movs	r3, #63	; 0x3f
    27ce:	4398      	bics	r0, r3
    27d0:	9002      	str	r0, [sp, #8]
    27d2:	4f66      	ldr	r7, [pc, #408]	; (296c <pwmout_init+0x1c0>)
    27d4:	d167      	bne.n	28a6 <pwmout_init+0xfa>
    27d6:	f7ff ff59 	bl	268c <mcgpllfll_frequency.part.0>
    27da:	2800      	cmp	r0, #0
    27dc:	d063      	beq.n	28a6 <pwmout_init+0xfa>
    27de:	2380      	movs	r3, #128	; 0x80
    27e0:	59e2      	ldr	r2, [r4, r7]
    27e2:	045b      	lsls	r3, r3, #17
    27e4:	4313      	orrs	r3, r2
    27e6:	223f      	movs	r2, #63	; 0x3f
    27e8:	51e3      	str	r3, [r4, r7]
    27ea:	782b      	ldrb	r3, [r5, #0]
    27ec:	9802      	ldr	r0, [sp, #8]
    27ee:	4393      	bics	r3, r2
    27f0:	d101      	bne.n	27f6 <pwmout_init+0x4a>
    27f2:	f7ff ff4b 	bl	268c <mcgpllfll_frequency.part.0>
    27f6:	f002 fa73 	bl	4ce0 <__aeabi_ui2f>
    27fa:	495d      	ldr	r1, [pc, #372]	; (2970 <pwmout_init+0x1c4>)
    27fc:	f001 fd54 	bl	42a8 <__aeabi_fdiv>
    2800:	2500      	movs	r5, #0
    2802:	1c07      	adds	r7, r0, #0
    2804:	21fe      	movs	r1, #254	; 0xfe
    2806:	1c38      	adds	r0, r7, #0
    2808:	0589      	lsls	r1, r1, #22
    280a:	f001 fd21 	bl	4250 <__aeabi_fcmpgt>
    280e:	2800      	cmp	r0, #0
    2810:	d008      	beq.n	2824 <pwmout_init+0x78>
    2812:	21fc      	movs	r1, #252	; 0xfc
    2814:	1c38      	adds	r0, r7, #0
    2816:	0589      	lsls	r1, r1, #22
    2818:	f001 ff36 	bl	4688 <__aeabi_fmul>
    281c:	3501      	adds	r5, #1
    281e:	1c07      	adds	r7, r0, #0
    2820:	2d07      	cmp	r5, #7
    2822:	d1ef      	bne.n	2804 <pwmout_init+0x58>
    2824:	4b53      	ldr	r3, [pc, #332]	; (2974 <pwmout_init+0x1c8>)
    2826:	2101      	movs	r1, #1
    2828:	601f      	str	r7, [r3, #0]
    282a:	9b03      	ldr	r3, [sp, #12]
    282c:	4f52      	ldr	r7, [pc, #328]	; (2978 <pwmout_init+0x1cc>)
    282e:	0a1b      	lsrs	r3, r3, #8
    2830:	9302      	str	r3, [sp, #8]
    2832:	466b      	mov	r3, sp
    2834:	791a      	ldrb	r2, [r3, #4]
    2836:	59e3      	ldr	r3, [r4, r7]
    2838:	469c      	mov	r12, r3
    283a:	9b00      	ldr	r3, [sp, #0]
    283c:	0b18      	lsrs	r0, r3, #12
    283e:	000b      	movs	r3, r1
    2840:	3009      	adds	r0, #9
    2842:	4083      	lsls	r3, r0
    2844:	0018      	movs	r0, r3
    2846:	4663      	mov	r3, r12
    2848:	4318      	orrs	r0, r3
    284a:	2318      	movs	r3, #24
    284c:	469c      	mov	r12, r3
    284e:	9b02      	ldr	r3, [sp, #8]
    2850:	51e0      	str	r0, [r4, r7]
    2852:	449c      	add	r12, r3
    2854:	4663      	mov	r3, r12
    2856:	4099      	lsls	r1, r3
    2858:	4848      	ldr	r0, [pc, #288]	; (297c <pwmout_init+0x1d0>)
    285a:	4b49      	ldr	r3, [pc, #292]	; (2980 <pwmout_init+0x1d4>)
    285c:	5827      	ldr	r7, [r4, r0]
    285e:	430f      	orrs	r7, r1
    2860:	9902      	ldr	r1, [sp, #8]
    2862:	5027      	str	r7, [r4, r0]
    2864:	18cb      	adds	r3, r1, r3
    2866:	2108      	movs	r1, #8
    2868:	2028      	movs	r0, #40	; 0x28
    286a:	430d      	orrs	r5, r1
    286c:	1c51      	adds	r1, r2, #1
    286e:	3202      	adds	r2, #2
    2870:	031b      	lsls	r3, r3, #12
    2872:	00c9      	lsls	r1, r1, #3
    2874:	00d2      	lsls	r2, r2, #3
    2876:	1859      	adds	r1, r3, r1
    2878:	189a      	adds	r2, r3, r2
    287a:	601d      	str	r5, [r3, #0]
    287c:	6048      	str	r0, [r1, #4]
    287e:	60b2      	str	r2, [r6, #8]
    2880:	001a      	movs	r2, r3
    2882:	3304      	adds	r3, #4
    2884:	3208      	adds	r2, #8
    2886:	6032      	str	r2, [r6, #0]
    2888:	6073      	str	r3, [r6, #4]
    288a:	0030      	movs	r0, r6
    288c:	493d      	ldr	r1, [pc, #244]	; (2984 <pwmout_init+0x1d8>)
    288e:	f7ff ff63 	bl	2758 <pwmout_period_us>
    2892:	0030      	movs	r0, r6
    2894:	2100      	movs	r1, #0
    2896:	f7ff ff1f 	bl	26d8 <pwmout_write>
    289a:	4931      	ldr	r1, [pc, #196]	; (2960 <pwmout_init+0x1b4>)
    289c:	9800      	ldr	r0, [sp, #0]
    289e:	f7fe f967 	bl	b70 <pinmap_pinout>
    28a2:	b005      	add	sp, #20
    28a4:	bdf0      	pop	{r4, r5, r6, r7, pc}
    28a6:	2380      	movs	r3, #128	; 0x80
    28a8:	59e2      	ldr	r2, [r4, r7]
    28aa:	049b      	lsls	r3, r3, #18
    28ac:	4313      	orrs	r3, r2
    28ae:	223f      	movs	r2, #63	; 0x3f
    28b0:	51e3      	str	r3, [r4, r7]
    28b2:	4b35      	ldr	r3, [pc, #212]	; (2988 <pwmout_init+0x1dc>)
    28b4:	58e0      	ldr	r0, [r4, r3]
    28b6:	4b35      	ldr	r3, [pc, #212]	; (298c <pwmout_init+0x1e0>)
    28b8:	0f00      	lsrs	r0, r0, #28
    28ba:	681b      	ldr	r3, [r3, #0]
    28bc:	3001      	adds	r0, #1
    28be:	4358      	muls	r0, r3
    28c0:	782b      	ldrb	r3, [r5, #0]
    28c2:	4393      	bics	r3, r2
    28c4:	2b80      	cmp	r3, #128	; 0x80
    28c6:	d096      	beq.n	27f6 <pwmout_init+0x4a>
    28c8:	782b      	ldrb	r3, [r5, #0]
    28ca:	4393      	bics	r3, r2
    28cc:	d144      	bne.n	2958 <pwmout_init+0x1ac>
    28ce:	796b      	ldrb	r3, [r5, #5]
    28d0:	3201      	adds	r2, #1
    28d2:	4013      	ands	r3, r2
    28d4:	d137      	bne.n	2946 <pwmout_init+0x19a>
    28d6:	79aa      	ldrb	r2, [r5, #6]
    28d8:	06d2      	lsls	r2, r2, #27
    28da:	d43f      	bmi.n	295c <pwmout_init+0x1b0>
    28dc:	2201      	movs	r2, #1
    28de:	2130      	movs	r1, #48	; 0x30
    28e0:	782b      	ldrb	r3, [r5, #0]
    28e2:	786f      	ldrb	r7, [r5, #1]
    28e4:	069b      	lsls	r3, r3, #26
    28e6:	0f5b      	lsrs	r3, r3, #29
    28e8:	409a      	lsls	r2, r3
    28ea:	420f      	tst	r7, r1
    28ec:	d003      	beq.n	28f6 <pwmout_init+0x14a>
    28ee:	23ff      	movs	r3, #255	; 0xff
    28f0:	0152      	lsls	r2, r2, #5
    28f2:	015b      	lsls	r3, r3, #5
    28f4:	401a      	ands	r2, r3
    28f6:	211f      	movs	r1, #31
    28f8:	78eb      	ldrb	r3, [r5, #3]
    28fa:	438b      	bics	r3, r1
    28fc:	2b60      	cmp	r3, #96	; 0x60
    28fe:	d019      	beq.n	2934 <pwmout_init+0x188>
    2900:	d807      	bhi.n	2912 <pwmout_init+0x166>
    2902:	2b20      	cmp	r3, #32
    2904:	d00e      	beq.n	2924 <pwmout_init+0x178>
    2906:	2b40      	cmp	r3, #64	; 0x40
    2908:	d012      	beq.n	2930 <pwmout_init+0x184>
    290a:	2b00      	cmp	r3, #0
    290c:	d119      	bne.n	2942 <pwmout_init+0x196>
    290e:	21a0      	movs	r1, #160	; 0xa0
    2910:	e006      	b.n	2920 <pwmout_init+0x174>
    2912:	2ba0      	cmp	r3, #160	; 0xa0
    2914:	d011      	beq.n	293a <pwmout_init+0x18e>
    2916:	2bc0      	cmp	r3, #192	; 0xc0
    2918:	d011      	beq.n	293e <pwmout_init+0x192>
    291a:	2b80      	cmp	r3, #128	; 0x80
    291c:	d111      	bne.n	2942 <pwmout_init+0x196>
    291e:	21b7      	movs	r1, #183	; 0xb7
    2920:	0089      	lsls	r1, r1, #2
    2922:	e001      	b.n	2928 <pwmout_init+0x17c>
    2924:	21a0      	movs	r1, #160	; 0xa0
    2926:	00c9      	lsls	r1, r1, #3
    2928:	4350      	muls	r0, r2
    292a:	f001 faf5 	bl	3f18 <__udivsi3>
    292e:	e762      	b.n	27f6 <pwmout_init+0x4a>
    2930:	21f0      	movs	r1, #240	; 0xf0
    2932:	e7f8      	b.n	2926 <pwmout_init+0x17a>
    2934:	21a0      	movs	r1, #160	; 0xa0
    2936:	0109      	lsls	r1, r1, #4
    2938:	e7f6      	b.n	2928 <pwmout_init+0x17c>
    293a:	21b7      	movs	r1, #183	; 0xb7
    293c:	e7f3      	b.n	2926 <pwmout_init+0x17a>
    293e:	4914      	ldr	r1, [pc, #80]	; (2990 <pwmout_init+0x1e4>)
    2940:	e7f2      	b.n	2928 <pwmout_init+0x17c>
    2942:	4914      	ldr	r1, [pc, #80]	; (2994 <pwmout_init+0x1e8>)
    2944:	e7f0      	b.n	2928 <pwmout_init+0x17c>
    2946:	221f      	movs	r2, #31
    2948:	792b      	ldrb	r3, [r5, #4]
    294a:	7969      	ldrb	r1, [r5, #5]
    294c:	4013      	ands	r3, r2
    294e:	3301      	adds	r3, #1
    2950:	4011      	ands	r1, r2
    2952:	4358      	muls	r0, r3
    2954:	3118      	adds	r1, #24
    2956:	e7e8      	b.n	292a <pwmout_init+0x17e>
    2958:	2000      	movs	r0, #0
    295a:	e74c      	b.n	27f6 <pwmout_init+0x4a>
    295c:	0018      	movs	r0, r3
    295e:	e74a      	b.n	27f6 <pwmout_init+0x4a>
    2960:	00007328 	.word	0x00007328
    2964:	40064000 	.word	0x40064000
    2968:	40047000 	.word	0x40047000
    296c:	00001004 	.word	0x00001004
    2970:	49742400 	.word	0x49742400
    2974:	200004b0 	.word	0x200004b0
    2978:	00001038 	.word	0x00001038
    297c:	0000103c 	.word	0x0000103c
    2980:	00040038 	.word	0x00040038
    2984:	00004e20 	.word	0x00004e20
    2988:	00001044 	.word	0x00001044
    298c:	1ffff0e0 	.word	0x1ffff0e0
    2990:	00000895 	.word	0x00000895
    2994:	00000b71 	.word	0x00000b71

00002998 <pin_function>:
    2998:	0b03      	lsrs	r3, r0, #12
    299a:	b5f0      	push	{r4, r5, r6, r7, lr}
    299c:	001f      	movs	r7, r3
    299e:	2201      	movs	r2, #1
    29a0:	3709      	adds	r7, #9
    29a2:	40ba      	lsls	r2, r7
    29a4:	4d08      	ldr	r5, [pc, #32]	; (29c8 <pin_function+0x30>)
    29a6:	4c09      	ldr	r4, [pc, #36]	; (29cc <pin_function+0x34>)
    29a8:	0209      	lsls	r1, r1, #8
    29aa:	592e      	ldr	r6, [r5, r4]
    29ac:	4332      	orrs	r2, r6
    29ae:	512a      	str	r2, [r5, r4]
    29b0:	4a07      	ldr	r2, [pc, #28]	; (29d0 <pin_function+0x38>)
    29b2:	189b      	adds	r3, r3, r2
    29b4:	227c      	movs	r2, #124	; 0x7c
    29b6:	031b      	lsls	r3, r3, #12
    29b8:	4010      	ands	r0, r2
    29ba:	1818      	adds	r0, r3, r0
    29bc:	6803      	ldr	r3, [r0, #0]
    29be:	4a05      	ldr	r2, [pc, #20]	; (29d4 <pin_function+0x3c>)
    29c0:	4013      	ands	r3, r2
    29c2:	4319      	orrs	r1, r3
    29c4:	6001      	str	r1, [r0, #0]
    29c6:	bdf0      	pop	{r4, r5, r6, r7, pc}
    29c8:	40047000 	.word	0x40047000
    29cc:	00001038 	.word	0x00001038
    29d0:	00040049 	.word	0x00040049
    29d4:	fffff8ff 	.word	0xfffff8ff

000029d8 <pin_mode>:
    29d8:	2203      	movs	r2, #3
    29da:	4b03      	ldr	r3, [pc, #12]	; (29e8 <pin_mode+0x10>)
    29dc:	18c0      	adds	r0, r0, r3
    29de:	6803      	ldr	r3, [r0, #0]
    29e0:	4393      	bics	r3, r2
    29e2:	4319      	orrs	r1, r3
    29e4:	6001      	str	r1, [r0, #0]
    29e6:	4770      	bx	lr
    29e8:	40049000 	.word	0x40049000

000029ec <mcgpllfll_frequency>:
    29ec:	213f      	movs	r1, #63	; 0x3f
    29ee:	2000      	movs	r0, #0
    29f0:	4a0e      	ldr	r2, [pc, #56]	; (2a2c <mcgpllfll_frequency+0x40>)
    29f2:	b510      	push	{r4, lr}
    29f4:	7813      	ldrb	r3, [r2, #0]
    29f6:	438b      	bics	r3, r1
    29f8:	4283      	cmp	r3, r0
    29fa:	d10f      	bne.n	2a1c <mcgpllfll_frequency+0x30>
    29fc:	490c      	ldr	r1, [pc, #48]	; (2a30 <mcgpllfll_frequency+0x44>)
    29fe:	4b0d      	ldr	r3, [pc, #52]	; (2a34 <mcgpllfll_frequency+0x48>)
    2a00:	5858      	ldr	r0, [r3, r1]
    2a02:	490d      	ldr	r1, [pc, #52]	; (2a38 <mcgpllfll_frequency+0x4c>)
    2a04:	0f00      	lsrs	r0, r0, #28
    2a06:	6809      	ldr	r1, [r1, #0]
    2a08:	3001      	adds	r0, #1
    2a0a:	4348      	muls	r0, r1
    2a0c:	7951      	ldrb	r1, [r2, #5]
    2a0e:	4a0b      	ldr	r2, [pc, #44]	; (2a3c <mcgpllfll_frequency+0x50>)
    2a10:	0649      	lsls	r1, r1, #25
    2a12:	d404      	bmi.n	2a1e <mcgpllfll_frequency+0x32>
    2a14:	5899      	ldr	r1, [r3, r2]
    2a16:	4c0a      	ldr	r4, [pc, #40]	; (2a40 <mcgpllfll_frequency+0x54>)
    2a18:	4021      	ands	r1, r4
    2a1a:	5099      	str	r1, [r3, r2]
    2a1c:	bd10      	pop	{r4, pc}
    2a1e:	2180      	movs	r1, #128	; 0x80
    2a20:	589c      	ldr	r4, [r3, r2]
    2a22:	0249      	lsls	r1, r1, #9
    2a24:	4321      	orrs	r1, r4
    2a26:	5099      	str	r1, [r3, r2]
    2a28:	0840      	lsrs	r0, r0, #1
    2a2a:	e7f7      	b.n	2a1c <mcgpllfll_frequency+0x30>
    2a2c:	40064000 	.word	0x40064000
    2a30:	00001044 	.word	0x00001044
    2a34:	40047000 	.word	0x40047000
    2a38:	1ffff0e0 	.word	0x1ffff0e0
    2a3c:	00001004 	.word	0x00001004
    2a40:	fffeffff 	.word	0xfffeffff

00002a44 <uart_irq>:
    2a44:	b570      	push	{r4, r5, r6, lr}
    2a46:	4d0a      	ldr	r5, [pc, #40]	; (2a70 <uart_irq+0x2c>)
    2a48:	008c      	lsls	r4, r1, #2
    2a4a:	0006      	movs	r6, r0
    2a4c:	5960      	ldr	r0, [r4, r5]
    2a4e:	2800      	cmp	r0, #0
    2a50:	d00d      	beq.n	2a6e <uart_irq+0x2a>
    2a52:	b273      	sxtb	r3, r6
    2a54:	2b00      	cmp	r3, #0
    2a56:	da03      	bge.n	2a60 <uart_irq+0x1c>
    2a58:	4b06      	ldr	r3, [pc, #24]	; (2a74 <uart_irq+0x30>)
    2a5a:	2101      	movs	r1, #1
    2a5c:	681b      	ldr	r3, [r3, #0]
    2a5e:	4798      	blx	r3
    2a60:	06b3      	lsls	r3, r6, #26
    2a62:	d504      	bpl.n	2a6e <uart_irq+0x2a>
    2a64:	4b03      	ldr	r3, [pc, #12]	; (2a74 <uart_irq+0x30>)
    2a66:	2100      	movs	r1, #0
    2a68:	681b      	ldr	r3, [r3, #0]
    2a6a:	5928      	ldr	r0, [r5, r4]
    2a6c:	4798      	blx	r3
    2a6e:	bd70      	pop	{r4, r5, r6, pc}
    2a70:	200004b8 	.word	0x200004b8
    2a74:	200004b4 	.word	0x200004b4

00002a78 <uart1_irq>:
    2a78:	b510      	push	{r4, lr}
    2a7a:	4b03      	ldr	r3, [pc, #12]	; (2a88 <uart1_irq+0x10>)
    2a7c:	2101      	movs	r1, #1
    2a7e:	7918      	ldrb	r0, [r3, #4]
    2a80:	b2c0      	uxtb	r0, r0
    2a82:	f7ff ffdf 	bl	2a44 <uart_irq>
    2a86:	bd10      	pop	{r4, pc}
    2a88:	4006b000 	.word	0x4006b000

00002a8c <uart2_irq>:
    2a8c:	b510      	push	{r4, lr}
    2a8e:	4b03      	ldr	r3, [pc, #12]	; (2a9c <uart2_irq+0x10>)
    2a90:	2102      	movs	r1, #2
    2a92:	7918      	ldrb	r0, [r3, #4]
    2a94:	b2c0      	uxtb	r0, r0
    2a96:	f7ff ffd5 	bl	2a44 <uart_irq>
    2a9a:	bd10      	pop	{r4, pc}
    2a9c:	4006c000 	.word	0x4006c000

00002aa0 <uart0_irq>:
    2aa0:	b510      	push	{r4, lr}
    2aa2:	4c07      	ldr	r4, [pc, #28]	; (2ac0 <uart0_irq+0x20>)
    2aa4:	2100      	movs	r1, #0
    2aa6:	7920      	ldrb	r0, [r4, #4]
    2aa8:	b2c0      	uxtb	r0, r0
    2aaa:	f7ff ffcb 	bl	2a44 <uart_irq>
    2aae:	2308      	movs	r3, #8
    2ab0:	7922      	ldrb	r2, [r4, #4]
    2ab2:	421a      	tst	r2, r3
    2ab4:	d002      	beq.n	2abc <uart0_irq+0x1c>
    2ab6:	7922      	ldrb	r2, [r4, #4]
    2ab8:	4313      	orrs	r3, r2
    2aba:	7123      	strb	r3, [r4, #4]
    2abc:	bd10      	pop	{r4, pc}
    2abe:	46c0      	nop			; (mov r8, r8)
    2ac0:	4006a000 	.word	0x4006a000

00002ac4 <serial_baud>:
    2ac4:	b5f7      	push	{r0, r1, r2, r4, r5, r6, r7, lr}
    2ac6:	000d      	movs	r5, r1
    2ac8:	210c      	movs	r1, #12
    2aca:	6803      	ldr	r3, [r0, #0]
    2acc:	0006      	movs	r6, r0
    2ace:	78dc      	ldrb	r4, [r3, #3]
    2ad0:	400c      	ands	r4, r1
    2ad2:	9401      	str	r4, [sp, #4]
    2ad4:	78da      	ldrb	r2, [r3, #3]
    2ad6:	438a      	bics	r2, r1
    2ad8:	70da      	strb	r2, [r3, #3]
    2ada:	4a41      	ldr	r2, [pc, #260]	; (2be0 <serial_baud+0x11c>)
    2adc:	4293      	cmp	r3, r2
    2ade:	d000      	beq.n	2ae2 <serial_baud+0x1e>
    2ae0:	e073      	b.n	2bca <serial_baud+0x106>
    2ae2:	f7ff ff83 	bl	29ec <mcgpllfll_frequency>
    2ae6:	2800      	cmp	r0, #0
    2ae8:	d014      	beq.n	2b14 <serial_baud+0x50>
    2aea:	f7ff ff7f 	bl	29ec <mcgpllfll_frequency>
    2aee:	0129      	lsls	r1, r5, #4
    2af0:	f001 fa12 	bl	3f18 <__udivsi3>
    2af4:	251f      	movs	r5, #31
    2af6:	6832      	ldr	r2, [r6, #0]
    2af8:	0a03      	lsrs	r3, r0, #8
    2afa:	7811      	ldrb	r1, [r2, #0]
    2afc:	402b      	ands	r3, r5
    2afe:	43a9      	bics	r1, r5
    2b00:	430b      	orrs	r3, r1
    2b02:	7013      	strb	r3, [r2, #0]
    2b04:	b2c0      	uxtb	r0, r0
    2b06:	7853      	ldrb	r3, [r2, #1]
    2b08:	7050      	strb	r0, [r2, #1]
    2b0a:	78d3      	ldrb	r3, [r2, #3]
    2b0c:	9c01      	ldr	r4, [sp, #4]
    2b0e:	431c      	orrs	r4, r3
    2b10:	70d4      	strb	r4, [r2, #3]
    2b12:	bdf7      	pop	{r0, r1, r2, r4, r5, r6, r7, pc}
    2b14:	4b33      	ldr	r3, [pc, #204]	; (2be4 <serial_baud+0x120>)
    2b16:	4a34      	ldr	r2, [pc, #208]	; (2be8 <serial_baud+0x124>)
    2b18:	58d7      	ldr	r7, [r2, r3]
    2b1a:	4b34      	ldr	r3, [pc, #208]	; (2bec <serial_baud+0x128>)
    2b1c:	0f3f      	lsrs	r7, r7, #28
    2b1e:	681a      	ldr	r2, [r3, #0]
    2b20:	233f      	movs	r3, #63	; 0x3f
    2b22:	3701      	adds	r7, #1
    2b24:	4357      	muls	r7, r2
    2b26:	4a32      	ldr	r2, [pc, #200]	; (2bf0 <serial_baud+0x12c>)
    2b28:	469c      	mov	r12, r3
    2b2a:	7811      	ldrb	r1, [r2, #0]
    2b2c:	4399      	bics	r1, r3
    2b2e:	0013      	movs	r3, r2
    2b30:	2980      	cmp	r1, #128	; 0x80
    2b32:	d053      	beq.n	2bdc <serial_baud+0x118>
    2b34:	4664      	mov	r4, r12
    2b36:	7811      	ldrb	r1, [r2, #0]
    2b38:	43a1      	bics	r1, r4
    2b3a:	d1d8      	bne.n	2aee <serial_baud+0x2a>
    2b3c:	7951      	ldrb	r1, [r2, #5]
    2b3e:	0649      	lsls	r1, r1, #25
    2b40:	d43a      	bmi.n	2bb8 <serial_baud+0xf4>
    2b42:	7992      	ldrb	r2, [r2, #6]
    2b44:	06d2      	lsls	r2, r2, #27
    2b46:	d4d2      	bmi.n	2aee <serial_baud+0x2a>
    2b48:	7819      	ldrb	r1, [r3, #0]
    2b4a:	785a      	ldrb	r2, [r3, #1]
    2b4c:	0689      	lsls	r1, r1, #26
    2b4e:	4694      	mov	r12, r2
    2b50:	2201      	movs	r2, #1
    2b52:	0f49      	lsrs	r1, r1, #29
    2b54:	408a      	lsls	r2, r1
    2b56:	2030      	movs	r0, #48	; 0x30
    2b58:	4661      	mov	r1, r12
    2b5a:	4201      	tst	r1, r0
    2b5c:	d003      	beq.n	2b66 <serial_baud+0xa2>
    2b5e:	21ff      	movs	r1, #255	; 0xff
    2b60:	0152      	lsls	r2, r2, #5
    2b62:	0149      	lsls	r1, r1, #5
    2b64:	400a      	ands	r2, r1
    2b66:	211f      	movs	r1, #31
    2b68:	78db      	ldrb	r3, [r3, #3]
    2b6a:	438b      	bics	r3, r1
    2b6c:	2b60      	cmp	r3, #96	; 0x60
    2b6e:	d01a      	beq.n	2ba6 <serial_baud+0xe2>
    2b70:	d807      	bhi.n	2b82 <serial_baud+0xbe>
    2b72:	2b20      	cmp	r3, #32
    2b74:	d00e      	beq.n	2b94 <serial_baud+0xd0>
    2b76:	2b40      	cmp	r3, #64	; 0x40
    2b78:	d013      	beq.n	2ba2 <serial_baud+0xde>
    2b7a:	2b00      	cmp	r3, #0
    2b7c:	d11a      	bne.n	2bb4 <serial_baud+0xf0>
    2b7e:	21a0      	movs	r1, #160	; 0xa0
    2b80:	e006      	b.n	2b90 <serial_baud+0xcc>
    2b82:	2ba0      	cmp	r3, #160	; 0xa0
    2b84:	d012      	beq.n	2bac <serial_baud+0xe8>
    2b86:	2bc0      	cmp	r3, #192	; 0xc0
    2b88:	d012      	beq.n	2bb0 <serial_baud+0xec>
    2b8a:	2b80      	cmp	r3, #128	; 0x80
    2b8c:	d112      	bne.n	2bb4 <serial_baud+0xf0>
    2b8e:	21b7      	movs	r1, #183	; 0xb7
    2b90:	0089      	lsls	r1, r1, #2
    2b92:	e001      	b.n	2b98 <serial_baud+0xd4>
    2b94:	21a0      	movs	r1, #160	; 0xa0
    2b96:	00c9      	lsls	r1, r1, #3
    2b98:	437a      	muls	r2, r7
    2b9a:	0010      	movs	r0, r2
    2b9c:	f001 f9bc 	bl	3f18 <__udivsi3>
    2ba0:	e7a5      	b.n	2aee <serial_baud+0x2a>
    2ba2:	21f0      	movs	r1, #240	; 0xf0
    2ba4:	e7f7      	b.n	2b96 <serial_baud+0xd2>
    2ba6:	21a0      	movs	r1, #160	; 0xa0
    2ba8:	0109      	lsls	r1, r1, #4
    2baa:	e7f5      	b.n	2b98 <serial_baud+0xd4>
    2bac:	21b7      	movs	r1, #183	; 0xb7
    2bae:	e7f2      	b.n	2b96 <serial_baud+0xd2>
    2bb0:	4910      	ldr	r1, [pc, #64]	; (2bf4 <serial_baud+0x130>)
    2bb2:	e7f1      	b.n	2b98 <serial_baud+0xd4>
    2bb4:	4910      	ldr	r1, [pc, #64]	; (2bf8 <serial_baud+0x134>)
    2bb6:	e7ef      	b.n	2b98 <serial_baud+0xd4>
    2bb8:	231f      	movs	r3, #31
    2bba:	7910      	ldrb	r0, [r2, #4]
    2bbc:	7951      	ldrb	r1, [r2, #5]
    2bbe:	4018      	ands	r0, r3
    2bc0:	3001      	adds	r0, #1
    2bc2:	4019      	ands	r1, r3
    2bc4:	4378      	muls	r0, r7
    2bc6:	3118      	adds	r1, #24
    2bc8:	e7e8      	b.n	2b9c <serial_baud+0xd8>
    2bca:	4b06      	ldr	r3, [pc, #24]	; (2be4 <serial_baud+0x120>)
    2bcc:	4a06      	ldr	r2, [pc, #24]	; (2be8 <serial_baud+0x124>)
    2bce:	58d1      	ldr	r1, [r2, r3]
    2bd0:	4b06      	ldr	r3, [pc, #24]	; (2bec <serial_baud+0x128>)
    2bd2:	0349      	lsls	r1, r1, #13
    2bd4:	0f49      	lsrs	r1, r1, #29
    2bd6:	3101      	adds	r1, #1
    2bd8:	6818      	ldr	r0, [r3, #0]
    2bda:	e7df      	b.n	2b9c <serial_baud+0xd8>
    2bdc:	0038      	movs	r0, r7
    2bde:	e786      	b.n	2aee <serial_baud+0x2a>
    2be0:	4006a000 	.word	0x4006a000
    2be4:	00001044 	.word	0x00001044
    2be8:	40047000 	.word	0x40047000
    2bec:	1ffff0e0 	.word	0x1ffff0e0
    2bf0:	40064000 	.word	0x40064000
    2bf4:	00000895 	.word	0x00000895
    2bf8:	00000b71 	.word	0x00000b71

00002bfc <serial_format>:
    2bfc:	b5f0      	push	{r4, r5, r6, r7, lr}
    2bfe:	270c      	movs	r7, #12
    2c00:	6801      	ldr	r1, [r0, #0]
    2c02:	78c8      	ldrb	r0, [r1, #3]
    2c04:	78ce      	ldrb	r6, [r1, #3]
    2c06:	4038      	ands	r0, r7
    2c08:	43be      	bics	r6, r7
    2c0a:	70ce      	strb	r6, [r1, #3]
    2c0c:	2a01      	cmp	r2, #1
    2c0e:	d015      	beq.n	2c3c <serial_format+0x40>
    2c10:	2a00      	cmp	r2, #0
    2c12:	d013      	beq.n	2c3c <serial_format+0x40>
    2c14:	2a02      	cmp	r2, #2
    2c16:	d014      	beq.n	2c42 <serial_format+0x46>
    2c18:	0064      	lsls	r4, r4, #1
    2c1a:	432c      	orrs	r4, r5
    2c1c:	b2e4      	uxtb	r4, r4
    2c1e:	708c      	strb	r4, [r1, #2]
    2c20:	2420      	movs	r4, #32
    2c22:	780a      	ldrb	r2, [r1, #0]
    2c24:	3b01      	subs	r3, #1
    2c26:	43a2      	bics	r2, r4
    2c28:	700a      	strb	r2, [r1, #0]
    2c2a:	780a      	ldrb	r2, [r1, #0]
    2c2c:	015b      	lsls	r3, r3, #5
    2c2e:	4313      	orrs	r3, r2
    2c30:	b2db      	uxtb	r3, r3
    2c32:	700b      	strb	r3, [r1, #0]
    2c34:	78cb      	ldrb	r3, [r1, #3]
    2c36:	4318      	orrs	r0, r3
    2c38:	70c8      	strb	r0, [r1, #3]
    2c3a:	bdf0      	pop	{r4, r5, r6, r7, pc}
    2c3c:	0015      	movs	r5, r2
    2c3e:	0014      	movs	r4, r2
    2c40:	e7ea      	b.n	2c18 <serial_format+0x1c>
    2c42:	2500      	movs	r5, #0
    2c44:	2401      	movs	r4, #1
    2c46:	e7e7      	b.n	2c18 <serial_format+0x1c>

00002c48 <serial_init>:
    2c48:	b5f8      	push	{r3, r4, r5, r6, r7, lr}
    2c4a:	000e      	movs	r6, r1
    2c4c:	0004      	movs	r4, r0
    2c4e:	4949      	ldr	r1, [pc, #292]	; (2d74 <serial_init+0x12c>)
    2c50:	0030      	movs	r0, r6
    2c52:	0017      	movs	r7, r2
    2c54:	f7fd ffc6 	bl	be4 <pinmap_peripheral>
    2c58:	4947      	ldr	r1, [pc, #284]	; (2d78 <serial_init+0x130>)
    2c5a:	0005      	movs	r5, r0
    2c5c:	0038      	movs	r0, r7
    2c5e:	f7fd ffc1 	bl	be4 <pinmap_peripheral>
    2c62:	0001      	movs	r1, r0
    2c64:	0028      	movs	r0, r5
    2c66:	f7fd ff9f 	bl	ba8 <pinmap_merge>
    2c6a:	4b44      	ldr	r3, [pc, #272]	; (2d7c <serial_init+0x134>)
    2c6c:	0005      	movs	r5, r0
    2c6e:	6020      	str	r0, [r4, #0]
    2c70:	4298      	cmp	r0, r3
    2c72:	d100      	bne.n	2c76 <serial_init+0x2e>
    2c74:	e06c      	b.n	2d50 <serial_init+0x108>
    2c76:	4b42      	ldr	r3, [pc, #264]	; (2d80 <serial_init+0x138>)
    2c78:	4298      	cmp	r0, r3
    2c7a:	d100      	bne.n	2c7e <serial_init+0x36>
    2c7c:	e070      	b.n	2d60 <serial_init+0x118>
    2c7e:	4b41      	ldr	r3, [pc, #260]	; (2d84 <serial_init+0x13c>)
    2c80:	4298      	cmp	r0, r3
    2c82:	d110      	bne.n	2ca6 <serial_init+0x5e>
    2c84:	f7ff feb2 	bl	29ec <mcgpllfll_frequency>
    2c88:	4b3f      	ldr	r3, [pc, #252]	; (2d88 <serial_init+0x140>)
    2c8a:	4a40      	ldr	r2, [pc, #256]	; (2d8c <serial_init+0x144>)
    2c8c:	2800      	cmp	r0, #0
    2c8e:	d05b      	beq.n	2d48 <serial_init+0x100>
    2c90:	2180      	movs	r1, #128	; 0x80
    2c92:	5898      	ldr	r0, [r3, r2]
    2c94:	04c9      	lsls	r1, r1, #19
    2c96:	4301      	orrs	r1, r0
    2c98:	5099      	str	r1, [r3, r2]
    2c9a:	2280      	movs	r2, #128	; 0x80
    2c9c:	493c      	ldr	r1, [pc, #240]	; (2d90 <serial_init+0x148>)
    2c9e:	00d2      	lsls	r2, r2, #3
    2ca0:	5858      	ldr	r0, [r3, r1]
    2ca2:	4302      	orrs	r2, r0
    2ca4:	505a      	str	r2, [r3, r1]
    2ca6:	210c      	movs	r1, #12
    2ca8:	6823      	ldr	r3, [r4, #0]
    2caa:	78da      	ldrb	r2, [r3, #3]
    2cac:	438a      	bics	r2, r1
    2cae:	70da      	strb	r2, [r3, #3]
    2cb0:	2208      	movs	r2, #8
    2cb2:	78d9      	ldrb	r1, [r3, #3]
    2cb4:	430a      	orrs	r2, r1
    2cb6:	70da      	strb	r2, [r3, #3]
    2cb8:	2240      	movs	r2, #64	; 0x40
    2cba:	7919      	ldrb	r1, [r3, #4]
    2cbc:	4211      	tst	r1, r2
    2cbe:	d0fc      	beq.n	2cba <serial_init+0x72>
    2cc0:	210c      	movs	r1, #12
    2cc2:	78da      	ldrb	r2, [r3, #3]
    2cc4:	438a      	bics	r2, r1
    2cc6:	70da      	strb	r2, [r3, #3]
    2cc8:	4b2c      	ldr	r3, [pc, #176]	; (2d7c <serial_init+0x134>)
    2cca:	429d      	cmp	r5, r3
    2ccc:	d04e      	beq.n	2d6c <serial_init+0x124>
    2cce:	4b2c      	ldr	r3, [pc, #176]	; (2d80 <serial_init+0x138>)
    2cd0:	429d      	cmp	r5, r3
    2cd2:	d04d      	beq.n	2d70 <serial_init+0x128>
    2cd4:	4b2b      	ldr	r3, [pc, #172]	; (2d84 <serial_init+0x13c>)
    2cd6:	429d      	cmp	r5, r3
    2cd8:	d101      	bne.n	2cde <serial_init+0x96>
    2cda:	2300      	movs	r3, #0
    2cdc:	6063      	str	r3, [r4, #4]
    2cde:	2196      	movs	r1, #150	; 0x96
    2ce0:	0020      	movs	r0, r4
    2ce2:	0189      	lsls	r1, r1, #6
    2ce4:	f7ff feee 	bl	2ac4 <serial_baud>
    2ce8:	2301      	movs	r3, #1
    2cea:	2200      	movs	r2, #0
    2cec:	2108      	movs	r1, #8
    2cee:	0020      	movs	r0, r4
    2cf0:	f7ff ff84 	bl	2bfc <serial_format>
    2cf4:	491f      	ldr	r1, [pc, #124]	; (2d74 <serial_init+0x12c>)
    2cf6:	0030      	movs	r0, r6
    2cf8:	f7fd ff3a 	bl	b70 <pinmap_pinout>
    2cfc:	491e      	ldr	r1, [pc, #120]	; (2d78 <serial_init+0x130>)
    2cfe:	0038      	movs	r0, r7
    2d00:	f7fd ff36 	bl	b70 <pinmap_pinout>
    2d04:	1c73      	adds	r3, r6, #1
    2d06:	d008      	beq.n	2d1a <serial_init+0xd2>
    2d08:	2308      	movs	r3, #8
    2d0a:	6822      	ldr	r2, [r4, #0]
    2d0c:	0030      	movs	r0, r6
    2d0e:	78d1      	ldrb	r1, [r2, #3]
    2d10:	430b      	orrs	r3, r1
    2d12:	70d3      	strb	r3, [r2, #3]
    2d14:	2102      	movs	r1, #2
    2d16:	f7ff fe5f 	bl	29d8 <pin_mode>
    2d1a:	1c7b      	adds	r3, r7, #1
    2d1c:	d008      	beq.n	2d30 <serial_init+0xe8>
    2d1e:	2304      	movs	r3, #4
    2d20:	6822      	ldr	r2, [r4, #0]
    2d22:	0038      	movs	r0, r7
    2d24:	78d1      	ldrb	r1, [r2, #3]
    2d26:	430b      	orrs	r3, r1
    2d28:	70d3      	strb	r3, [r2, #3]
    2d2a:	2102      	movs	r1, #2
    2d2c:	f7ff fe54 	bl	29d8 <pin_mode>
    2d30:	4b14      	ldr	r3, [pc, #80]	; (2d84 <serial_init+0x13c>)
    2d32:	429d      	cmp	r5, r3
    2d34:	d107      	bne.n	2d46 <serial_init+0xfe>
    2d36:	2201      	movs	r2, #1
    2d38:	4b16      	ldr	r3, [pc, #88]	; (2d94 <serial_init+0x14c>)
    2d3a:	0021      	movs	r1, r4
    2d3c:	601a      	str	r2, [r3, #0]
    2d3e:	4816      	ldr	r0, [pc, #88]	; (2d98 <serial_init+0x150>)
    2d40:	3207      	adds	r2, #7
    2d42:	f002 fc22 	bl	558a <memcpy>
    2d46:	bdf8      	pop	{r3, r4, r5, r6, r7, pc}
    2d48:	2180      	movs	r1, #128	; 0x80
    2d4a:	5898      	ldr	r0, [r3, r2]
    2d4c:	0509      	lsls	r1, r1, #20
    2d4e:	e7a2      	b.n	2c96 <serial_init+0x4e>
    2d50:	2380      	movs	r3, #128	; 0x80
    2d52:	490d      	ldr	r1, [pc, #52]	; (2d88 <serial_init+0x140>)
    2d54:	4a0e      	ldr	r2, [pc, #56]	; (2d90 <serial_init+0x148>)
    2d56:	011b      	lsls	r3, r3, #4
    2d58:	5888      	ldr	r0, [r1, r2]
    2d5a:	4303      	orrs	r3, r0
    2d5c:	508b      	str	r3, [r1, r2]
    2d5e:	e7a2      	b.n	2ca6 <serial_init+0x5e>
    2d60:	2380      	movs	r3, #128	; 0x80
    2d62:	4909      	ldr	r1, [pc, #36]	; (2d88 <serial_init+0x140>)
    2d64:	4a0a      	ldr	r2, [pc, #40]	; (2d90 <serial_init+0x148>)
    2d66:	015b      	lsls	r3, r3, #5
    2d68:	5888      	ldr	r0, [r1, r2]
    2d6a:	e7f6      	b.n	2d5a <serial_init+0x112>
    2d6c:	2301      	movs	r3, #1
    2d6e:	e7b5      	b.n	2cdc <serial_init+0x94>
    2d70:	2302      	movs	r3, #2
    2d72:	e7b3      	b.n	2cdc <serial_init+0x94>
    2d74:	00007550 	.word	0x00007550
    2d78:	000074e4 	.word	0x000074e4
    2d7c:	4006b000 	.word	0x4006b000
    2d80:	4006c000 	.word	0x4006c000
    2d84:	4006a000 	.word	0x4006a000
    2d88:	40047000 	.word	0x40047000
    2d8c:	00001004 	.word	0x00001004
    2d90:	00001034 	.word	0x00001034
    2d94:	200004c4 	.word	0x200004c4
    2d98:	20000e58 	.word	0x20000e58

00002d9c <serial_irq_handler>:
    2d9c:	4b03      	ldr	r3, [pc, #12]	; (2dac <serial_irq_handler+0x10>)
    2d9e:	6019      	str	r1, [r3, #0]
    2da0:	6843      	ldr	r3, [r0, #4]
    2da2:	4903      	ldr	r1, [pc, #12]	; (2db0 <serial_irq_handler+0x14>)
    2da4:	009b      	lsls	r3, r3, #2
    2da6:	505a      	str	r2, [r3, r1]
    2da8:	4770      	bx	lr
    2daa:	46c0      	nop			; (mov r8, r8)
    2dac:	200004b4 	.word	0x200004b4
    2db0:	200004b8 	.word	0x200004b8

00002db4 <serial_irq_set>:
    2db4:	6803      	ldr	r3, [r0, #0]
    2db6:	4827      	ldr	r0, [pc, #156]	; (2e54 <serial_irq_set+0xa0>)
    2db8:	b510      	push	{r4, lr}
    2dba:	4283      	cmp	r3, r0
    2dbc:	d016      	beq.n	2dec <serial_irq_set+0x38>
    2dbe:	4826      	ldr	r0, [pc, #152]	; (2e58 <serial_irq_set+0xa4>)
    2dc0:	4283      	cmp	r3, r0
    2dc2:	d016      	beq.n	2df2 <serial_irq_set+0x3e>
    2dc4:	4825      	ldr	r0, [pc, #148]	; (2e5c <serial_irq_set+0xa8>)
    2dc6:	4283      	cmp	r3, r0
    2dc8:	d116      	bne.n	2df8 <serial_irq_set+0x44>
    2dca:	240c      	movs	r4, #12
    2dcc:	4824      	ldr	r0, [pc, #144]	; (2e60 <serial_irq_set+0xac>)
    2dce:	2a00      	cmp	r2, #0
    2dd0:	d01d      	beq.n	2e0e <serial_irq_set+0x5a>
    2dd2:	2900      	cmp	r1, #0
    2dd4:	d013      	beq.n	2dfe <serial_irq_set+0x4a>
    2dd6:	2901      	cmp	r1, #1
    2dd8:	d016      	beq.n	2e08 <serial_irq_set+0x54>
    2dda:	0001      	movs	r1, r0
    2ddc:	0020      	movs	r0, r4
    2dde:	f000 f8d1 	bl	2f84 <NVIC_SetVector>
    2de2:	2301      	movs	r3, #1
    2de4:	40a3      	lsls	r3, r4
    2de6:	4a1f      	ldr	r2, [pc, #124]	; (2e64 <serial_irq_set+0xb0>)
    2de8:	6013      	str	r3, [r2, #0]
    2dea:	bd10      	pop	{r4, pc}
    2dec:	481e      	ldr	r0, [pc, #120]	; (2e68 <serial_irq_set+0xb4>)
    2dee:	240d      	movs	r4, #13
    2df0:	e7ed      	b.n	2dce <serial_irq_set+0x1a>
    2df2:	481e      	ldr	r0, [pc, #120]	; (2e6c <serial_irq_set+0xb8>)
    2df4:	240e      	movs	r4, #14
    2df6:	e7ea      	b.n	2dce <serial_irq_set+0x1a>
    2df8:	2000      	movs	r0, #0
    2dfa:	0004      	movs	r4, r0
    2dfc:	e7e7      	b.n	2dce <serial_irq_set+0x1a>
    2dfe:	2220      	movs	r2, #32
    2e00:	78d9      	ldrb	r1, [r3, #3]
    2e02:	430a      	orrs	r2, r1
    2e04:	70da      	strb	r2, [r3, #3]
    2e06:	e7e8      	b.n	2dda <serial_irq_set+0x26>
    2e08:	78da      	ldrb	r2, [r3, #3]
    2e0a:	2180      	movs	r1, #128	; 0x80
    2e0c:	e7f9      	b.n	2e02 <serial_irq_set+0x4e>
    2e0e:	2900      	cmp	r1, #0
    2e10:	d004      	beq.n	2e1c <serial_irq_set+0x68>
    2e12:	2901      	cmp	r1, #1
    2e14:	d00b      	beq.n	2e2e <serial_irq_set+0x7a>
    2e16:	2900      	cmp	r1, #0
    2e18:	d004      	beq.n	2e24 <serial_irq_set+0x70>
    2e1a:	e00c      	b.n	2e36 <serial_irq_set+0x82>
    2e1c:	2120      	movs	r1, #32
    2e1e:	78da      	ldrb	r2, [r3, #3]
    2e20:	438a      	bics	r2, r1
    2e22:	70da      	strb	r2, [r3, #3]
    2e24:	78db      	ldrb	r3, [r3, #3]
    2e26:	b25b      	sxtb	r3, r3
    2e28:	43db      	mvns	r3, r3
    2e2a:	0fdb      	lsrs	r3, r3, #31
    2e2c:	e007      	b.n	2e3e <serial_irq_set+0x8a>
    2e2e:	217f      	movs	r1, #127	; 0x7f
    2e30:	78da      	ldrb	r2, [r3, #3]
    2e32:	400a      	ands	r2, r1
    2e34:	70da      	strb	r2, [r3, #3]
    2e36:	78da      	ldrb	r2, [r3, #3]
    2e38:	2301      	movs	r3, #1
    2e3a:	0952      	lsrs	r2, r2, #5
    2e3c:	4393      	bics	r3, r2
    2e3e:	2b00      	cmp	r3, #0
    2e40:	d0d3      	beq.n	2dea <serial_irq_set+0x36>
    2e42:	2301      	movs	r3, #1
    2e44:	40a3      	lsls	r3, r4
    2e46:	4a0a      	ldr	r2, [pc, #40]	; (2e70 <serial_irq_set+0xbc>)
    2e48:	67d3      	str	r3, [r2, #124]	; 0x7c
    2e4a:	f3bf 8f4f 	dsb	sy
    2e4e:	f3bf 8f6f 	isb	sy
    2e52:	e7ca      	b.n	2dea <serial_irq_set+0x36>
    2e54:	4006b000 	.word	0x4006b000
    2e58:	4006c000 	.word	0x4006c000
    2e5c:	4006a000 	.word	0x4006a000
    2e60:	00002aa1 	.word	0x00002aa1
    2e64:	e000e100 	.word	0xe000e100
    2e68:	00002a79 	.word	0x00002a79
    2e6c:	00002a8d 	.word	0x00002a8d
    2e70:	e000e104 	.word	0xe000e104

00002e74 <serial_readable>:
    2e74:	2208      	movs	r2, #8
    2e76:	6803      	ldr	r3, [r0, #0]
    2e78:	7919      	ldrb	r1, [r3, #4]
    2e7a:	4211      	tst	r1, r2
    2e7c:	d002      	beq.n	2e84 <serial_readable+0x10>
    2e7e:	7919      	ldrb	r1, [r3, #4]
    2e80:	430a      	orrs	r2, r1
    2e82:	711a      	strb	r2, [r3, #4]
    2e84:	7918      	ldrb	r0, [r3, #4]
    2e86:	2320      	movs	r3, #32
    2e88:	4018      	ands	r0, r3
    2e8a:	4770      	bx	lr

00002e8c <serial_getc>:
    2e8c:	b510      	push	{r4, lr}
    2e8e:	0004      	movs	r4, r0
    2e90:	0020      	movs	r0, r4
    2e92:	f7ff ffef 	bl	2e74 <serial_readable>
    2e96:	2800      	cmp	r0, #0
    2e98:	d0fa      	beq.n	2e90 <serial_getc+0x4>
    2e9a:	6823      	ldr	r3, [r4, #0]
    2e9c:	79d8      	ldrb	r0, [r3, #7]
    2e9e:	b2c0      	uxtb	r0, r0
    2ea0:	bd10      	pop	{r4, pc}

00002ea2 <serial_writable>:
    2ea2:	2208      	movs	r2, #8
    2ea4:	6803      	ldr	r3, [r0, #0]
    2ea6:	7919      	ldrb	r1, [r3, #4]
    2ea8:	4211      	tst	r1, r2
    2eaa:	d002      	beq.n	2eb2 <serial_writable+0x10>
    2eac:	7919      	ldrb	r1, [r3, #4]
    2eae:	430a      	orrs	r2, r1
    2eb0:	711a      	strb	r2, [r3, #4]
    2eb2:	7918      	ldrb	r0, [r3, #4]
    2eb4:	237f      	movs	r3, #127	; 0x7f
    2eb6:	4398      	bics	r0, r3
    2eb8:	4770      	bx	lr

00002eba <serial_putc>:
    2eba:	b570      	push	{r4, r5, r6, lr}
    2ebc:	0005      	movs	r5, r0
    2ebe:	000c      	movs	r4, r1
    2ec0:	0028      	movs	r0, r5
    2ec2:	f7ff ffee 	bl	2ea2 <serial_writable>
    2ec6:	2800      	cmp	r0, #0
    2ec8:	d0fa      	beq.n	2ec0 <serial_putc+0x6>
    2eca:	682b      	ldr	r3, [r5, #0]
    2ecc:	b2e4      	uxtb	r4, r4
    2ece:	71dc      	strb	r4, [r3, #7]
    2ed0:	bd70      	pop	{r4, r5, r6, pc}

00002ed2 <NMI_Handler>:
    2ed2:	b57f      	push	{r0, r1, r2, r3, r4, r5, r6, lr}
    2ed4:	2110      	movs	r1, #16
    2ed6:	4668      	mov	r0, sp
    2ed8:	f7fd fe08 	bl	aec <gpio_init_in>
    2edc:	b007      	add	sp, #28
    2ede:	bd00      	pop	{pc}

00002ee0 <SystemInit>:
    2ee0:	2288      	movs	r2, #136	; 0x88
    2ee2:	2000      	movs	r0, #0
    2ee4:	4b1f      	ldr	r3, [pc, #124]	; (2f64 <SystemInit+0x84>)
    2ee6:	0152      	lsls	r2, r2, #5
    2ee8:	b510      	push	{r4, lr}
    2eea:	5098      	str	r0, [r3, r2]
    2eec:	2280      	movs	r2, #128	; 0x80
    2eee:	491e      	ldr	r1, [pc, #120]	; (2f68 <SystemInit+0x88>)
    2ef0:	0092      	lsls	r2, r2, #2
    2ef2:	585c      	ldr	r4, [r3, r1]
    2ef4:	4322      	orrs	r2, r4
    2ef6:	505a      	str	r2, [r3, r1]
    2ef8:	491c      	ldr	r1, [pc, #112]	; (2f6c <SystemInit+0x8c>)
    2efa:	4a1d      	ldr	r2, [pc, #116]	; (2f70 <SystemInit+0x90>)
    2efc:	4c1d      	ldr	r4, [pc, #116]	; (2f74 <SystemInit+0x94>)
    2efe:	5099      	str	r1, [r3, r2]
    2f00:	4b1d      	ldr	r3, [pc, #116]	; (2f78 <SystemInit+0x98>)
    2f02:	6c99      	ldr	r1, [r3, #72]	; 0x48
    2f04:	4021      	ands	r1, r4
    2f06:	6499      	str	r1, [r3, #72]	; 0x48
    2f08:	6cda      	ldr	r2, [r3, #76]	; 0x4c
    2f0a:	211f      	movs	r1, #31
    2f0c:	4022      	ands	r2, r4
    2f0e:	64da      	str	r2, [r3, #76]	; 0x4c
    2f10:	2289      	movs	r2, #137	; 0x89
    2f12:	4b1a      	ldr	r3, [pc, #104]	; (2f7c <SystemInit+0x9c>)
    2f14:	701a      	strb	r2, [r3, #0]
    2f16:	4b1a      	ldr	r3, [pc, #104]	; (2f80 <SystemInit+0xa0>)
    2f18:	3a65      	subs	r2, #101	; 0x65
    2f1a:	705a      	strb	r2, [r3, #1]
    2f1c:	3276      	adds	r2, #118	; 0x76
    2f1e:	701a      	strb	r2, [r3, #0]
    2f20:	78da      	ldrb	r2, [r3, #3]
    2f22:	400a      	ands	r2, r1
    2f24:	70da      	strb	r2, [r3, #3]
    2f26:	2201      	movs	r2, #1
    2f28:	711a      	strb	r2, [r3, #4]
    2f2a:	7158      	strb	r0, [r3, #5]
    2f2c:	320f      	adds	r2, #15
    2f2e:	7999      	ldrb	r1, [r3, #6]
    2f30:	4211      	tst	r1, r2
    2f32:	d1fc      	bne.n	2f2e <SystemInit+0x4e>
    2f34:	210c      	movs	r1, #12
    2f36:	799a      	ldrb	r2, [r3, #6]
    2f38:	400a      	ands	r2, r1
    2f3a:	2a08      	cmp	r2, #8
    2f3c:	d1fb      	bne.n	2f36 <SystemInit+0x56>
    2f3e:	210c      	movs	r1, #12
    2f40:	3238      	adds	r2, #56	; 0x38
    2f42:	715a      	strb	r2, [r3, #5]
    2f44:	799a      	ldrb	r2, [r3, #6]
    2f46:	400a      	ands	r2, r1
    2f48:	2a08      	cmp	r2, #8
    2f4a:	d1fb      	bne.n	2f44 <SystemInit+0x64>
    2f4c:	3238      	adds	r2, #56	; 0x38
    2f4e:	7999      	ldrb	r1, [r3, #6]
    2f50:	4211      	tst	r1, r2
    2f52:	d0fc      	beq.n	2f4e <SystemInit+0x6e>
    2f54:	221a      	movs	r2, #26
    2f56:	210c      	movs	r1, #12
    2f58:	701a      	strb	r2, [r3, #0]
    2f5a:	799a      	ldrb	r2, [r3, #6]
    2f5c:	400a      	ands	r2, r1
    2f5e:	2a0c      	cmp	r2, #12
    2f60:	d1fb      	bne.n	2f5a <SystemInit+0x7a>
    2f62:	bd10      	pop	{r4, pc}
    2f64:	40047000 	.word	0x40047000
    2f68:	00001038 	.word	0x00001038
    2f6c:	10010000 	.word	0x10010000
    2f70:	00001044 	.word	0x00001044
    2f74:	fefff8ff 	.word	0xfefff8ff
    2f78:	40049000 	.word	0x40049000
    2f7c:	40065000 	.word	0x40065000
    2f80:	40064000 	.word	0x40064000

00002f84 <NVIC_SetVector>:
    2f84:	4a0a      	ldr	r2, [pc, #40]	; (2fb0 <NVIC_SetVector+0x2c>)
    2f86:	b5f0      	push	{r4, r5, r6, r7, lr}
    2f88:	6893      	ldr	r3, [r2, #8]
    2f8a:	6895      	ldr	r5, [r2, #8]
    2f8c:	001c      	movs	r4, r3
    2f8e:	2d00      	cmp	r5, #0
    2f90:	d10a      	bne.n	2fa8 <NVIC_SetVector+0x24>
    2f92:	001d      	movs	r5, r3
    2f94:	4c07      	ldr	r4, [pc, #28]	; (2fb4 <NVIC_SetVector+0x30>)
    2f96:	35c0      	adds	r5, #192	; 0xc0
    2f98:	1ae6      	subs	r6, r4, r3
    2f9a:	681f      	ldr	r7, [r3, #0]
    2f9c:	50f7      	str	r7, [r6, r3]
    2f9e:	3304      	adds	r3, #4
    2fa0:	42ab      	cmp	r3, r5
    2fa2:	d1fa      	bne.n	2f9a <NVIC_SetVector+0x16>
    2fa4:	6094      	str	r4, [r2, #8]
    2fa6:	4c03      	ldr	r4, [pc, #12]	; (2fb4 <NVIC_SetVector+0x30>)
    2fa8:	3010      	adds	r0, #16
    2faa:	0080      	lsls	r0, r0, #2
    2fac:	5101      	str	r1, [r0, r4]
    2fae:	bdf0      	pop	{r4, r5, r6, r7, pc}
    2fb0:	e000ed00 	.word	0xe000ed00
    2fb4:	1ffff000 	.word	0x1ffff000

00002fb8 <mbed::Serial::_getc()>:
    2fb8:	b510      	push	{r4, lr}
    2fba:	f000 fb0c 	bl	35d6 <mbed::SerialBase::_base_getc()>
    2fbe:	bd10      	pop	{r4, pc}

00002fc0 <non-virtual thunk to mbed::Serial::_getc()>:
    2fc0:	b408      	push	{r3}
    2fc2:	4b02      	ldr	r3, [pc, #8]	; (2fcc <non-virtual thunk to mbed::Serial::_getc()+0xc>)
    2fc4:	469c      	mov	r12, r3
    2fc6:	3830      	subs	r0, #48	; 0x30
    2fc8:	bc08      	pop	{r3}
    2fca:	4760      	bx	r12
    2fcc:	00002fb9 	.word	0x00002fb9

00002fd0 <mbed::Serial::_putc(int)>:
    2fd0:	b510      	push	{r4, lr}
    2fd2:	f000 fb05 	bl	35e0 <mbed::SerialBase::_base_putc(int)>
    2fd6:	bd10      	pop	{r4, pc}

00002fd8 <non-virtual thunk to mbed::Serial::_putc(int)>:
    2fd8:	b408      	push	{r3}
    2fda:	4b02      	ldr	r3, [pc, #8]	; (2fe4 <non-virtual thunk to mbed::Serial::_putc(int)+0xc>)
    2fdc:	469c      	mov	r12, r3
    2fde:	3830      	subs	r0, #48	; 0x30
    2fe0:	bc08      	pop	{r3}
    2fe2:	4760      	bx	r12
    2fe4:	00002fd1 	.word	0x00002fd1

00002fe8 <mbed::Serial::lock()>:
    2fe8:	2101      	movs	r1, #1
    2fea:	b510      	push	{r4, lr}
    2fec:	3044      	adds	r0, #68	; 0x44
    2fee:	4249      	negs	r1, r1
    2ff0:	f000 fec6 	bl	3d80 <rtos::Mutex::lock(unsigned long)>
    2ff4:	bd10      	pop	{r4, pc}
	...

00002ff8 <non-virtual thunk to mbed::Serial::lock()>:
    2ff8:	b408      	push	{r3}
    2ffa:	4b02      	ldr	r3, [pc, #8]	; (3004 <non-virtual thunk to mbed::Serial::lock()+0xc>)
    2ffc:	469c      	mov	r12, r3
    2ffe:	3830      	subs	r0, #48	; 0x30
    3000:	bc08      	pop	{r3}
    3002:	4760      	bx	r12
    3004:	00002fe9 	.word	0x00002fe9

00003008 <mbed::Serial::unlock()>:
    3008:	b510      	push	{r4, lr}
    300a:	3044      	adds	r0, #68	; 0x44
    300c:	f000 febd 	bl	3d8a <rtos::Mutex::unlock()>
    3010:	bd10      	pop	{r4, pc}
	...

00003014 <non-virtual thunk to mbed::Serial::unlock()>:
    3014:	b408      	push	{r3}
    3016:	4b02      	ldr	r3, [pc, #8]	; (3020 <non-virtual thunk to mbed::Serial::unlock()+0xc>)
    3018:	469c      	mov	r12, r3
    301a:	3830      	subs	r0, #48	; 0x30
    301c:	bc08      	pop	{r3}
    301e:	4760      	bx	r12
    3020:	00003009 	.word	0x00003009

00003024 <mbed::Serial::Serial(PinName, PinName, char const*, int)>:
    3024:	b570      	push	{r4, r5, r6, lr}
    3026:	0004      	movs	r4, r0
    3028:	001d      	movs	r5, r3
    302a:	9b04      	ldr	r3, [sp, #16]
    302c:	f000 fae0 	bl	35f0 <mbed::SerialBase::SerialBase(PinName, PinName, int)>
    3030:	0020      	movs	r0, r4
    3032:	0029      	movs	r1, r5
    3034:	3030      	adds	r0, #48	; 0x30
    3036:	f000 f931 	bl	329c <mbed::Stream::Stream(char const*)>
    303a:	4b06      	ldr	r3, [pc, #24]	; (3054 <mbed::Serial::Serial(PinName, PinName, char const*, int)+0x30>)
    303c:	0020      	movs	r0, r4
    303e:	001a      	movs	r2, r3
    3040:	3328      	adds	r3, #40	; 0x28
    3042:	3208      	adds	r2, #8
    3044:	6022      	str	r2, [r4, #0]
    3046:	6323      	str	r3, [r4, #48]	; 0x30
    3048:	3044      	adds	r0, #68	; 0x44
    304a:	f000 fe81 	bl	3d50 <rtos::Mutex::Mutex()>
    304e:	0020      	movs	r0, r4
    3050:	bd70      	pop	{r4, r5, r6, pc}
    3052:	46c0      	nop			; (mov r8, r8)
    3054:	000075bc 	.word	0x000075bc

00003058 <mbed::BusOut::~BusOut()>:
    3058:	b570      	push	{r4, r5, r6, lr}
    305a:	0004      	movs	r4, r0
    305c:	0006      	movs	r6, r0
    305e:	0005      	movs	r5, r0
    3060:	4b08      	ldr	r3, [pc, #32]	; (3084 <mbed::BusOut::~BusOut()+0x2c>)
    3062:	3644      	adds	r6, #68	; 0x44
    3064:	3308      	adds	r3, #8
    3066:	c408      	stmia	r4!, {r3}
    3068:	6820      	ldr	r0, [r4, #0]
    306a:	2800      	cmp	r0, #0
    306c:	d001      	beq.n	3072 <mbed::BusOut::~BusOut()+0x1a>
    306e:	f000 fd70 	bl	3b52 <operator delete(void*)>
    3072:	3404      	adds	r4, #4
    3074:	42b4      	cmp	r4, r6
    3076:	d1f7      	bne.n	3068 <mbed::BusOut::~BusOut()+0x10>
    3078:	0028      	movs	r0, r5
    307a:	3048      	adds	r0, #72	; 0x48
    307c:	f000 fe8a 	bl	3d94 <rtos::Mutex::~Mutex()>
    3080:	0028      	movs	r0, r5
    3082:	bd70      	pop	{r4, r5, r6, pc}
    3084:	0000762c 	.word	0x0000762c

00003088 <mbed::BusOut::~BusOut()>:
    3088:	b510      	push	{r4, lr}
    308a:	0004      	movs	r4, r0
    308c:	f7ff ffe4 	bl	3058 <mbed::BusOut::~BusOut()>
    3090:	0020      	movs	r0, r4
    3092:	f000 fd5e 	bl	3b52 <operator delete(void*)>
    3096:	0020      	movs	r0, r4
    3098:	bd10      	pop	{r4, pc}

0000309a <mbed::BusOut::lock()>:
    309a:	2101      	movs	r1, #1
    309c:	b510      	push	{r4, lr}
    309e:	3048      	adds	r0, #72	; 0x48
    30a0:	4249      	negs	r1, r1
    30a2:	f000 fe6d 	bl	3d80 <rtos::Mutex::lock(unsigned long)>
    30a6:	bd10      	pop	{r4, pc}

000030a8 <mbed::BusOut::unlock()>:
    30a8:	b510      	push	{r4, lr}
    30aa:	3048      	adds	r0, #72	; 0x48
    30ac:	f000 fe6d 	bl	3d8a <rtos::Mutex::unlock()>
    30b0:	bd10      	pop	{r4, pc}
	...

000030b4 <mbed::BusOut::BusOut(PinName, PinName, PinName, PinName, PinName, PinName, PinName, PinName, PinName, PinName, PinName, PinName, PinName, PinName, PinName, PinName)>:
    30b4:	b5f0      	push	{r4, r5, r6, r7, lr}
    30b6:	b097      	sub	sp, #92	; 0x5c
    30b8:	9303      	str	r3, [sp, #12]
    30ba:	ab1c      	add	r3, sp, #112	; 0x70
    30bc:	9202      	str	r2, [sp, #8]
    30be:	2200      	movs	r2, #0
    30c0:	5e9b      	ldrsh	r3, [r3, r2]
    30c2:	0005      	movs	r5, r0
    30c4:	9304      	str	r3, [sp, #16]
    30c6:	ab1d      	add	r3, sp, #116	; 0x74
    30c8:	2200      	movs	r2, #0
    30ca:	5e9b      	ldrsh	r3, [r3, r2]
    30cc:	9101      	str	r1, [sp, #4]
    30ce:	9305      	str	r3, [sp, #20]
    30d0:	ab1e      	add	r3, sp, #120	; 0x78
    30d2:	2200      	movs	r2, #0
    30d4:	5e9b      	ldrsh	r3, [r3, r2]
    30d6:	9306      	str	r3, [sp, #24]
    30d8:	ab1f      	add	r3, sp, #124	; 0x7c
    30da:	2200      	movs	r2, #0
    30dc:	5e9b      	ldrsh	r3, [r3, r2]
    30de:	9307      	str	r3, [sp, #28]
    30e0:	ab20      	add	r3, sp, #128	; 0x80
    30e2:	2200      	movs	r2, #0
    30e4:	5e9b      	ldrsh	r3, [r3, r2]
    30e6:	9308      	str	r3, [sp, #32]
    30e8:	ab21      	add	r3, sp, #132	; 0x84
    30ea:	2200      	movs	r2, #0
    30ec:	5e9b      	ldrsh	r3, [r3, r2]
    30ee:	9309      	str	r3, [sp, #36]	; 0x24
    30f0:	ab22      	add	r3, sp, #136	; 0x88
    30f2:	2200      	movs	r2, #0
    30f4:	5e9b      	ldrsh	r3, [r3, r2]
    30f6:	930a      	str	r3, [sp, #40]	; 0x28
    30f8:	ab23      	add	r3, sp, #140	; 0x8c
    30fa:	2200      	movs	r2, #0
    30fc:	5e9b      	ldrsh	r3, [r3, r2]
    30fe:	930b      	str	r3, [sp, #44]	; 0x2c
    3100:	ab24      	add	r3, sp, #144	; 0x90
    3102:	2200      	movs	r2, #0
    3104:	5e9b      	ldrsh	r3, [r3, r2]
    3106:	930c      	str	r3, [sp, #48]	; 0x30
    3108:	ab25      	add	r3, sp, #148	; 0x94
    310a:	2700      	movs	r7, #0
    310c:	5fdf      	ldrsh	r7, [r3, r7]
    310e:	ab26      	add	r3, sp, #152	; 0x98
    3110:	2600      	movs	r6, #0
    3112:	5f9e      	ldrsh	r6, [r3, r6]
    3114:	ab27      	add	r3, sp, #156	; 0x9c
    3116:	2200      	movs	r2, #0
    3118:	5e9b      	ldrsh	r3, [r3, r2]
    311a:	930d      	str	r3, [sp, #52]	; 0x34
    311c:	ab28      	add	r3, sp, #160	; 0xa0
    311e:	2400      	movs	r4, #0
    3120:	5f1c      	ldrsh	r4, [r3, r4]
    3122:	4b2c      	ldr	r3, [pc, #176]	; (31d4 <mbed::BusOut::BusOut(PinName, PinName, PinName, PinName, PinName, PinName, PinName, PinName, PinName, PinName, PinName, PinName, PinName, PinName, PinName, PinName)+0x120>)
    3124:	3308      	adds	r3, #8
    3126:	6003      	str	r3, [r0, #0]
    3128:	3048      	adds	r0, #72	; 0x48
    312a:	f000 fe11 	bl	3d50 <rtos::Mutex::Mutex()>
    312e:	466a      	mov	r2, sp
    3130:	8892      	ldrh	r2, [r2, #4]
    3132:	ab0e      	add	r3, sp, #56	; 0x38
    3134:	801a      	strh	r2, [r3, #0]
    3136:	466a      	mov	r2, sp
    3138:	8912      	ldrh	r2, [r2, #8]
    313a:	83dc      	strh	r4, [r3, #30]
    313c:	805a      	strh	r2, [r3, #2]
    313e:	466a      	mov	r2, sp
    3140:	8992      	ldrh	r2, [r2, #12]
    3142:	2400      	movs	r4, #0
    3144:	809a      	strh	r2, [r3, #4]
    3146:	466a      	mov	r2, sp
    3148:	8a12      	ldrh	r2, [r2, #16]
    314a:	831f      	strh	r7, [r3, #24]
    314c:	80da      	strh	r2, [r3, #6]
    314e:	466a      	mov	r2, sp
    3150:	8a92      	ldrh	r2, [r2, #20]
    3152:	835e      	strh	r6, [r3, #26]
    3154:	811a      	strh	r2, [r3, #8]
    3156:	466a      	mov	r2, sp
    3158:	8b12      	ldrh	r2, [r2, #24]
    315a:	646c      	str	r4, [r5, #68]	; 0x44
    315c:	815a      	strh	r2, [r3, #10]
    315e:	466a      	mov	r2, sp
    3160:	8b92      	ldrh	r2, [r2, #28]
    3162:	819a      	strh	r2, [r3, #12]
    3164:	466a      	mov	r2, sp
    3166:	8c12      	ldrh	r2, [r2, #32]
    3168:	81da      	strh	r2, [r3, #14]
    316a:	466a      	mov	r2, sp
    316c:	8c92      	ldrh	r2, [r2, #36]	; 0x24
    316e:	821a      	strh	r2, [r3, #16]
    3170:	466a      	mov	r2, sp
    3172:	8d12      	ldrh	r2, [r2, #40]	; 0x28
    3174:	825a      	strh	r2, [r3, #18]
    3176:	466a      	mov	r2, sp
    3178:	8d92      	ldrh	r2, [r2, #44]	; 0x2c
    317a:	829a      	strh	r2, [r3, #20]
    317c:	466a      	mov	r2, sp
    317e:	8e12      	ldrh	r2, [r2, #48]	; 0x30
    3180:	82da      	strh	r2, [r3, #22]
    3182:	466a      	mov	r2, sp
    3184:	8e92      	ldrh	r2, [r2, #52]	; 0x34
    3186:	839a      	strh	r2, [r3, #28]
    3188:	0063      	lsls	r3, r4, #1
    318a:	aa0e      	add	r2, sp, #56	; 0x38
    318c:	5ed3      	ldrsh	r3, [r2, r3]
    318e:	2600      	movs	r6, #0
    3190:	9301      	str	r3, [sp, #4]
    3192:	3301      	adds	r3, #1
    3194:	d00c      	beq.n	31b0 <mbed::BusOut::BusOut(PinName, PinName, PinName, PinName, PinName, PinName, PinName, PinName, PinName, PinName, PinName, PinName, PinName, PinName, PinName, PinName)+0xfc>
    3196:	2018      	movs	r0, #24
    3198:	f000 fcc0 	bl	3b1c <operator new(unsigned int)>
    319c:	0007      	movs	r7, r0
    319e:	0031      	movs	r1, r6
    31a0:	2218      	movs	r2, #24
    31a2:	f002 fa0d 	bl	55c0 <memset>
    31a6:	9901      	ldr	r1, [sp, #4]
    31a8:	0038      	movs	r0, r7
    31aa:	f7fd fcb2 	bl	b12 <gpio_init_out>
    31ae:	003e      	movs	r6, r7
    31b0:	00a3      	lsls	r3, r4, #2
    31b2:	18eb      	adds	r3, r5, r3
    31b4:	605e      	str	r6, [r3, #4]
    31b6:	9b01      	ldr	r3, [sp, #4]
    31b8:	3301      	adds	r3, #1
    31ba:	d004      	beq.n	31c6 <mbed::BusOut::BusOut(PinName, PinName, PinName, PinName, PinName, PinName, PinName, PinName, PinName, PinName, PinName, PinName, PinName, PinName, PinName, PinName)+0x112>
    31bc:	2301      	movs	r3, #1
    31be:	40a3      	lsls	r3, r4
    31c0:	6c6a      	ldr	r2, [r5, #68]	; 0x44
    31c2:	4313      	orrs	r3, r2
    31c4:	646b      	str	r3, [r5, #68]	; 0x44
    31c6:	3401      	adds	r4, #1
    31c8:	2c10      	cmp	r4, #16
    31ca:	d1dd      	bne.n	3188 <mbed::BusOut::BusOut(PinName, PinName, PinName, PinName, PinName, PinName, PinName, PinName, PinName, PinName, PinName, PinName, PinName, PinName, PinName, PinName)+0xd4>
    31cc:	0028      	movs	r0, r5
    31ce:	b017      	add	sp, #92	; 0x5c
    31d0:	bdf0      	pop	{r4, r5, r6, r7, pc}
    31d2:	46c0      	nop			; (mov r8, r8)
    31d4:	0000762c 	.word	0x0000762c

000031d8 <mbed::BusOut::write(int)>:
    31d8:	6803      	ldr	r3, [r0, #0]
    31da:	b570      	push	{r4, r5, r6, lr}
    31dc:	689b      	ldr	r3, [r3, #8]
    31de:	0004      	movs	r4, r0
    31e0:	000d      	movs	r5, r1
    31e2:	2601      	movs	r6, #1
    31e4:	4798      	blx	r3
    31e6:	2300      	movs	r3, #0
    31e8:	009a      	lsls	r2, r3, #2
    31ea:	18a2      	adds	r2, r4, r2
    31ec:	6852      	ldr	r2, [r2, #4]
    31ee:	2a00      	cmp	r2, #0
    31f0:	d006      	beq.n	3200 <mbed::BusOut::write(int)+0x28>
    31f2:	0029      	movs	r1, r5
    31f4:	4119      	asrs	r1, r3
    31f6:	6850      	ldr	r0, [r2, #4]
    31f8:	4231      	tst	r1, r6
    31fa:	d009      	beq.n	3210 <mbed::BusOut::write(int)+0x38>
    31fc:	68d2      	ldr	r2, [r2, #12]
    31fe:	6010      	str	r0, [r2, #0]
    3200:	3301      	adds	r3, #1
    3202:	2b10      	cmp	r3, #16
    3204:	d1f0      	bne.n	31e8 <mbed::BusOut::write(int)+0x10>
    3206:	6823      	ldr	r3, [r4, #0]
    3208:	0020      	movs	r0, r4
    320a:	68db      	ldr	r3, [r3, #12]
    320c:	4798      	blx	r3
    320e:	bd70      	pop	{r4, r5, r6, pc}
    3210:	6912      	ldr	r2, [r2, #16]
    3212:	e7f4      	b.n	31fe <mbed::BusOut::write(int)+0x26>

00003214 <mbed::BusOut::operator=(int)>:
    3214:	b510      	push	{r4, lr}
    3216:	0004      	movs	r4, r0
    3218:	f7ff ffde 	bl	31d8 <mbed::BusOut::write(int)>
    321c:	0020      	movs	r0, r4
    321e:	bd10      	pop	{r4, pc}

00003220 <mbed::Stream::write(void const*, unsigned int)>:
    3220:	b5f8      	push	{r3, r4, r5, r6, r7, lr}
    3222:	000e      	movs	r6, r1
    3224:	6803      	ldr	r3, [r0, #0]
    3226:	0005      	movs	r5, r0
    3228:	6b9b      	ldr	r3, [r3, #56]	; 0x38
    322a:	188c      	adds	r4, r1, r2
    322c:	4798      	blx	r3
    322e:	0033      	movs	r3, r6
    3230:	42a3      	cmp	r3, r4
    3232:	d008      	beq.n	3246 <mbed::Stream::write(void const*, unsigned int)+0x26>
    3234:	1c5f      	adds	r7, r3, #1
    3236:	7819      	ldrb	r1, [r3, #0]
    3238:	682b      	ldr	r3, [r5, #0]
    323a:	0028      	movs	r0, r5
    323c:	6c1b      	ldr	r3, [r3, #64]	; 0x40
    323e:	4798      	blx	r3
    3240:	1c43      	adds	r3, r0, #1
    3242:	d106      	bne.n	3252 <mbed::Stream::write(void const*, unsigned int)+0x32>
    3244:	003c      	movs	r4, r7
    3246:	682b      	ldr	r3, [r5, #0]
    3248:	0028      	movs	r0, r5
    324a:	6bdb      	ldr	r3, [r3, #60]	; 0x3c
    324c:	4798      	blx	r3
    324e:	1ba0      	subs	r0, r4, r6
    3250:	bdf8      	pop	{r3, r4, r5, r6, r7, pc}
    3252:	003b      	movs	r3, r7
    3254:	e7ec      	b.n	3230 <mbed::Stream::write(void const*, unsigned int)+0x10>

00003256 <mbed::Stream::read(void*, unsigned int)>:
    3256:	b5f8      	push	{r3, r4, r5, r6, r7, lr}
    3258:	000e      	movs	r6, r1
    325a:	6803      	ldr	r3, [r0, #0]
    325c:	0005      	movs	r5, r0
    325e:	6b9b      	ldr	r3, [r3, #56]	; 0x38
    3260:	188f      	adds	r7, r1, r2
    3262:	0034      	movs	r4, r6
    3264:	4798      	blx	r3
    3266:	42a7      	cmp	r7, r4
    3268:	d008      	beq.n	327c <mbed::Stream::read(void*, unsigned int)+0x26>
    326a:	682b      	ldr	r3, [r5, #0]
    326c:	0028      	movs	r0, r5
    326e:	6c5b      	ldr	r3, [r3, #68]	; 0x44
    3270:	4798      	blx	r3
    3272:	1c43      	adds	r3, r0, #1
    3274:	d002      	beq.n	327c <mbed::Stream::read(void*, unsigned int)+0x26>
    3276:	7020      	strb	r0, [r4, #0]
    3278:	3401      	adds	r4, #1
    327a:	e7f4      	b.n	3266 <mbed::Stream::read(void*, unsigned int)+0x10>
    327c:	682b      	ldr	r3, [r5, #0]
    327e:	0028      	movs	r0, r5
    3280:	6bdb      	ldr	r3, [r3, #60]	; 0x3c
    3282:	4798      	blx	r3
    3284:	1ba0      	subs	r0, r4, r6
    3286:	bdf8      	pop	{r3, r4, r5, r6, r7, pc}

00003288 <mbed::Stream::seek(long, int)>:
    3288:	2000      	movs	r0, #0
    328a:	4770      	bx	lr

0000328c <mbed::Stream::tell()>:
    328c:	2000      	movs	r0, #0
    328e:	4770      	bx	lr

00003290 <mbed::Stream::rewind()>:
    3290:	4770      	bx	lr

00003292 <mbed::Stream::sync()>:
    3292:	2000      	movs	r0, #0
    3294:	4770      	bx	lr

00003296 <mbed::Stream::size()>:
    3296:	2000      	movs	r0, #0
    3298:	4770      	bx	lr
	...

0000329c <mbed::Stream::Stream(char const*)>:
    329c:	b51f      	push	{r0, r1, r2, r3, r4, lr}
    329e:	0004      	movs	r4, r0
    32a0:	2200      	movs	r2, #0
    32a2:	f000 f87b 	bl	339c <mbed::FileBase::FileBase(char const*, mbed::PathType)>
    32a6:	4b0a      	ldr	r3, [pc, #40]	; (32d0 <mbed::Stream::Stream(char const*)+0x34>)
    32a8:	0022      	movs	r2, r4
    32aa:	3308      	adds	r3, #8
    32ac:	6023      	str	r3, [r4, #0]
    32ae:	2300      	movs	r3, #0
    32b0:	4908      	ldr	r1, [pc, #32]	; (32d4 <mbed::Stream::Stream(char const*)+0x38>)
    32b2:	6123      	str	r3, [r4, #16]
    32b4:	a801      	add	r0, sp, #4
    32b6:	f003 f86d 	bl	6394 <siprintf>
    32ba:	4907      	ldr	r1, [pc, #28]	; (32d8 <mbed::Stream::Stream(char const*)+0x3c>)
    32bc:	a801      	add	r0, sp, #4
    32be:	f001 ffd3 	bl	5268 <fopen>
    32c2:	6120      	str	r0, [r4, #16]
    32c4:	f000 fc19 	bl	3afa <mbed::mbed_set_unbuffered_stream(__sFILE*)>
    32c8:	0020      	movs	r0, r4
    32ca:	b004      	add	sp, #16
    32cc:	bd10      	pop	{r4, pc}
    32ce:	46c0      	nop			; (mov r8, r8)
    32d0:	00007694 	.word	0x00007694
    32d4:	0000768c 	.word	0x0000768c
    32d8:	00007690 	.word	0x00007690

000032dc <mbed::Stream::~Stream()>:
    32dc:	b510      	push	{r4, lr}
    32de:	0004      	movs	r4, r0
    32e0:	4b06      	ldr	r3, [pc, #24]	; (32fc <mbed::Stream::~Stream()+0x20>)
    32e2:	3308      	adds	r3, #8
    32e4:	6003      	str	r3, [r0, #0]
    32e6:	6900      	ldr	r0, [r0, #16]
    32e8:	f001 fdbc 	bl	4e64 <fclose>
    32ec:	4b04      	ldr	r3, [pc, #16]	; (3300 <mbed::Stream::~Stream()+0x24>)
    32ee:	0020      	movs	r0, r4
    32f0:	6023      	str	r3, [r4, #0]
    32f2:	f000 f87b 	bl	33ec <mbed::FileBase::~FileBase()>
    32f6:	0020      	movs	r0, r4
    32f8:	bd10      	pop	{r4, pc}
    32fa:	46c0      	nop			; (mov r8, r8)
    32fc:	00007694 	.word	0x00007694
    3300:	0000764c 	.word	0x0000764c

00003304 <mbed::Stream::getc()>:
    3304:	b570      	push	{r4, r5, r6, lr}
    3306:	0004      	movs	r4, r0
    3308:	6803      	ldr	r3, [r0, #0]
    330a:	6b9b      	ldr	r3, [r3, #56]	; 0x38
    330c:	4798      	blx	r3
    330e:	6920      	ldr	r0, [r4, #16]
    3310:	f001 fe68 	bl	4fe4 <fflush>
    3314:	6920      	ldr	r0, [r4, #16]
    3316:	f000 fbf5 	bl	3b04 <mbed::mbed_getc(__sFILE*)>
    331a:	0005      	movs	r5, r0
    331c:	6823      	ldr	r3, [r4, #0]
    331e:	0020      	movs	r0, r4
    3320:	6bdb      	ldr	r3, [r3, #60]	; 0x3c
    3322:	4798      	blx	r3
    3324:	0028      	movs	r0, r5
    3326:	bd70      	pop	{r4, r5, r6, pc}

00003328 <mbed::Stream::printf(char const*, ...)>:
    3328:	b40e      	push	{r1, r2, r3}
    332a:	b577      	push	{r0, r1, r2, r4, r5, r6, lr}
    332c:	0004      	movs	r4, r0
    332e:	6803      	ldr	r3, [r0, #0]
    3330:	ad07      	add	r5, sp, #28
    3332:	cd40      	ldmia	r5!, {r6}
    3334:	6b9b      	ldr	r3, [r3, #56]	; 0x38
    3336:	4798      	blx	r3
    3338:	6920      	ldr	r0, [r4, #16]
    333a:	9501      	str	r5, [sp, #4]
    333c:	f001 fe52 	bl	4fe4 <fflush>
    3340:	0031      	movs	r1, r6
    3342:	9a01      	ldr	r2, [sp, #4]
    3344:	6920      	ldr	r0, [r4, #16]
    3346:	f002 fb55 	bl	59f4 <vfiprintf>
    334a:	0005      	movs	r5, r0
    334c:	6823      	ldr	r3, [r4, #0]
    334e:	0020      	movs	r0, r4
    3350:	6bdb      	ldr	r3, [r3, #60]	; 0x3c
    3352:	4798      	blx	r3
    3354:	0028      	movs	r0, r5
    3356:	bc7e      	pop	{r1, r2, r3, r4, r5, r6}
    3358:	bc08      	pop	{r3}
    335a:	b003      	add	sp, #12
    335c:	4718      	bx	r3

0000335e <mbed::FileBase::getPathType()>:
    335e:	7b00      	ldrb	r0, [r0, #12]
    3360:	4770      	bx	lr
	...

00003364 <SingletonPtr<rtos::Mutex>::get()>:
    3364:	6803      	ldr	r3, [r0, #0]
    3366:	b570      	push	{r4, r5, r6, lr}
    3368:	0004      	movs	r4, r0
    336a:	2b00      	cmp	r3, #0
    336c:	d112      	bne.n	3394 <SingletonPtr<rtos::Mutex>::get()+0x30>
    336e:	2101      	movs	r1, #1
    3370:	4e09      	ldr	r6, [pc, #36]	; (3398 <SingletonPtr<rtos::Mutex>::get()+0x34>)
    3372:	4249      	negs	r1, r1
    3374:	6830      	ldr	r0, [r6, #0]
    3376:	f7fe fac5 	bl	1904 <osMutexWait>
    337a:	6823      	ldr	r3, [r4, #0]
    337c:	2b00      	cmp	r3, #0
    337e:	d106      	bne.n	338e <SingletonPtr<rtos::Mutex>::get()+0x2a>
    3380:	1d25      	adds	r5, r4, #4
    3382:	2d00      	cmp	r5, #0
    3384:	d002      	beq.n	338c <SingletonPtr<rtos::Mutex>::get()+0x28>
    3386:	0028      	movs	r0, r5
    3388:	f000 fce2 	bl	3d50 <rtos::Mutex::Mutex()>
    338c:	6025      	str	r5, [r4, #0]
    338e:	6830      	ldr	r0, [r6, #0]
    3390:	f7fe fae2 	bl	1958 <osMutexRelease>
    3394:	6820      	ldr	r0, [r4, #0]
    3396:	bd70      	pop	{r4, r5, r6, pc}
    3398:	200008cc 	.word	0x200008cc

0000339c <mbed::FileBase::FileBase(char const*, mbed::PathType)>:
    339c:	4b10      	ldr	r3, [pc, #64]	; (33e0 <mbed::FileBase::FileBase(char const*, mbed::PathType)+0x44>)
    339e:	b570      	push	{r4, r5, r6, lr}
    33a0:	3308      	adds	r3, #8
    33a2:	6003      	str	r3, [r0, #0]
    33a4:	0004      	movs	r4, r0
    33a6:	2300      	movs	r3, #0
    33a8:	4e0e      	ldr	r6, [pc, #56]	; (33e4 <mbed::FileBase::FileBase(char const*, mbed::PathType)+0x48>)
    33aa:	6043      	str	r3, [r0, #4]
    33ac:	60a1      	str	r1, [r4, #8]
    33ae:	7302      	strb	r2, [r0, #12]
    33b0:	0030      	movs	r0, r6
    33b2:	000d      	movs	r5, r1
    33b4:	f7ff ffd6 	bl	3364 <SingletonPtr<rtos::Mutex>::get()>
    33b8:	2101      	movs	r1, #1
    33ba:	4249      	negs	r1, r1
    33bc:	f000 fce0 	bl	3d80 <rtos::Mutex::lock(unsigned long)>
    33c0:	2d00      	cmp	r5, #0
    33c2:	d00a      	beq.n	33da <mbed::FileBase::FileBase(char const*, mbed::PathType)+0x3e>
    33c4:	4b08      	ldr	r3, [pc, #32]	; (33e8 <mbed::FileBase::FileBase(char const*, mbed::PathType)+0x4c>)
    33c6:	681a      	ldr	r2, [r3, #0]
    33c8:	601c      	str	r4, [r3, #0]
    33ca:	6062      	str	r2, [r4, #4]
    33cc:	0030      	movs	r0, r6
    33ce:	f7ff ffc9 	bl	3364 <SingletonPtr<rtos::Mutex>::get()>
    33d2:	f000 fcda 	bl	3d8a <rtos::Mutex::unlock()>
    33d6:	0020      	movs	r0, r4
    33d8:	bd70      	pop	{r4, r5, r6, pc}
    33da:	6065      	str	r5, [r4, #4]
    33dc:	e7f6      	b.n	33cc <mbed::FileBase::FileBase(char const*, mbed::PathType)+0x30>
    33de:	46c0      	nop			; (mov r8, r8)
    33e0:	000076e4 	.word	0x000076e4
    33e4:	200004cc 	.word	0x200004cc
    33e8:	200004c8 	.word	0x200004c8

000033ec <mbed::FileBase::~FileBase()>:
    33ec:	4b14      	ldr	r3, [pc, #80]	; (3440 <mbed::FileBase::~FileBase()+0x54>)
    33ee:	b570      	push	{r4, r5, r6, lr}
    33f0:	4d14      	ldr	r5, [pc, #80]	; (3444 <mbed::FileBase::~FileBase()+0x58>)
    33f2:	3308      	adds	r3, #8
    33f4:	6003      	str	r3, [r0, #0]
    33f6:	0004      	movs	r4, r0
    33f8:	0028      	movs	r0, r5
    33fa:	f7ff ffb3 	bl	3364 <SingletonPtr<rtos::Mutex>::get()>
    33fe:	2101      	movs	r1, #1
    3400:	4249      	negs	r1, r1
    3402:	f000 fcbd 	bl	3d80 <rtos::Mutex::lock(unsigned long)>
    3406:	68a3      	ldr	r3, [r4, #8]
    3408:	2b00      	cmp	r3, #0
    340a:	d005      	beq.n	3418 <mbed::FileBase::~FileBase()+0x2c>
    340c:	4a0e      	ldr	r2, [pc, #56]	; (3448 <mbed::FileBase::~FileBase()+0x5c>)
    340e:	6813      	ldr	r3, [r2, #0]
    3410:	429c      	cmp	r4, r3
    3412:	d10f      	bne.n	3434 <mbed::FileBase::~FileBase()+0x48>
    3414:	6863      	ldr	r3, [r4, #4]
    3416:	6013      	str	r3, [r2, #0]
    3418:	0028      	movs	r0, r5
    341a:	f7ff ffa3 	bl	3364 <SingletonPtr<rtos::Mutex>::get()>
    341e:	f000 fcb4 	bl	3d8a <rtos::Mutex::unlock()>
    3422:	7b23      	ldrb	r3, [r4, #12]
    3424:	2b00      	cmp	r3, #0
    3426:	d102      	bne.n	342e <mbed::FileBase::~FileBase()+0x42>
    3428:	0020      	movs	r0, r4
    342a:	f000 fb97 	bl	3b5c <mbed::remove_filehandle(mbed::FileLike*)>
    342e:	0020      	movs	r0, r4
    3430:	bd70      	pop	{r4, r5, r6, pc}
    3432:	0013      	movs	r3, r2
    3434:	685a      	ldr	r2, [r3, #4]
    3436:	4294      	cmp	r4, r2
    3438:	d1fb      	bne.n	3432 <mbed::FileBase::~FileBase()+0x46>
    343a:	6862      	ldr	r2, [r4, #4]
    343c:	605a      	str	r2, [r3, #4]
    343e:	e7eb      	b.n	3418 <mbed::FileBase::~FileBase()+0x2c>
    3440:	000076e4 	.word	0x000076e4
    3444:	200004cc 	.word	0x200004cc
    3448:	200004c8 	.word	0x200004c8

0000344c <mbed::FileBase::~FileBase()>:
    344c:	b510      	push	{r4, lr}
    344e:	0004      	movs	r4, r0
    3450:	f7ff ffcc 	bl	33ec <mbed::FileBase::~FileBase()>
    3454:	0020      	movs	r0, r4
    3456:	f000 fb7c 	bl	3b52 <operator delete(void*)>
    345a:	0020      	movs	r0, r4
    345c:	bd10      	pop	{r4, pc}
	...

00003460 <mbed::FileBase::lookup(char const*, unsigned int)>:
    3460:	b5f7      	push	{r0, r1, r2, r4, r5, r6, r7, lr}
    3462:	4d13      	ldr	r5, [pc, #76]	; (34b0 <mbed::FileBase::lookup(char const*, unsigned int)+0x50>)
    3464:	9001      	str	r0, [sp, #4]
    3466:	0028      	movs	r0, r5
    3468:	000f      	movs	r7, r1
    346a:	f7ff ff7b 	bl	3364 <SingletonPtr<rtos::Mutex>::get()>
    346e:	2101      	movs	r1, #1
    3470:	4249      	negs	r1, r1
    3472:	f000 fc85 	bl	3d80 <rtos::Mutex::lock(unsigned long)>
    3476:	4b0f      	ldr	r3, [pc, #60]	; (34b4 <mbed::FileBase::lookup(char const*, unsigned int)+0x54>)
    3478:	681c      	ldr	r4, [r3, #0]
    347a:	2c00      	cmp	r4, #0
    347c:	d00e      	beq.n	349c <mbed::FileBase::lookup(char const*, unsigned int)+0x3c>
    347e:	68a6      	ldr	r6, [r4, #8]
    3480:	2e00      	cmp	r6, #0
    3482:	d012      	beq.n	34aa <mbed::FileBase::lookup(char const*, unsigned int)+0x4a>
    3484:	003a      	movs	r2, r7
    3486:	9901      	ldr	r1, [sp, #4]
    3488:	0030      	movs	r0, r6
    348a:	f003 f82c 	bl	64e6 <strncmp>
    348e:	2800      	cmp	r0, #0
    3490:	d10b      	bne.n	34aa <mbed::FileBase::lookup(char const*, unsigned int)+0x4a>
    3492:	0030      	movs	r0, r6
    3494:	f003 f820 	bl	64d8 <strlen>
    3498:	4287      	cmp	r7, r0
    349a:	d106      	bne.n	34aa <mbed::FileBase::lookup(char const*, unsigned int)+0x4a>
    349c:	0028      	movs	r0, r5
    349e:	f7ff ff61 	bl	3364 <SingletonPtr<rtos::Mutex>::get()>
    34a2:	f000 fc72 	bl	3d8a <rtos::Mutex::unlock()>
    34a6:	0020      	movs	r0, r4
    34a8:	bdfe      	pop	{r1, r2, r3, r4, r5, r6, r7, pc}
    34aa:	6864      	ldr	r4, [r4, #4]
    34ac:	e7e5      	b.n	347a <mbed::FileBase::lookup(char const*, unsigned int)+0x1a>
    34ae:	46c0      	nop			; (mov r8, r8)
    34b0:	200004cc 	.word	0x200004cc
    34b4:	200004c8 	.word	0x200004c8

000034b8 <mbed::Callback<void ()>::operator=(mbed::Callback<void ()> const&)>:
    34b8:	b570      	push	{r4, r5, r6, lr}
    34ba:	0004      	movs	r4, r0
    34bc:	000d      	movs	r5, r1
    34be:	4288      	cmp	r0, r1
    34c0:	d00c      	beq.n	34dc <mbed::Callback<void ()>::operator=(mbed::Callback<void ()> const&)+0x24>
    34c2:	f7fd f875 	bl	5b0 <mbed::Callback<void ()>::~Callback()>
    34c6:	2c00      	cmp	r4, #0
    34c8:	d008      	beq.n	34dc <mbed::Callback<void ()>::operator=(mbed::Callback<void ()> const&)+0x24>
    34ca:	68eb      	ldr	r3, [r5, #12]
    34cc:	2b00      	cmp	r3, #0
    34ce:	d003      	beq.n	34d8 <mbed::Callback<void ()>::operator=(mbed::Callback<void ()> const&)+0x20>
    34d0:	685b      	ldr	r3, [r3, #4]
    34d2:	0029      	movs	r1, r5
    34d4:	0020      	movs	r0, r4
    34d6:	4798      	blx	r3
    34d8:	68eb      	ldr	r3, [r5, #12]
    34da:	60e3      	str	r3, [r4, #12]
    34dc:	0020      	movs	r0, r4
    34de:	bd70      	pop	{r4, r5, r6, pc}

000034e0 <mbed::FilePath::FilePath(char const*)>:
    34e0:	2300      	movs	r3, #0
    34e2:	b510      	push	{r4, lr}
    34e4:	6003      	str	r3, [r0, #0]
    34e6:	6043      	str	r3, [r0, #4]
    34e8:	780a      	ldrb	r2, [r1, #0]
    34ea:	0004      	movs	r4, r0
    34ec:	2a2f      	cmp	r2, #47	; 0x2f
    34ee:	d10e      	bne.n	350e <mbed::FilePath::FilePath(char const*)+0x2e>
    34f0:	784a      	ldrb	r2, [r1, #1]
    34f2:	429a      	cmp	r2, r3
    34f4:	d00b      	beq.n	350e <mbed::FilePath::FilePath(char const*)+0x2e>
    34f6:	1c48      	adds	r0, r1, #1
    34f8:	0019      	movs	r1, r3
    34fa:	6020      	str	r0, [r4, #0]
    34fc:	6823      	ldr	r3, [r4, #0]
    34fe:	781a      	ldrb	r2, [r3, #0]
    3500:	2a2f      	cmp	r2, #47	; 0x2f
    3502:	d106      	bne.n	3512 <mbed::FilePath::FilePath(char const*)+0x32>
    3504:	3301      	adds	r3, #1
    3506:	6023      	str	r3, [r4, #0]
    3508:	f7ff ffaa 	bl	3460 <mbed::FileBase::lookup(char const*, unsigned int)>
    350c:	6060      	str	r0, [r4, #4]
    350e:	0020      	movs	r0, r4
    3510:	bd10      	pop	{r4, pc}
    3512:	2a00      	cmp	r2, #0
    3514:	d0f8      	beq.n	3508 <mbed::FilePath::FilePath(char const*)+0x28>
    3516:	3301      	adds	r3, #1
    3518:	3101      	adds	r1, #1
    351a:	6023      	str	r3, [r4, #0]
    351c:	e7ee      	b.n	34fc <mbed::FilePath::FilePath(char const*)+0x1c>

0000351e <mbed::FilePath::fileName()>:
    351e:	6800      	ldr	r0, [r0, #0]
    3520:	4770      	bx	lr

00003522 <mbed::FilePath::isFileSystem()>:
    3522:	6843      	ldr	r3, [r0, #4]
    3524:	b510      	push	{r4, lr}
    3526:	1e18      	subs	r0, r3, #0
    3528:	d005      	beq.n	3536 <mbed::FilePath::isFileSystem()+0x14>
    352a:	f7ff ff18 	bl	335e <mbed::FileBase::getPathType()>
    352e:	3801      	subs	r0, #1
    3530:	4243      	negs	r3, r0
    3532:	4158      	adcs	r0, r3
    3534:	b2c0      	uxtb	r0, r0
    3536:	bd10      	pop	{r4, pc}

00003538 <mbed::FilePath::fileSystem()>:
    3538:	b510      	push	{r4, lr}
    353a:	0004      	movs	r4, r0
    353c:	f7ff fff1 	bl	3522 <mbed::FilePath::isFileSystem()>
    3540:	1e03      	subs	r3, r0, #0
    3542:	d000      	beq.n	3546 <mbed::FilePath::fileSystem()+0xe>
    3544:	6863      	ldr	r3, [r4, #4]
    3546:	0018      	movs	r0, r3
    3548:	bd10      	pop	{r4, pc}

0000354a <mbed::FilePath::isFile()>:
    354a:	6843      	ldr	r3, [r0, #4]
    354c:	b510      	push	{r4, lr}
    354e:	1e18      	subs	r0, r3, #0
    3550:	d004      	beq.n	355c <mbed::FilePath::isFile()+0x12>
    3552:	f7ff ff04 	bl	335e <mbed::FileBase::getPathType()>
    3556:	4243      	negs	r3, r0
    3558:	4158      	adcs	r0, r3
    355a:	b2c0      	uxtb	r0, r0
    355c:	bd10      	pop	{r4, pc}

0000355e <mbed::FilePath::file()>:
    355e:	b510      	push	{r4, lr}
    3560:	0004      	movs	r4, r0
    3562:	f7ff fff2 	bl	354a <mbed::FilePath::isFile()>
    3566:	1e03      	subs	r3, r0, #0
    3568:	d000      	beq.n	356c <mbed::FilePath::file()+0xe>
    356a:	6863      	ldr	r3, [r4, #4]
    356c:	0018      	movs	r0, r3
    356e:	bd10      	pop	{r4, pc}

00003570 <mbed::FilePath::exists()>:
    3570:	6840      	ldr	r0, [r0, #4]
    3572:	1e43      	subs	r3, r0, #1
    3574:	4198      	sbcs	r0, r3
    3576:	b2c0      	uxtb	r0, r0
    3578:	4770      	bx	lr

0000357a <mbed::donothing()>:
    357a:	4770      	bx	lr

0000357c <mbed::SerialBase::lock()>:
    357c:	4770      	bx	lr

0000357e <mbed::SerialBase::unlock()>:
    357e:	4770      	bx	lr

00003580 <mbed::SerialBase::_irq_handler(unsigned long, SerialIrq)>:
    3580:	010b      	lsls	r3, r1, #4
    3582:	3101      	adds	r1, #1
    3584:	b510      	push	{r4, lr}
    3586:	0109      	lsls	r1, r1, #4
    3588:	1841      	adds	r1, r0, r1
    358a:	688a      	ldr	r2, [r1, #8]
    358c:	330c      	adds	r3, #12
    358e:	18c3      	adds	r3, r0, r3
    3590:	6812      	ldr	r2, [r2, #0]
    3592:	0018      	movs	r0, r3
    3594:	4790      	blx	r2
    3596:	bd10      	pop	{r4, pc}

00003598 <mbed::SerialBase::baud(int)>:
    3598:	b570      	push	{r4, r5, r6, lr}
    359a:	0004      	movs	r4, r0
    359c:	000d      	movs	r5, r1
    359e:	6803      	ldr	r3, [r0, #0]
    35a0:	681b      	ldr	r3, [r3, #0]
    35a2:	4798      	blx	r3
    35a4:	0029      	movs	r1, r5
    35a6:	1d20      	adds	r0, r4, #4
    35a8:	f7ff fa8c 	bl	2ac4 <serial_baud>
    35ac:	6823      	ldr	r3, [r4, #0]
    35ae:	62e5      	str	r5, [r4, #44]	; 0x2c
    35b0:	685b      	ldr	r3, [r3, #4]
    35b2:	0020      	movs	r0, r4
    35b4:	4798      	blx	r3
    35b6:	bd70      	pop	{r4, r5, r6, pc}

000035b8 <mbed::SerialBase::readable()>:
    35b8:	b570      	push	{r4, r5, r6, lr}
    35ba:	0004      	movs	r4, r0
    35bc:	6803      	ldr	r3, [r0, #0]
    35be:	681b      	ldr	r3, [r3, #0]
    35c0:	4798      	blx	r3
    35c2:	1d20      	adds	r0, r4, #4
    35c4:	f7ff fc56 	bl	2e74 <serial_readable>
    35c8:	0005      	movs	r5, r0
    35ca:	6823      	ldr	r3, [r4, #0]
    35cc:	0020      	movs	r0, r4
    35ce:	685b      	ldr	r3, [r3, #4]
    35d0:	4798      	blx	r3
    35d2:	0028      	movs	r0, r5
    35d4:	bd70      	pop	{r4, r5, r6, pc}

000035d6 <mbed::SerialBase::_base_getc()>:
    35d6:	b510      	push	{r4, lr}
    35d8:	3004      	adds	r0, #4
    35da:	f7ff fc57 	bl	2e8c <serial_getc>
    35de:	bd10      	pop	{r4, pc}

000035e0 <mbed::SerialBase::_base_putc(int)>:
    35e0:	b510      	push	{r4, lr}
    35e2:	000c      	movs	r4, r1
    35e4:	3004      	adds	r0, #4
    35e6:	f7ff fc68 	bl	2eba <serial_putc>
    35ea:	0020      	movs	r0, r4
    35ec:	bd10      	pop	{r4, pc}
	...

000035f0 <mbed::SerialBase::SerialBase(PinName, PinName, int)>:
    35f0:	b5f0      	push	{r4, r5, r6, r7, lr}
    35f2:	b087      	sub	sp, #28
    35f4:	9201      	str	r2, [sp, #4]
    35f6:	4a19      	ldr	r2, [pc, #100]	; (365c <mbed::SerialBase::SerialBase(PinName, PinName, int)+0x6c>)
    35f8:	0004      	movs	r4, r0
    35fa:	3208      	adds	r2, #8
    35fc:	6002      	str	r2, [r0, #0]
    35fe:	2200      	movs	r2, #0
    3600:	4e17      	ldr	r6, [pc, #92]	; (3660 <mbed::SerialBase::SerialBase(PinName, PinName, int)+0x70>)
    3602:	4d18      	ldr	r5, [pc, #96]	; (3664 <mbed::SerialBase::SerialBase(PinName, PinName, int)+0x74>)
    3604:	62c3      	str	r3, [r0, #44]	; 0x2c
    3606:	6042      	str	r2, [r0, #4]
    3608:	6082      	str	r2, [r0, #8]
    360a:	6182      	str	r2, [r0, #24]
    360c:	6282      	str	r2, [r0, #40]	; 0x28
    360e:	000f      	movs	r7, r1
    3610:	300c      	adds	r0, #12
    3612:	a902      	add	r1, sp, #8
    3614:	9505      	str	r5, [sp, #20]
    3616:	9602      	str	r6, [sp, #8]
    3618:	f7ff ff4e 	bl	34b8 <mbed::Callback<void ()>::operator=(mbed::Callback<void ()> const&)>
    361c:	a802      	add	r0, sp, #8
    361e:	f7fc ffc7 	bl	5b0 <mbed::Callback<void ()>::~Callback()>
    3622:	0020      	movs	r0, r4
    3624:	a902      	add	r1, sp, #8
    3626:	301c      	adds	r0, #28
    3628:	9505      	str	r5, [sp, #20]
    362a:	9602      	str	r6, [sp, #8]
    362c:	1d25      	adds	r5, r4, #4
    362e:	f7ff ff43 	bl	34b8 <mbed::Callback<void ()>::operator=(mbed::Callback<void ()> const&)>
    3632:	a802      	add	r0, sp, #8
    3634:	f7fc ffbc 	bl	5b0 <mbed::Callback<void ()>::~Callback()>
    3638:	9a01      	ldr	r2, [sp, #4]
    363a:	0039      	movs	r1, r7
    363c:	0028      	movs	r0, r5
    363e:	f7ff fb03 	bl	2c48 <serial_init>
    3642:	6ae1      	ldr	r1, [r4, #44]	; 0x2c
    3644:	0028      	movs	r0, r5
    3646:	f7ff fa3d 	bl	2ac4 <serial_baud>
    364a:	0028      	movs	r0, r5
    364c:	0022      	movs	r2, r4
    364e:	4906      	ldr	r1, [pc, #24]	; (3668 <mbed::SerialBase::SerialBase(PinName, PinName, int)+0x78>)
    3650:	f7ff fba4 	bl	2d9c <serial_irq_handler>
    3654:	0020      	movs	r0, r4
    3656:	b007      	add	sp, #28
    3658:	bdf0      	pop	{r4, r5, r6, r7, pc}
    365a:	46c0      	nop			; (mov r8, r8)
    365c:	000076f4 	.word	0x000076f4
    3660:	0000357b 	.word	0x0000357b
    3664:	000071e8 	.word	0x000071e8
    3668:	00003581 	.word	0x00003581

0000366c <mbed::SerialBase::attach(mbed::Callback<void ()>, mbed::SerialBase::IrqType)>:
    366c:	b5f0      	push	{r4, r5, r6, r7, lr}
    366e:	000f      	movs	r7, r1
    3670:	0004      	movs	r4, r0
    3672:	0015      	movs	r5, r2
    3674:	6803      	ldr	r3, [r0, #0]
    3676:	b087      	sub	sp, #28
    3678:	681b      	ldr	r3, [r3, #0]
    367a:	4798      	blx	r3
    367c:	f7fd facc 	bl	c18 <core_util_critical_section_enter>
    3680:	68fb      	ldr	r3, [r7, #12]
    3682:	0128      	lsls	r0, r5, #4
    3684:	9301      	str	r3, [sp, #4]
    3686:	1d26      	adds	r6, r4, #4
    3688:	2b00      	cmp	r3, #0
    368a:	d011      	beq.n	36b0 <mbed::SerialBase::attach(mbed::Callback<void ()>, mbed::SerialBase::IrqType)+0x44>
    368c:	300c      	adds	r0, #12
    368e:	1820      	adds	r0, r4, r0
    3690:	0039      	movs	r1, r7
    3692:	f7ff ff11 	bl	34b8 <mbed::Callback<void ()>::operator=(mbed::Callback<void ()> const&)>
    3696:	2201      	movs	r2, #1
    3698:	0029      	movs	r1, r5
    369a:	0030      	movs	r0, r6
    369c:	f7ff fb8a 	bl	2db4 <serial_irq_set>
    36a0:	f7fd fad0 	bl	c44 <core_util_critical_section_exit>
    36a4:	6823      	ldr	r3, [r4, #0]
    36a6:	0020      	movs	r0, r4
    36a8:	685b      	ldr	r3, [r3, #4]
    36aa:	4798      	blx	r3
    36ac:	b007      	add	sp, #28
    36ae:	bdf0      	pop	{r4, r5, r6, r7, pc}
    36b0:	4b06      	ldr	r3, [pc, #24]	; (36cc <mbed::SerialBase::attach(mbed::Callback<void ()>, mbed::SerialBase::IrqType)+0x60>)
    36b2:	300c      	adds	r0, #12
    36b4:	9302      	str	r3, [sp, #8]
    36b6:	4b06      	ldr	r3, [pc, #24]	; (36d0 <mbed::SerialBase::attach(mbed::Callback<void ()>, mbed::SerialBase::IrqType)+0x64>)
    36b8:	a902      	add	r1, sp, #8
    36ba:	1820      	adds	r0, r4, r0
    36bc:	9305      	str	r3, [sp, #20]
    36be:	f7ff fefb 	bl	34b8 <mbed::Callback<void ()>::operator=(mbed::Callback<void ()> const&)>
    36c2:	a802      	add	r0, sp, #8
    36c4:	f7fc ff74 	bl	5b0 <mbed::Callback<void ()>::~Callback()>
    36c8:	9a01      	ldr	r2, [sp, #4]
    36ca:	e7e5      	b.n	3698 <mbed::SerialBase::attach(mbed::Callback<void ()>, mbed::SerialBase::IrqType)+0x2c>
    36cc:	0000357b 	.word	0x0000357b
    36d0:	000071e8 	.word	0x000071e8

000036d4 <mbed::File::close()>:
    36d4:	b510      	push	{r4, lr}
    36d6:	0004      	movs	r4, r0
    36d8:	6900      	ldr	r0, [r0, #16]
    36da:	2800      	cmp	r0, #0
    36dc:	d006      	beq.n	36ec <mbed::File::close()+0x18>
    36de:	6803      	ldr	r3, [r0, #0]
    36e0:	6961      	ldr	r1, [r4, #20]
    36e2:	6a5b      	ldr	r3, [r3, #36]	; 0x24
    36e4:	4798      	blx	r3
    36e6:	2300      	movs	r3, #0
    36e8:	6123      	str	r3, [r4, #16]
    36ea:	bd10      	pop	{r4, pc}
    36ec:	2016      	movs	r0, #22
    36ee:	4240      	negs	r0, r0
    36f0:	e7fb      	b.n	36ea <mbed::File::close()+0x16>

000036f2 <mbed::File::read(void*, unsigned int)>:
    36f2:	b570      	push	{r4, r5, r6, lr}
    36f4:	0004      	movs	r4, r0
    36f6:	6900      	ldr	r0, [r0, #16]
    36f8:	0013      	movs	r3, r2
    36fa:	6802      	ldr	r2, [r0, #0]
    36fc:	6a95      	ldr	r5, [r2, #40]	; 0x28
    36fe:	000a      	movs	r2, r1
    3700:	6961      	ldr	r1, [r4, #20]
    3702:	47a8      	blx	r5
    3704:	bd70      	pop	{r4, r5, r6, pc}

00003706 <mbed::File::write(void const*, unsigned int)>:
    3706:	b570      	push	{r4, r5, r6, lr}
    3708:	0004      	movs	r4, r0
    370a:	6900      	ldr	r0, [r0, #16]
    370c:	0013      	movs	r3, r2
    370e:	6802      	ldr	r2, [r0, #0]
    3710:	6ad5      	ldr	r5, [r2, #44]	; 0x2c
    3712:	000a      	movs	r2, r1
    3714:	6961      	ldr	r1, [r4, #20]
    3716:	47a8      	blx	r5
    3718:	bd70      	pop	{r4, r5, r6, pc}

0000371a <mbed::File::sync()>:
    371a:	6903      	ldr	r3, [r0, #16]
    371c:	b510      	push	{r4, lr}
    371e:	681a      	ldr	r2, [r3, #0]
    3720:	6941      	ldr	r1, [r0, #20]
    3722:	6b12      	ldr	r2, [r2, #48]	; 0x30
    3724:	0018      	movs	r0, r3
    3726:	4790      	blx	r2
    3728:	bd10      	pop	{r4, pc}

0000372a <mbed::File::isatty()>:
    372a:	6903      	ldr	r3, [r0, #16]
    372c:	b510      	push	{r4, lr}
    372e:	681a      	ldr	r2, [r3, #0]
    3730:	6941      	ldr	r1, [r0, #20]
    3732:	6b52      	ldr	r2, [r2, #52]	; 0x34
    3734:	0018      	movs	r0, r3
    3736:	4790      	blx	r2
    3738:	bd10      	pop	{r4, pc}

0000373a <mbed::File::seek(long, int)>:
    373a:	b570      	push	{r4, r5, r6, lr}
    373c:	0004      	movs	r4, r0
    373e:	6900      	ldr	r0, [r0, #16]
    3740:	0013      	movs	r3, r2
    3742:	6802      	ldr	r2, [r0, #0]
    3744:	6b95      	ldr	r5, [r2, #56]	; 0x38
    3746:	000a      	movs	r2, r1
    3748:	6961      	ldr	r1, [r4, #20]
    374a:	47a8      	blx	r5
    374c:	bd70      	pop	{r4, r5, r6, pc}

0000374e <mbed::File::tell()>:
    374e:	6903      	ldr	r3, [r0, #16]
    3750:	b510      	push	{r4, lr}
    3752:	681a      	ldr	r2, [r3, #0]
    3754:	6941      	ldr	r1, [r0, #20]
    3756:	6bd2      	ldr	r2, [r2, #60]	; 0x3c
    3758:	0018      	movs	r0, r3
