
KL25Z/sumobot_drive_mbed.elf:     file format elf32-littlearm
architecture: arm, flags 0x00000112:
EXEC_P, HAS_SYMS, D_PAGED
start address 0x000000c1


Disassembly of section .isr_vector:

00000000 <__isr_vector>:
   0:	20003000 	.word	0x20003000
   4:	000000c1 	.word	0x000000c1
   8:	00002ed3 	.word	0x00002ed3
   c:	00003efb 	.word	0x00003efb
	...
  2c:	00003e03 	.word	0x00003e03
	...
  38:	00003e89 	.word	0x00003e89
  3c:	00003ed1 	.word	0x00003ed1
  40:	00003f03 	.word	0x00003f03
  44:	00003f03 	.word	0x00003f03
  48:	00003f03 	.word	0x00003f03
  4c:	00003f03 	.word	0x00003f03
  50:	00003f03 	.word	0x00003f03
  54:	00003f03 	.word	0x00003f03
  58:	00003f03 	.word	0x00003f03
  5c:	00003f03 	.word	0x00003f03
  60:	00003f03 	.word	0x00003f03
  64:	00003f03 	.word	0x00003f03
  68:	00003f03 	.word	0x00003f03
  6c:	00003f03 	.word	0x00003f03
  70:	00003f03 	.word	0x00003f03
  74:	00003f03 	.word	0x00003f03
  78:	00003f03 	.word	0x00003f03
  7c:	00003f03 	.word	0x00003f03
  80:	00003f03 	.word	0x00003f03
  84:	00003f03 	.word	0x00003f03
  88:	00003f03 	.word	0x00003f03
  8c:	00003f03 	.word	0x00003f03
  90:	00003f03 	.word	0x00003f03
  94:	00003f03 	.word	0x00003f03
  98:	00003f03 	.word	0x00003f03
  9c:	00003f03 	.word	0x00003f03
  a0:	00003f03 	.word	0x00003f03
  a4:	00003f03 	.word	0x00003f03
  a8:	00003f03 	.word	0x00003f03
  ac:	00003f03 	.word	0x00003f03
  b0:	00003f03 	.word	0x00003f03
  b4:	00003f03 	.word	0x00003f03
  b8:	00003f03 	.word	0x00003f03
  bc:	00003f03 	.word	0x00003f03

000000c0 <Reset_Handler>:
  c0:	4907      	ldr	r1, [pc, #28]	; (e0 <Reset_Handler+0x20>)
  c2:	4a08      	ldr	r2, [pc, #32]	; (e4 <Reset_Handler+0x24>)
  c4:	4b08      	ldr	r3, [pc, #32]	; (e8 <Reset_Handler+0x28>)
  c6:	1a9b      	subs	r3, r3, r2
  c8:	dd05      	ble.n	d6 <Reset_Handler+0x16>
  ca:	2400      	movs	r4, #0
  cc:	5908      	ldr	r0, [r1, r4]
  ce:	5110      	str	r0, [r2, r4]
  d0:	3404      	adds	r4, #4
  d2:	429c      	cmp	r4, r3
  d4:	dbfa      	blt.n	cc <Reset_Handler+0xc>
  d6:	4805      	ldr	r0, [pc, #20]	; (ec <Reset_Handler+0x2c>)
  d8:	4780      	blx	r0
  da:	4805      	ldr	r0, [pc, #20]	; (f0 <Reset_Handler+0x30>)
  dc:	4700      	bx	r0
  de:	0000      	.short	0x0000
  e0:	00007a98 	.word	0x00007a98
  e4:	1ffff0c0 	.word	0x1ffff0c0
  e8:	1ffff2c4 	.word	0x1ffff2c4
  ec:	00002ee1 	.word	0x00002ee1
  f0:	00000a5d 	.word	0x00000a5d

Disassembly of section .text:

00000410 <__do_global_dtors_aux>:
     410:	b510      	push	{r4, lr}
     412:	4c06      	ldr	r4, [pc, #24]	; (42c <__do_global_dtors_aux+0x1c>)
     414:	7823      	ldrb	r3, [r4, #0]
     416:	2b00      	cmp	r3, #0
     418:	d107      	bne.n	42a <__do_global_dtors_aux+0x1a>
     41a:	4b05      	ldr	r3, [pc, #20]	; (430 <__do_global_dtors_aux+0x20>)
     41c:	2b00      	cmp	r3, #0
     41e:	d002      	beq.n	426 <__do_global_dtors_aux+0x16>
     420:	4804      	ldr	r0, [pc, #16]	; (434 <__do_global_dtors_aux+0x24>)
     422:	e000      	b.n	426 <__do_global_dtors_aux+0x16>
     424:	bf00      	nop
     426:	2301      	movs	r3, #1
     428:	7023      	strb	r3, [r4, #0]
     42a:	bd10      	pop	{r4, pc}
     42c:	1ffff2c8 	.word	0x1ffff2c8
     430:	00000000 	.word	0x00000000
     434:	00007a8c 	.word	0x00007a8c

00000438 <frame_dummy>:
     438:	4b08      	ldr	r3, [pc, #32]	; (45c <frame_dummy+0x24>)
     43a:	b510      	push	{r4, lr}
     43c:	2b00      	cmp	r3, #0
     43e:	d003      	beq.n	448 <frame_dummy+0x10>
     440:	4907      	ldr	r1, [pc, #28]	; (460 <frame_dummy+0x28>)
     442:	4808      	ldr	r0, [pc, #32]	; (464 <frame_dummy+0x2c>)
     444:	e000      	b.n	448 <frame_dummy+0x10>
     446:	bf00      	nop
     448:	4807      	ldr	r0, [pc, #28]	; (468 <frame_dummy+0x30>)
     44a:	6803      	ldr	r3, [r0, #0]
     44c:	2b00      	cmp	r3, #0
     44e:	d100      	bne.n	452 <frame_dummy+0x1a>
     450:	bd10      	pop	{r4, pc}
     452:	4b06      	ldr	r3, [pc, #24]	; (46c <frame_dummy+0x34>)
     454:	2b00      	cmp	r3, #0
     456:	d0fb      	beq.n	450 <frame_dummy+0x18>
     458:	4798      	blx	r3
     45a:	e7f9      	b.n	450 <frame_dummy+0x18>
     45c:	00000000 	.word	0x00000000
     460:	1ffff2cc 	.word	0x1ffff2cc
     464:	00007a8c 	.word	0x00007a8c
     468:	1ffff2c4 	.word	0x1ffff2c4
     46c:	00000000 	.word	0x00000000

00000470 <void mbed::Callback<void ()>::function_call<void (*)()>(void const*)>:
     470:	b510      	push	{r4, lr}
     472:	6803      	ldr	r3, [r0, #0]
     474:	4798      	blx	r3
     476:	bd10      	pop	{r4, pc}

00000478 <void mbed::Callback<void ()>::function_move<void (*)()>(void*, void const*)>:
     478:	2800      	cmp	r0, #0
     47a:	d001      	beq.n	480 <void mbed::Callback<void ()>::function_move<void (*)()>(void*, void const*)+0x8>
     47c:	680b      	ldr	r3, [r1, #0]
     47e:	6003      	str	r3, [r0, #0]
     480:	4770      	bx	lr

00000482 <void mbed::Callback<void ()>::function_dtor<void (*)()>(void*)>:
     482:	4770      	bx	lr

00000484 <receive_interrupt()>:
     484:	b570      	push	{r4, r5, r6, lr}
     486:	25ff      	movs	r5, #255	; 0xff
     488:	2401      	movs	r4, #1
     48a:	4e1d      	ldr	r6, [pc, #116]	; (500 <receive_interrupt()+0x7c>)
     48c:	0030      	movs	r0, r6
     48e:	f003 f893 	bl	35b8 <mbed::SerialBase::readable()>
     492:	2800      	cmp	r0, #0
     494:	d032      	beq.n	4fc <receive_interrupt()+0x78>
     496:	0030      	movs	r0, r6
     498:	3030      	adds	r0, #48	; 0x30
     49a:	f002 ff33 	bl	3304 <mbed::Stream::getc()>
     49e:	0003      	movs	r3, r0
     4a0:	402b      	ands	r3, r5
     4a2:	2b02      	cmp	r3, #2
     4a4:	d017      	beq.n	4d6 <receive_interrupt()+0x52>
     4a6:	2b03      	cmp	r3, #3
     4a8:	d01e      	beq.n	4e8 <receive_interrupt()+0x64>
     4aa:	4a16      	ldr	r2, [pc, #88]	; (504 <receive_interrupt()+0x80>)
     4ac:	7813      	ldrb	r3, [r2, #0]
     4ae:	2b07      	cmp	r3, #7
     4b0:	dceb      	bgt.n	48a <receive_interrupt()+0x6>
     4b2:	4b15      	ldr	r3, [pc, #84]	; (508 <receive_interrupt()+0x84>)
     4b4:	781b      	ldrb	r3, [r3, #0]
     4b6:	2b00      	cmp	r3, #0
     4b8:	d0e7      	beq.n	48a <receive_interrupt()+0x6>
     4ba:	4b14      	ldr	r3, [pc, #80]	; (50c <receive_interrupt()+0x88>)
     4bc:	781b      	ldrb	r3, [r3, #0]
     4be:	2b00      	cmp	r3, #0
     4c0:	d1e3      	bne.n	48a <receive_interrupt()+0x6>
     4c2:	7813      	ldrb	r3, [r2, #0]
     4c4:	4912      	ldr	r1, [pc, #72]	; (510 <receive_interrupt()+0x8c>)
     4c6:	b2db      	uxtb	r3, r3
     4c8:	b2c0      	uxtb	r0, r0
     4ca:	54c8      	strb	r0, [r1, r3]
     4cc:	7813      	ldrb	r3, [r2, #0]
     4ce:	3301      	adds	r3, #1
     4d0:	b2db      	uxtb	r3, r3
     4d2:	7013      	strb	r3, [r2, #0]
     4d4:	e7d9      	b.n	48a <receive_interrupt()+0x6>
     4d6:	4a0c      	ldr	r2, [pc, #48]	; (508 <receive_interrupt()+0x84>)
     4d8:	7813      	ldrb	r3, [r2, #0]
     4da:	b2db      	uxtb	r3, r3
     4dc:	2b00      	cmp	r3, #0
     4de:	d1d4      	bne.n	48a <receive_interrupt()+0x6>
     4e0:	4908      	ldr	r1, [pc, #32]	; (504 <receive_interrupt()+0x80>)
     4e2:	700b      	strb	r3, [r1, #0]
     4e4:	7014      	strb	r4, [r2, #0]
     4e6:	e7d0      	b.n	48a <receive_interrupt()+0x6>
     4e8:	4b07      	ldr	r3, [pc, #28]	; (508 <receive_interrupt()+0x84>)
     4ea:	781b      	ldrb	r3, [r3, #0]
     4ec:	2b00      	cmp	r3, #0
     4ee:	d0cc      	beq.n	48a <receive_interrupt()+0x6>
     4f0:	4b06      	ldr	r3, [pc, #24]	; (50c <receive_interrupt()+0x88>)
     4f2:	781a      	ldrb	r2, [r3, #0]
     4f4:	2a00      	cmp	r2, #0
     4f6:	d1c8      	bne.n	48a <receive_interrupt()+0x6>
     4f8:	701c      	strb	r4, [r3, #0]
     4fa:	e7c6      	b.n	48a <receive_interrupt()+0x6>
     4fc:	bd70      	pop	{r4, r5, r6, pc}
     4fe:	46c0      	nop			; (mov r8, r8)
     500:	1ffff3b0 	.word	0x1ffff3b0
     504:	1ffff3ac 	.word	0x1ffff3ac
     508:	1ffff418 	.word	0x1ffff418
     50c:	1ffff2f0 	.word	0x1ffff2f0
     510:	1ffff3a4 	.word	0x1ffff3a4

00000514 <process_msg()>:
     514:	b570      	push	{r4, r5, r6, lr}
     516:	2400      	movs	r4, #0
     518:	4b1e      	ldr	r3, [pc, #120]	; (594 <process_msg()+0x80>)
     51a:	781b      	ldrb	r3, [r3, #0]
     51c:	429c      	cmp	r4, r3
     51e:	da33      	bge.n	588 <process_msg()+0x74>
     520:	4a1d      	ldr	r2, [pc, #116]	; (598 <process_msg()+0x84>)
     522:	5d13      	ldrb	r3, [r2, r4]
     524:	b2db      	uxtb	r3, r3
     526:	2b04      	cmp	r3, #4
     528:	d004      	beq.n	534 <process_msg()+0x20>
     52a:	2b05      	cmp	r3, #5
     52c:	d019      	beq.n	562 <process_msg()+0x4e>
     52e:	3402      	adds	r4, #2
     530:	b2e4      	uxtb	r4, r4
     532:	e7f1      	b.n	518 <process_msg()+0x4>
     534:	1c63      	adds	r3, r4, #1
     536:	5cd5      	ldrb	r5, [r2, r3]
     538:	f000 fb6e 	bl	c18 <core_util_critical_section_enter>
     53c:	b2ed      	uxtb	r5, r5
     53e:	0028      	movs	r0, r5
     540:	f004 fbce 	bl	4ce0 <__aeabi_ui2f>
     544:	4915      	ldr	r1, [pc, #84]	; (59c <process_msg()+0x88>)
     546:	f003 feaf 	bl	42a8 <__aeabi_fdiv>
     54a:	1c01      	adds	r1, r0, #0
     54c:	20fe      	movs	r0, #254	; 0xfe
     54e:	0580      	lsls	r0, r0, #22
     550:	f004 f9ba 	bl	48c8 <__aeabi_fsub>
     554:	1c01      	adds	r1, r0, #0
     556:	4812      	ldr	r0, [pc, #72]	; (5a0 <process_msg()+0x8c>)
     558:	f002 f8be 	bl	26d8 <pwmout_write>
     55c:	f000 fb72 	bl	c44 <core_util_critical_section_exit>
     560:	e7e5      	b.n	52e <process_msg()+0x1a>
     562:	1c63      	adds	r3, r4, #1
     564:	5cd5      	ldrb	r5, [r2, r3]
     566:	f000 fb57 	bl	c18 <core_util_critical_section_enter>
     56a:	b2ed      	uxtb	r5, r5
     56c:	0028      	movs	r0, r5
     56e:	f004 fbb7 	bl	4ce0 <__aeabi_ui2f>
     572:	490a      	ldr	r1, [pc, #40]	; (59c <process_msg()+0x88>)
     574:	f003 fe98 	bl	42a8 <__aeabi_fdiv>
     578:	1c01      	adds	r1, r0, #0
     57a:	20fe      	movs	r0, #254	; 0xfe
     57c:	0580      	lsls	r0, r0, #22
     57e:	f004 f9a3 	bl	48c8 <__aeabi_fsub>
     582:	1c01      	adds	r1, r0, #0
     584:	4807      	ldr	r0, [pc, #28]	; (5a4 <process_msg()+0x90>)
     586:	e7e7      	b.n	558 <process_msg()+0x44>
     588:	2300      	movs	r3, #0
     58a:	4a07      	ldr	r2, [pc, #28]	; (5a8 <process_msg()+0x94>)
     58c:	7013      	strb	r3, [r2, #0]
     58e:	4a07      	ldr	r2, [pc, #28]	; (5ac <process_msg()+0x98>)
     590:	7013      	strb	r3, [r2, #0]
     592:	bd70      	pop	{r4, r5, r6, pc}
     594:	1ffff3ac 	.word	0x1ffff3ac
     598:	1ffff3a4 	.word	0x1ffff3a4
     59c:	42c80000 	.word	0x42c80000
     5a0:	1ffff40c 	.word	0x1ffff40c
     5a4:	1ffff2e4 	.word	0x1ffff2e4
     5a8:	1ffff418 	.word	0x1ffff418
     5ac:	1ffff2f0 	.word	0x1ffff2f0

000005b0 <mbed::Callback<void ()>::~Callback()>:
     5b0:	68c3      	ldr	r3, [r0, #12]
     5b2:	b510      	push	{r4, lr}
     5b4:	0004      	movs	r4, r0
     5b6:	2b00      	cmp	r3, #0
     5b8:	d001      	beq.n	5be <mbed::Callback<void ()>::~Callback()+0xe>
     5ba:	689b      	ldr	r3, [r3, #8]
     5bc:	4798      	blx	r3
     5be:	0020      	movs	r0, r4
     5c0:	bd10      	pop	{r4, pc}
	...

000005c4 <mbed::SerialBase::~SerialBase()>:
     5c4:	b570      	push	{r4, r5, r6, lr}
     5c6:	0006      	movs	r6, r0
     5c8:	4b08      	ldr	r3, [pc, #32]	; (5ec <mbed::SerialBase::~SerialBase()+0x28>)
     5ca:	360c      	adds	r6, #12
     5cc:	0004      	movs	r4, r0
     5ce:	6003      	str	r3, [r0, #0]
     5d0:	2e00      	cmp	r6, #0
     5d2:	d008      	beq.n	5e6 <mbed::SerialBase::~SerialBase()+0x22>
     5d4:	0005      	movs	r5, r0
     5d6:	352c      	adds	r5, #44	; 0x2c
     5d8:	42b5      	cmp	r5, r6
     5da:	d004      	beq.n	5e6 <mbed::SerialBase::~SerialBase()+0x22>
     5dc:	3d10      	subs	r5, #16
     5de:	0028      	movs	r0, r5
     5e0:	f7ff ffe6 	bl	5b0 <mbed::Callback<void ()>::~Callback()>
     5e4:	e7f8      	b.n	5d8 <mbed::SerialBase::~SerialBase()+0x14>
     5e6:	0020      	movs	r0, r4
     5e8:	bd70      	pop	{r4, r5, r6, pc}
     5ea:	46c0      	nop			; (mov r8, r8)
     5ec:	000076fc 	.word	0x000076fc

000005f0 <mbed::SerialBase::~SerialBase()>:
     5f0:	b510      	push	{r4, lr}
     5f2:	0004      	movs	r4, r0
     5f4:	f7ff ffe6 	bl	5c4 <mbed::SerialBase::~SerialBase()>
     5f8:	0020      	movs	r0, r4
     5fa:	f003 faaa 	bl	3b52 <operator delete(void*)>
     5fe:	0020      	movs	r0, r4
     600:	bd10      	pop	{r4, pc}
	...

00000604 <mbed::Serial::~Serial()>:
     604:	b510      	push	{r4, lr}
     606:	0004      	movs	r4, r0
     608:	4b07      	ldr	r3, [pc, #28]	; (628 <mbed::Serial::~Serial()+0x24>)
     60a:	6003      	str	r3, [r0, #0]
     60c:	4b07      	ldr	r3, [pc, #28]	; (62c <mbed::Serial::~Serial()+0x28>)
     60e:	6303      	str	r3, [r0, #48]	; 0x30
     610:	3044      	adds	r0, #68	; 0x44
     612:	f003 fbbf 	bl	3d94 <rtos::Mutex::~Mutex()>
     616:	0020      	movs	r0, r4
     618:	3030      	adds	r0, #48	; 0x30
     61a:	f002 fe5f 	bl	32dc <mbed::Stream::~Stream()>
     61e:	0020      	movs	r0, r4
     620:	f7ff ffd0 	bl	5c4 <mbed::SerialBase::~SerialBase()>
     624:	0020      	movs	r0, r4
     626:	bd10      	pop	{r4, pc}
     628:	000075c4 	.word	0x000075c4
     62c:	000075e4 	.word	0x000075e4

00000630 <non-virtual thunk to mbed::Serial::~Serial()>:
     630:	b408      	push	{r3}
     632:	4b02      	ldr	r3, [pc, #8]	; (63c <non-virtual thunk to mbed::Serial::~Serial()+0xc>)
     634:	469c      	mov	r12, r3
     636:	3830      	subs	r0, #48	; 0x30
     638:	bc08      	pop	{r3}
     63a:	4760      	bx	r12
     63c:	00000605 	.word	0x00000605

00000640 <main>:
     640:	2200      	movs	r2, #0
     642:	b530      	push	{r4, r5, lr}
     644:	4b17      	ldr	r3, [pc, #92]	; (6a4 <main+0x64>)
     646:	b085      	sub	sp, #20
     648:	701a      	strb	r2, [r3, #0]
     64a:	4b17      	ldr	r3, [pc, #92]	; (6a8 <main+0x68>)
     64c:	4d17      	ldr	r5, [pc, #92]	; (6ac <main+0x6c>)
     64e:	4c18      	ldr	r4, [pc, #96]	; (6b0 <main+0x70>)
     650:	9300      	str	r3, [sp, #0]
     652:	4b18      	ldr	r3, [pc, #96]	; (6b4 <main+0x74>)
     654:	4669      	mov	r1, sp
     656:	0028      	movs	r0, r5
     658:	7022      	strb	r2, [r4, #0]
     65a:	9303      	str	r3, [sp, #12]
     65c:	f003 f806 	bl	366c <mbed::SerialBase::attach(mbed::Callback<void ()>, mbed::SerialBase::IrqType)>
     660:	4668      	mov	r0, sp
     662:	f7ff ffa5 	bl	5b0 <mbed::Callback<void ()>::~Callback()>
     666:	4914      	ldr	r1, [pc, #80]	; (6b8 <main+0x78>)
     668:	4814      	ldr	r0, [pc, #80]	; (6bc <main+0x7c>)
     66a:	f002 fe5d 	bl	3328 <mbed::Stream::printf(char const*, ...)>
     66e:	2196      	movs	r1, #150	; 0x96
     670:	0028      	movs	r0, r5
     672:	0189      	lsls	r1, r1, #6
     674:	f002 ff90 	bl	3598 <mbed::SerialBase::baud(int)>
     678:	f000 face 	bl	c18 <core_util_critical_section_enter>
     67c:	4910      	ldr	r1, [pc, #64]	; (6c0 <main+0x80>)
     67e:	4811      	ldr	r0, [pc, #68]	; (6c4 <main+0x84>)
     680:	f002 f884 	bl	278c <pwmout_period>
     684:	f000 fade 	bl	c44 <core_util_critical_section_exit>
     688:	f000 fac6 	bl	c18 <core_util_critical_section_enter>
     68c:	490c      	ldr	r1, [pc, #48]	; (6c0 <main+0x80>)
     68e:	480e      	ldr	r0, [pc, #56]	; (6c8 <main+0x88>)
     690:	f002 f87c 	bl	278c <pwmout_period>
     694:	f000 fad6 	bl	c44 <core_util_critical_section_exit>
     698:	7823      	ldrb	r3, [r4, #0]
     69a:	2b00      	cmp	r3, #0
     69c:	d0fc      	beq.n	698 <main+0x58>
     69e:	f7ff ff39 	bl	514 <process_msg()>
     6a2:	e7f9      	b.n	698 <main+0x58>
     6a4:	1ffff418 	.word	0x1ffff418
     6a8:	00000485 	.word	0x00000485
     6ac:	1ffff3b0 	.word	0x1ffff3b0
     6b0:	1ffff2f0 	.word	0x1ffff2f0
     6b4:	000071e8 	.word	0x000071e8
     6b8:	000071f4 	.word	0x000071f4
     6bc:	1ffff2f4 	.word	0x1ffff2f4
     6c0:	38d1b717 	.word	0x38d1b717
     6c4:	1ffff40c 	.word	0x1ffff40c
     6c8:	1ffff2e4 	.word	0x1ffff2e4

000006cc <mbed::Serial::~Serial()>:
     6cc:	b510      	push	{r4, lr}
     6ce:	0004      	movs	r4, r0
     6d0:	f7ff ff98 	bl	604 <mbed::Serial::~Serial()>
     6d4:	0020      	movs	r0, r4
     6d6:	f003 fa3c 	bl	3b52 <operator delete(void*)>
     6da:	0020      	movs	r0, r4
     6dc:	bd10      	pop	{r4, pc}

000006de <non-virtual thunk to mbed::Serial::~Serial()>:
     6de:	b408      	push	{r3}
     6e0:	4b02      	ldr	r3, [pc, #8]	; (6ec <non-virtual thunk to mbed::Serial::~Serial()+0xe>)
     6e2:	469c      	mov	r12, r3
     6e4:	3830      	subs	r0, #48	; 0x30
     6e6:	bc08      	pop	{r3}
     6e8:	4760      	bx	r12
     6ea:	46c0      	nop			; (mov r8, r8)
     6ec:	000006cd 	.word	0x000006cd

000006f0 <_GLOBAL__sub_I_pc>:
     6f0:	2396      	movs	r3, #150	; 0x96
     6f2:	b530      	push	{r4, r5, lr}
     6f4:	4c1b      	ldr	r4, [pc, #108]	; (764 <_GLOBAL__sub_I_pc+0x74>)
     6f6:	b085      	sub	sp, #20
     6f8:	019b      	lsls	r3, r3, #6
     6fa:	9300      	str	r3, [sp, #0]
     6fc:	2204      	movs	r2, #4
     6fe:	2300      	movs	r3, #0
     700:	2108      	movs	r1, #8
     702:	0020      	movs	r0, r4
     704:	f002 fc8e 	bl	3024 <mbed::Serial::Serial(PinName, PinName, char const*, int)>
     708:	4d17      	ldr	r5, [pc, #92]	; (768 <_GLOBAL__sub_I_pc+0x78>)
     70a:	4918      	ldr	r1, [pc, #96]	; (76c <_GLOBAL__sub_I_pc+0x7c>)
     70c:	002a      	movs	r2, r5
     70e:	0020      	movs	r0, r4
     710:	f003 f9ee 	bl	3af0 <__aeabi_atexit>
     714:	f000 fa80 	bl	c18 <core_util_critical_section_enter>
     718:	4915      	ldr	r1, [pc, #84]	; (770 <_GLOBAL__sub_I_pc+0x80>)
     71a:	4816      	ldr	r0, [pc, #88]	; (774 <_GLOBAL__sub_I_pc+0x84>)
     71c:	f002 f846 	bl	27ac <pwmout_init>
     720:	f000 fa90 	bl	c44 <core_util_critical_section_exit>
     724:	f000 fa78 	bl	c18 <core_util_critical_section_enter>
     728:	4913      	ldr	r1, [pc, #76]	; (778 <_GLOBAL__sub_I_pc+0x88>)
     72a:	4814      	ldr	r0, [pc, #80]	; (77c <_GLOBAL__sub_I_pc+0x8c>)
     72c:	f002 f83e 	bl	27ac <pwmout_init>
     730:	f000 fa88 	bl	c44 <core_util_critical_section_exit>
     734:	2300      	movs	r3, #0
     736:	9303      	str	r3, [sp, #12]
     738:	23c0      	movs	r3, #192	; 0xc0
     73a:	019b      	lsls	r3, r3, #6
     73c:	9302      	str	r3, [sp, #8]
     73e:	4b10      	ldr	r3, [pc, #64]	; (780 <_GLOBAL__sub_I_pc+0x90>)
     740:	4c10      	ldr	r4, [pc, #64]	; (784 <_GLOBAL__sub_I_pc+0x94>)
     742:	9301      	str	r3, [sp, #4]
     744:	4b10      	ldr	r3, [pc, #64]	; (788 <_GLOBAL__sub_I_pc+0x98>)
     746:	4a11      	ldr	r2, [pc, #68]	; (78c <_GLOBAL__sub_I_pc+0x9c>)
     748:	9300      	str	r3, [sp, #0]
     74a:	4911      	ldr	r1, [pc, #68]	; (790 <_GLOBAL__sub_I_pc+0xa0>)
     74c:	4b11      	ldr	r3, [pc, #68]	; (794 <_GLOBAL__sub_I_pc+0xa4>)
     74e:	0020      	movs	r0, r4
     750:	f000 f894 	bl	87c <TextLCD::TextLCD(PinName, PinName, PinName, PinName, PinName, PinName, TextLCD::LCDType)>
     754:	002a      	movs	r2, r5
     756:	4910      	ldr	r1, [pc, #64]	; (798 <_GLOBAL__sub_I_pc+0xa8>)
     758:	0020      	movs	r0, r4
     75a:	f003 f9c9 	bl	3af0 <__aeabi_atexit>
     75e:	b005      	add	sp, #20
     760:	bd30      	pop	{r4, r5, pc}
     762:	46c0      	nop			; (mov r8, r8)
     764:	1ffff3b0 	.word	0x1ffff3b0
     768:	1ffff0c0 	.word	0x1ffff0c0
     76c:	00000605 	.word	0x00000605
     770:	00001048 	.word	0x00001048
     774:	1ffff40c 	.word	0x1ffff40c
     778:	0000104c 	.word	0x0000104c
     77c:	1ffff2e4 	.word	0x1ffff2e4
     780:	00003008 	.word	0x00003008
     784:	1ffff2f4 	.word	0x1ffff2f4
     788:	0000300c 	.word	0x0000300c
     78c:	0000301c 	.word	0x0000301c
     790:	00003018 	.word	0x00003018
     794:	00003004 	.word	0x00003004
     798:	0000079d 	.word	0x0000079d

0000079c <TextLCD::~TextLCD()>:
     79c:	b510      	push	{r4, lr}
     79e:	0004      	movs	r4, r0
     7a0:	4b04      	ldr	r3, [pc, #16]	; (7b4 <TextLCD::~TextLCD()+0x18>)
     7a2:	6003      	str	r3, [r0, #0]
     7a4:	3044      	adds	r0, #68	; 0x44
     7a6:	f002 fc57 	bl	3058 <mbed::BusOut::~BusOut()>
     7aa:	0020      	movs	r0, r4
     7ac:	f002 fd96 	bl	32dc <mbed::Stream::~Stream()>
     7b0:	0020      	movs	r0, r4
     7b2:	bd10      	pop	{r4, pc}
     7b4:	0000720c 	.word	0x0000720c

000007b8 <TextLCD::~TextLCD()>:
     7b8:	b510      	push	{r4, lr}
     7ba:	0004      	movs	r4, r0
     7bc:	f7ff ffee 	bl	79c <TextLCD::~TextLCD()>
     7c0:	0020      	movs	r0, r4
     7c2:	f003 f9c6 	bl	3b52 <operator delete(void*)>
     7c6:	0020      	movs	r0, r4
     7c8:	bd10      	pop	{r4, pc}

000007ca <mbed::FileLike::lseek(long, int)>:
     7ca:	b510      	push	{r4, lr}
     7cc:	6803      	ldr	r3, [r0, #0]
     7ce:	69db      	ldr	r3, [r3, #28]
     7d0:	4798      	blx	r3
     7d2:	bd10      	pop	{r4, pc}

000007d4 <mbed::FileLike::fsync()>:
     7d4:	b510      	push	{r4, lr}
     7d6:	6803      	ldr	r3, [r0, #0]
     7d8:	695b      	ldr	r3, [r3, #20]
     7da:	4798      	blx	r3
     7dc:	bd10      	pop	{r4, pc}

000007de <mbed::FileLike::flen()>:
     7de:	b510      	push	{r4, lr}
     7e0:	6803      	ldr	r3, [r0, #0]
     7e2:	6a9b      	ldr	r3, [r3, #40]	; 0x28
     7e4:	4798      	blx	r3
     7e6:	bd10      	pop	{r4, pc}

000007e8 <mbed::FileLike::lock()>:
     7e8:	4770      	bx	lr

000007ea <mbed::FileLike::unlock()>:
     7ea:	4770      	bx	lr

000007ec <TextLCD::_getc()>:
     7ec:	2001      	movs	r0, #1
     7ee:	4240      	negs	r0, r0
     7f0:	4770      	bx	lr
	...

000007f4 <TextLCD::writeByte(int)>:
     7f4:	b5f8      	push	{r3, r4, r5, r6, r7, lr}
     7f6:	0006      	movs	r6, r0
     7f8:	0004      	movs	r4, r0
     7fa:	000f      	movs	r7, r1
     7fc:	4d11      	ldr	r5, [pc, #68]	; (844 <TextLCD::writeByte(int)+0x50>)
     7fe:	3644      	adds	r6, #68	; 0x44
     800:	1109      	asrs	r1, r1, #4
     802:	0030      	movs	r0, r6
     804:	f002 fd06 	bl	3214 <mbed::BusOut::operator=(int)>
     808:	1c28      	adds	r0, r5, #0
     80a:	f003 f821 	bl	3850 <wait>
     80e:	6be3      	ldr	r3, [r4, #60]	; 0x3c
     810:	6b22      	ldr	r2, [r4, #48]	; 0x30
     812:	1c28      	adds	r0, r5, #0
     814:	601a      	str	r2, [r3, #0]
     816:	f003 f81b 	bl	3850 <wait>
     81a:	6ba3      	ldr	r3, [r4, #56]	; 0x38
     81c:	6b22      	ldr	r2, [r4, #48]	; 0x30
     81e:	0039      	movs	r1, r7
     820:	601a      	str	r2, [r3, #0]
     822:	0030      	movs	r0, r6
     824:	f002 fcf6 	bl	3214 <mbed::BusOut::operator=(int)>
     828:	1c28      	adds	r0, r5, #0
     82a:	f003 f811 	bl	3850 <wait>
     82e:	6be3      	ldr	r3, [r4, #60]	; 0x3c
     830:	6b22      	ldr	r2, [r4, #48]	; 0x30
     832:	1c28      	adds	r0, r5, #0
     834:	601a      	str	r2, [r3, #0]
     836:	f003 f80b 	bl	3850 <wait>
     83a:	6ba3      	ldr	r3, [r4, #56]	; 0x38
     83c:	6b22      	ldr	r2, [r4, #48]	; 0x30
     83e:	601a      	str	r2, [r3, #0]
     840:	bdf8      	pop	{r3, r4, r5, r6, r7, pc}
     842:	46c0      	nop			; (mov r8, r8)
     844:	3827c5ac 	.word	0x3827c5ac

00000848 <TextLCD::writeCommand(int)>:
     848:	b510      	push	{r4, lr}
     84a:	6a43      	ldr	r3, [r0, #36]	; 0x24
     84c:	6982      	ldr	r2, [r0, #24]
     84e:	601a      	str	r2, [r3, #0]
     850:	f7ff ffd0 	bl	7f4 <TextLCD::writeByte(int)>
     854:	bd10      	pop	{r4, pc}
	...

00000858 <TextLCD::cls()>:
     858:	b510      	push	{r4, lr}
     85a:	0004      	movs	r4, r0
     85c:	2101      	movs	r1, #1
     85e:	f7ff fff3 	bl	848 <TextLCD::writeCommand(int)>
     862:	4805      	ldr	r0, [pc, #20]	; (878 <TextLCD::cls()+0x20>)
     864:	f002 fff4 	bl	3850 <wait>
     868:	0022      	movs	r2, r4
     86a:	2300      	movs	r3, #0
     86c:	32a8      	adds	r2, #168	; 0xa8
     86e:	34ac      	adds	r4, #172	; 0xac
     870:	6013      	str	r3, [r2, #0]
     872:	6023      	str	r3, [r4, #0]
     874:	bd10      	pop	{r4, pc}
     876:	46c0      	nop			; (mov r8, r8)
     878:	3ad6f545 	.word	0x3ad6f545

0000087c <TextLCD::TextLCD(PinName, PinName, PinName, PinName, PinName, PinName, TextLCD::LCDType)>:
     87c:	b5f0      	push	{r4, r5, r6, r7, lr}
     87e:	0004      	movs	r4, r0
     880:	0025      	movs	r5, r4
     882:	000f      	movs	r7, r1
     884:	0016      	movs	r6, r2
     886:	b095      	sub	sp, #84	; 0x54
     888:	930f      	str	r3, [sp, #60]	; 0x3c
     88a:	ab1a      	add	r3, sp, #104	; 0x68
     88c:	2200      	movs	r2, #0
     88e:	5e9b      	ldrsh	r3, [r3, r2]
     890:	2100      	movs	r1, #0
     892:	9310      	str	r3, [sp, #64]	; 0x40
     894:	ab1b      	add	r3, sp, #108	; 0x6c
     896:	2200      	movs	r2, #0
     898:	5e9b      	ldrsh	r3, [r3, r2]
     89a:	3514      	adds	r5, #20
     89c:	9311      	str	r3, [sp, #68]	; 0x44
     89e:	ab1c      	add	r3, sp, #112	; 0x70
     8a0:	2200      	movs	r2, #0
     8a2:	5e9b      	ldrsh	r3, [r3, r2]
     8a4:	9312      	str	r3, [sp, #72]	; 0x48
     8a6:	ab1d      	add	r3, sp, #116	; 0x74
     8a8:	781b      	ldrb	r3, [r3, #0]
     8aa:	9313      	str	r3, [sp, #76]	; 0x4c
     8ac:	f002 fcf6 	bl	329c <mbed::Stream::Stream(char const*)>
     8b0:	4b30      	ldr	r3, [pc, #192]	; (974 <TextLCD::TextLCD(PinName, PinName, PinName, PinName, PinName, PinName, TextLCD::LCDType)+0xf8>)
     8b2:	2218      	movs	r2, #24
     8b4:	3308      	adds	r3, #8
     8b6:	6023      	str	r3, [r4, #0]
     8b8:	2100      	movs	r1, #0
     8ba:	0028      	movs	r0, r5
     8bc:	f004 fe80 	bl	55c0 <memset>
     8c0:	0028      	movs	r0, r5
     8c2:	0039      	movs	r1, r7
     8c4:	3518      	adds	r5, #24
     8c6:	f000 f924 	bl	b12 <gpio_init_out>
     8ca:	2218      	movs	r2, #24
     8cc:	2100      	movs	r1, #0
     8ce:	0028      	movs	r0, r5
     8d0:	f004 fe76 	bl	55c0 <memset>
     8d4:	0028      	movs	r0, r5
     8d6:	0031      	movs	r1, r6
     8d8:	f000 f91b 	bl	b12 <gpio_init_out>
     8dc:	2301      	movs	r3, #1
     8de:	0020      	movs	r0, r4
     8e0:	425b      	negs	r3, r3
     8e2:	930c      	str	r3, [sp, #48]	; 0x30
     8e4:	930b      	str	r3, [sp, #44]	; 0x2c
     8e6:	930a      	str	r3, [sp, #40]	; 0x28
     8e8:	9309      	str	r3, [sp, #36]	; 0x24
     8ea:	9308      	str	r3, [sp, #32]
     8ec:	9307      	str	r3, [sp, #28]
     8ee:	9306      	str	r3, [sp, #24]
     8f0:	9305      	str	r3, [sp, #20]
     8f2:	9304      	str	r3, [sp, #16]
     8f4:	9303      	str	r3, [sp, #12]
     8f6:	9302      	str	r3, [sp, #8]
     8f8:	9301      	str	r3, [sp, #4]
     8fa:	9b12      	ldr	r3, [sp, #72]	; 0x48
     8fc:	9a10      	ldr	r2, [sp, #64]	; 0x40
     8fe:	9300      	str	r3, [sp, #0]
     900:	990f      	ldr	r1, [sp, #60]	; 0x3c
     902:	9b11      	ldr	r3, [sp, #68]	; 0x44
     904:	3044      	adds	r0, #68	; 0x44
     906:	f002 fbd5 	bl	30b4 <mbed::BusOut::BusOut(PinName, PinName, PinName, PinName, PinName, PinName, PinName, PinName, PinName, PinName, PinName, PinName, PinName, PinName, PinName, PinName)>
     90a:	214c      	movs	r1, #76	; 0x4c
     90c:	466a      	mov	r2, sp
     90e:	0023      	movs	r3, r4
     910:	1852      	adds	r2, r2, r1
     912:	7812      	ldrb	r2, [r2, #0]
     914:	33a4      	adds	r3, #164	; 0xa4
     916:	701a      	strb	r2, [r3, #0]
     918:	6ba3      	ldr	r3, [r4, #56]	; 0x38
     91a:	6b22      	ldr	r2, [r4, #48]	; 0x30
     91c:	4816      	ldr	r0, [pc, #88]	; (978 <TextLCD::TextLCD(PinName, PinName, PinName, PinName, PinName, PinName, TextLCD::LCDType)+0xfc>)
     91e:	601a      	str	r2, [r3, #0]
     920:	69a2      	ldr	r2, [r4, #24]
     922:	6a63      	ldr	r3, [r4, #36]	; 0x24
     924:	2503      	movs	r5, #3
     926:	601a      	str	r2, [r3, #0]
     928:	f002 ff92 	bl	3850 <wait>
     92c:	2103      	movs	r1, #3
     92e:	0020      	movs	r0, r4
     930:	f7ff ff60 	bl	7f4 <TextLCD::writeByte(int)>
     934:	3d01      	subs	r5, #1
     936:	4811      	ldr	r0, [pc, #68]	; (97c <TextLCD::TextLCD(PinName, PinName, PinName, PinName, PinName, PinName, TextLCD::LCDType)+0x100>)
     938:	f002 ff8a 	bl	3850 <wait>
     93c:	2d00      	cmp	r5, #0
     93e:	d1f5      	bne.n	92c <TextLCD::TextLCD(PinName, PinName, PinName, PinName, PinName, PinName, TextLCD::LCDType)+0xb0>
     940:	2102      	movs	r1, #2
     942:	0020      	movs	r0, r4
     944:	f7ff ff56 	bl	7f4 <TextLCD::writeByte(int)>
     948:	480d      	ldr	r0, [pc, #52]	; (980 <TextLCD::TextLCD(PinName, PinName, PinName, PinName, PinName, PinName, TextLCD::LCDType)+0x104>)
     94a:	f002 ff81 	bl	3850 <wait>
     94e:	0020      	movs	r0, r4
     950:	2128      	movs	r1, #40	; 0x28
     952:	f7ff ff79 	bl	848 <TextLCD::writeCommand(int)>
     956:	0020      	movs	r0, r4
     958:	210c      	movs	r1, #12
     95a:	f7ff ff75 	bl	848 <TextLCD::writeCommand(int)>
     95e:	2106      	movs	r1, #6
     960:	0020      	movs	r0, r4
     962:	f7ff ff71 	bl	848 <TextLCD::writeCommand(int)>
     966:	0020      	movs	r0, r4
     968:	f7ff ff76 	bl	858 <TextLCD::cls()>
     96c:	0020      	movs	r0, r4
     96e:	b015      	add	sp, #84	; 0x54
     970:	bdf0      	pop	{r4, r5, r6, r7, pc}
     972:	46c0      	nop			; (mov r8, r8)
     974:	00007204 	.word	0x00007204
     978:	3c75c28f 	.word	0x3c75c28f
     97c:	3ad6f545 	.word	0x3ad6f545
     980:	3827c5ac 	.word	0x3827c5ac

00000984 <TextLCD::writeData(int)>:
     984:	b510      	push	{r4, lr}
     986:	6a03      	ldr	r3, [r0, #32]
     988:	6982      	ldr	r2, [r0, #24]
     98a:	601a      	str	r2, [r3, #0]
     98c:	f7ff ff32 	bl	7f4 <TextLCD::writeByte(int)>
     990:	bd10      	pop	{r4, pc}

00000992 <TextLCD::address(int, int)>:
     992:	b500      	push	{lr}
     994:	30a4      	adds	r0, #164	; 0xa4
     996:	7803      	ldrb	r3, [r0, #0]
     998:	2b01      	cmp	r3, #1
     99a:	d011      	beq.n	9c0 <TextLCD::address(int, int)+0x2e>
     99c:	2b03      	cmp	r3, #3
     99e:	d114      	bne.n	9ca <TextLCD::address(int, int)+0x38>
     9a0:	2a03      	cmp	r2, #3
     9a2:	d80d      	bhi.n	9c0 <TextLCD::address(int, int)+0x2e>
     9a4:	0010      	movs	r0, r2
     9a6:	f003 faad 	bl	3f04 <__gnu_thumb1_case_uqi>
     9aa:	0502      	.short	0x0502
     9ac:	0907      	.short	0x0907
     9ae:	3180      	adds	r1, #128	; 0x80
     9b0:	0008      	movs	r0, r1
     9b2:	bd00      	pop	{pc}
     9b4:	31c0      	adds	r1, #192	; 0xc0
     9b6:	e7fb      	b.n	9b0 <TextLCD::address(int, int)+0x1e>
     9b8:	3194      	adds	r1, #148	; 0x94
     9ba:	e7f9      	b.n	9b0 <TextLCD::address(int, int)+0x1e>
     9bc:	31d4      	adds	r1, #212	; 0xd4
     9be:	e7f7      	b.n	9b0 <TextLCD::address(int, int)+0x1e>
     9c0:	2028      	movs	r0, #40	; 0x28
     9c2:	4350      	muls	r0, r2
     9c4:	3080      	adds	r0, #128	; 0x80
     9c6:	1840      	adds	r0, r0, r1
     9c8:	e7f3      	b.n	9b2 <TextLCD::address(int, int)+0x20>
     9ca:	3202      	adds	r2, #2
     9cc:	0192      	lsls	r2, r2, #6
     9ce:	1850      	adds	r0, r2, r1
     9d0:	e7ef      	b.n	9b2 <TextLCD::address(int, int)+0x20>

000009d2 <TextLCD::character(int, int, int)>:
     9d2:	b570      	push	{r4, r5, r6, lr}
     9d4:	001d      	movs	r5, r3
     9d6:	0004      	movs	r4, r0
     9d8:	f7ff ffdb 	bl	992 <TextLCD::address(int, int)>
     9dc:	0001      	movs	r1, r0
     9de:	0020      	movs	r0, r4
     9e0:	f7ff ff32 	bl	848 <TextLCD::writeCommand(int)>
     9e4:	0029      	movs	r1, r5
     9e6:	0020      	movs	r0, r4
     9e8:	f7ff ffcc 	bl	984 <TextLCD::writeData(int)>
     9ec:	bd70      	pop	{r4, r5, r6, pc}

000009ee <TextLCD::columns()>:
     9ee:	30a4      	adds	r0, #164	; 0xa4
     9f0:	7803      	ldrb	r3, [r0, #0]
     9f2:	2010      	movs	r0, #16
     9f4:	3b02      	subs	r3, #2
     9f6:	2b01      	cmp	r3, #1
     9f8:	d800      	bhi.n	9fc <TextLCD::columns()+0xe>
     9fa:	3004      	adds	r0, #4
     9fc:	4770      	bx	lr

000009fe <TextLCD::rows()>:
     9fe:	30a4      	adds	r0, #164	; 0xa4
     a00:	7803      	ldrb	r3, [r0, #0]
     a02:	2004      	movs	r0, #4
     a04:	2b03      	cmp	r3, #3
     a06:	d000      	beq.n	a0a <TextLCD::rows()+0xc>
     a08:	3802      	subs	r0, #2
     a0a:	4770      	bx	lr

00000a0c <TextLCD::_putc(int)>:
     a0c:	b5f7      	push	{r0, r1, r2, r4, r5, r6, r7, lr}
     a0e:	0006      	movs	r6, r0
     a10:	0005      	movs	r5, r0
     a12:	0004      	movs	r4, r0
     a14:	000f      	movs	r7, r1
     a16:	36a8      	adds	r6, #168	; 0xa8
     a18:	35ac      	adds	r5, #172	; 0xac
     a1a:	290a      	cmp	r1, #10
     a1c:	d10e      	bne.n	a3c <TextLCD::_putc(int)+0x30>
     a1e:	2300      	movs	r3, #0
     a20:	6033      	str	r3, [r6, #0]
     a22:	682b      	ldr	r3, [r5, #0]
     a24:	0020      	movs	r0, r4
     a26:	1c5e      	adds	r6, r3, #1
     a28:	602e      	str	r6, [r5, #0]
     a2a:	f7ff ffe8 	bl	9fe <TextLCD::rows()>
     a2e:	4286      	cmp	r6, r0
     a30:	db02      	blt.n	a38 <TextLCD::_putc(int)+0x2c>
     a32:	2300      	movs	r3, #0
     a34:	34ac      	adds	r4, #172	; 0xac
     a36:	6023      	str	r3, [r4, #0]
     a38:	0038      	movs	r0, r7
     a3a:	bdfe      	pop	{r1, r2, r3, r4, r5, r6, r7, pc}
     a3c:	000b      	movs	r3, r1
     a3e:	682a      	ldr	r2, [r5, #0]
     a40:	6831      	ldr	r1, [r6, #0]
     a42:	f7ff ffc6 	bl	9d2 <TextLCD::character(int, int, int)>
     a46:	6833      	ldr	r3, [r6, #0]
     a48:	0020      	movs	r0, r4
     a4a:	3301      	adds	r3, #1
     a4c:	6033      	str	r3, [r6, #0]
     a4e:	9301      	str	r3, [sp, #4]
     a50:	f7ff ffcd 	bl	9ee <TextLCD::columns()>
     a54:	9b01      	ldr	r3, [sp, #4]
     a56:	4283      	cmp	r3, r0
     a58:	dae1      	bge.n	a1e <TextLCD::_putc(int)+0x12>
     a5a:	e7ed      	b.n	a38 <TextLCD::_putc(int)+0x2c>

00000a5c <_start>:
     a5c:	4807      	ldr	r0, [pc, #28]	; (a7c <_start+0x20>)
     a5e:	4a08      	ldr	r2, [pc, #32]	; (a80 <_start+0x24>)
     a60:	b510      	push	{r4, lr}
     a62:	1a12      	subs	r2, r2, r0
     a64:	2100      	movs	r1, #0
     a66:	f004 fdab 	bl	55c0 <memset>
     a6a:	f002 fffa 	bl	3a62 <software_init_hook>
     a6e:	f004 fcdd 	bl	542c <__libc_init_array>
     a72:	f002 fffd 	bl	3a70 <__wrap_main>
     a76:	f003 f83d 	bl	3af4 <__wrap_exit>
     a7a:	46c0      	nop			; (mov r8, r8)
     a7c:	1ffff2c8 	.word	0x1ffff2c8
     a80:	20000e64 	.word	0x20000e64

00000a84 <__wrap__isatty>:
     a84:	b510      	push	{r4, lr}
     a86:	2301      	movs	r3, #1
     a88:	2802      	cmp	r0, #2
     a8a:	dd02      	ble.n	a92 <__wrap__isatty+0xe>
     a8c:	f002 ff9e 	bl	39cc <_isatty>
     a90:	0003      	movs	r3, r0
     a92:	0018      	movs	r0, r3
     a94:	bd10      	pop	{r4, pc}

00000a96 <abort>:
     a96:	b510      	push	{r4, lr}
     a98:	2001      	movs	r0, #1
     a9a:	f003 f82b 	bl	3af4 <__wrap_exit>

00000a9e <__cxa_pure_virtual>:
     a9e:	b510      	push	{r4, lr}
     aa0:	f7ff fff9 	bl	a96 <abort>

00000aa4 <_gpio_init_in>:
     aa4:	b570      	push	{r4, r5, r6, lr}
     aa6:	000d      	movs	r5, r1
     aa8:	0004      	movs	r4, r0
     aaa:	0016      	movs	r6, r2
     aac:	f001 fc52 	bl	2354 <gpio_init>
     ab0:	1c6b      	adds	r3, r5, #1
     ab2:	d007      	beq.n	ac4 <_gpio_init_in+0x20>
     ab4:	2100      	movs	r1, #0
     ab6:	0020      	movs	r0, r4
     ab8:	f001 fc6c 	bl	2394 <gpio_dir>
     abc:	0031      	movs	r1, r6
     abe:	0020      	movs	r0, r4
     ac0:	f001 fc62 	bl	2388 <gpio_mode>
     ac4:	bd70      	pop	{r4, r5, r6, pc}

00000ac6 <_gpio_init_out.part.1>:
     ac6:	b570      	push	{r4, r5, r6, lr}
     ac8:	6843      	ldr	r3, [r0, #4]
     aca:	0004      	movs	r4, r0
     acc:	000d      	movs	r5, r1
     ace:	2a00      	cmp	r2, #0
     ad0:	d00a      	beq.n	ae8 <_gpio_init_out.part.1+0x22>
     ad2:	68c2      	ldr	r2, [r0, #12]
     ad4:	6013      	str	r3, [r2, #0]
     ad6:	0020      	movs	r0, r4
     ad8:	2101      	movs	r1, #1
     ada:	f001 fc5b 	bl	2394 <gpio_dir>
     ade:	0029      	movs	r1, r5
     ae0:	0020      	movs	r0, r4
     ae2:	f001 fc51 	bl	2388 <gpio_mode>
     ae6:	bd70      	pop	{r4, r5, r6, pc}
     ae8:	6902      	ldr	r2, [r0, #16]
     aea:	e7f3      	b.n	ad4 <_gpio_init_out.part.1+0xe>

00000aec <gpio_init_in>:
     aec:	b510      	push	{r4, lr}
     aee:	2202      	movs	r2, #2
     af0:	f7ff ffd8 	bl	aa4 <_gpio_init_in>
     af4:	bd10      	pop	{r4, pc}

00000af6 <gpio_init_out_ex>:
     af6:	b570      	push	{r4, r5, r6, lr}
     af8:	000d      	movs	r5, r1
     afa:	0004      	movs	r4, r0
     afc:	0016      	movs	r6, r2
     afe:	f001 fc29 	bl	2354 <gpio_init>
     b02:	1c6b      	adds	r3, r5, #1
     b04:	d004      	beq.n	b10 <gpio_init_out_ex+0x1a>
     b06:	0032      	movs	r2, r6
     b08:	2100      	movs	r1, #0
     b0a:	0020      	movs	r0, r4
     b0c:	f7ff ffdb 	bl	ac6 <_gpio_init_out.part.1>
     b10:	bd70      	pop	{r4, r5, r6, pc}

00000b12 <gpio_init_out>:
     b12:	b510      	push	{r4, lr}
     b14:	2200      	movs	r2, #0
     b16:	f7ff ffee 	bl	af6 <gpio_init_out_ex>
     b1a:	bd10      	pop	{r4, pc}

00000b1c <us_ticker_irq_handler>:
     b1c:	b510      	push	{r4, lr}
     b1e:	4802      	ldr	r0, [pc, #8]	; (b28 <us_ticker_irq_handler+0xc>)
     b20:	f000 f804 	bl	b2c <ticker_irq_handler>
     b24:	bd10      	pop	{r4, pc}
     b26:	46c0      	nop			; (mov r8, r8)
     b28:	00007254 	.word	0x00007254

00000b2c <ticker_irq_handler>:
     b2c:	6803      	ldr	r3, [r0, #0]
     b2e:	b570      	push	{r4, r5, r6, lr}
     b30:	68db      	ldr	r3, [r3, #12]
     b32:	0004      	movs	r4, r0
     b34:	4798      	blx	r3
     b36:	6863      	ldr	r3, [r4, #4]
     b38:	685a      	ldr	r2, [r3, #4]
     b3a:	6823      	ldr	r3, [r4, #0]
     b3c:	2a00      	cmp	r2, #0
     b3e:	d102      	bne.n	b46 <ticker_irq_handler+0x1a>
     b40:	689b      	ldr	r3, [r3, #8]
     b42:	4798      	blx	r3
     b44:	bd70      	pop	{r4, r5, r6, pc}
     b46:	685b      	ldr	r3, [r3, #4]
     b48:	6815      	ldr	r5, [r2, #0]
     b4a:	4798      	blx	r3
     b4c:	6863      	ldr	r3, [r4, #4]
     b4e:	1a2d      	subs	r5, r5, r0
     b50:	685a      	ldr	r2, [r3, #4]
     b52:	2d00      	cmp	r5, #0
     b54:	dc07      	bgt.n	b66 <ticker_irq_handler+0x3a>
     b56:	6891      	ldr	r1, [r2, #8]
     b58:	6059      	str	r1, [r3, #4]
     b5a:	681b      	ldr	r3, [r3, #0]
     b5c:	2b00      	cmp	r3, #0
     b5e:	d0ea      	beq.n	b36 <ticker_irq_handler+0xa>
     b60:	6850      	ldr	r0, [r2, #4]
     b62:	4798      	blx	r3
     b64:	e7e7      	b.n	b36 <ticker_irq_handler+0xa>
     b66:	6823      	ldr	r3, [r4, #0]
     b68:	6810      	ldr	r0, [r2, #0]
     b6a:	691b      	ldr	r3, [r3, #16]
     b6c:	4798      	blx	r3
     b6e:	e7e9      	b.n	b44 <ticker_irq_handler+0x18>

00000b70 <pinmap_pinout>:
     b70:	b510      	push	{r4, lr}
     b72:	0004      	movs	r4, r0
     b74:	1c43      	adds	r3, r0, #1
     b76:	d10c      	bne.n	b92 <pinmap_pinout+0x22>
     b78:	bd10      	pop	{r4, pc}
     b7a:	429c      	cmp	r4, r3
     b7c:	d108      	bne.n	b90 <pinmap_pinout+0x20>
     b7e:	0020      	movs	r0, r4
     b80:	6889      	ldr	r1, [r1, #8]
     b82:	f001 ff09 	bl	2998 <pin_function>
     b86:	2100      	movs	r1, #0
     b88:	0020      	movs	r0, r4
     b8a:	f001 ff25 	bl	29d8 <pin_mode>
     b8e:	e7f3      	b.n	b78 <pinmap_pinout+0x8>
     b90:	310c      	adds	r1, #12
     b92:	2200      	movs	r2, #0
     b94:	5e8b      	ldrsh	r3, [r1, r2]
     b96:	1c5a      	adds	r2, r3, #1
     b98:	d1ef      	bne.n	b7a <pinmap_pinout+0xa>
     b9a:	4802      	ldr	r0, [pc, #8]	; (ba4 <pinmap_pinout+0x34>)
     b9c:	f000 f896 	bl	ccc <error>
     ba0:	e7ea      	b.n	b78 <pinmap_pinout+0x8>
     ba2:	46c0      	nop			; (mov r8, r8)
     ba4:	000072a1 	.word	0x000072a1

00000ba8 <pinmap_merge>:
     ba8:	b510      	push	{r4, lr}
     baa:	4288      	cmp	r0, r1
     bac:	d008      	beq.n	bc0 <pinmap_merge+0x18>
     bae:	1c43      	adds	r3, r0, #1
     bb0:	d006      	beq.n	bc0 <pinmap_merge+0x18>
     bb2:	1c4b      	adds	r3, r1, #1
     bb4:	d006      	beq.n	bc4 <pinmap_merge+0x1c>
     bb6:	4804      	ldr	r0, [pc, #16]	; (bc8 <pinmap_merge+0x20>)
     bb8:	f000 f888 	bl	ccc <error>
     bbc:	2101      	movs	r1, #1
     bbe:	4249      	negs	r1, r1
     bc0:	0008      	movs	r0, r1
     bc2:	bd10      	pop	{r4, pc}
     bc4:	0001      	movs	r1, r0
     bc6:	e7fb      	b.n	bc0 <pinmap_merge+0x18>
     bc8:	00007270 	.word	0x00007270

00000bcc <pinmap_find_peripheral>:
     bcc:	2200      	movs	r2, #0
     bce:	5e8b      	ldrsh	r3, [r1, r2]
     bd0:	1c5a      	adds	r2, r3, #1
     bd2:	d101      	bne.n	bd8 <pinmap_find_peripheral+0xc>
     bd4:	0018      	movs	r0, r3
     bd6:	e002      	b.n	bde <pinmap_find_peripheral+0x12>
     bd8:	4283      	cmp	r3, r0
     bda:	d101      	bne.n	be0 <pinmap_find_peripheral+0x14>
     bdc:	6848      	ldr	r0, [r1, #4]
     bde:	4770      	bx	lr
     be0:	310c      	adds	r1, #12
     be2:	e7f3      	b.n	bcc <pinmap_find_peripheral>

00000be4 <pinmap_peripheral>:
     be4:	b510      	push	{r4, lr}
     be6:	0004      	movs	r4, r0
     be8:	1c43      	adds	r3, r0, #1
     bea:	d007      	beq.n	bfc <pinmap_peripheral+0x18>
     bec:	f7ff ffee 	bl	bcc <pinmap_find_peripheral>
     bf0:	0004      	movs	r4, r0
     bf2:	1c43      	adds	r3, r0, #1
     bf4:	d102      	bne.n	bfc <pinmap_peripheral+0x18>
     bf6:	4802      	ldr	r0, [pc, #8]	; (c00 <pinmap_peripheral+0x1c>)
     bf8:	f000 f868 	bl	ccc <error>
     bfc:	0020      	movs	r0, r4
     bfe:	bd10      	pop	{r4, pc}
     c00:	00007281 	.word	0x00007281

00000c04 <mbed_interface_connected>:
     c04:	b510      	push	{r4, lr}
     c06:	f000 f841 	bl	c8c <semihost_connected>
     c0a:	bd10      	pop	{r4, pc}

00000c0c <core_util_are_interrupts_enabled>:
     c0c:	f3ef 8310 	mrs	r3, PRIMASK
     c10:	2001      	movs	r0, #1
     c12:	4398      	bics	r0, r3
     c14:	4770      	bx	lr
	...

00000c18 <core_util_critical_section_enter>:
     c18:	b510      	push	{r4, lr}
     c1a:	f7ff fff7 	bl	c0c <core_util_are_interrupts_enabled>
     c1e:	b672      	cpsid	i
     c20:	4a06      	ldr	r2, [pc, #24]	; (c3c <core_util_critical_section_enter+0x24>)
     c22:	6813      	ldr	r3, [r2, #0]
     c24:	2b00      	cmp	r3, #0
     c26:	d104      	bne.n	c32 <core_util_critical_section_enter+0x1a>
     c28:	3301      	adds	r3, #1
     c2a:	4058      	eors	r0, r3
     c2c:	4b04      	ldr	r3, [pc, #16]	; (c40 <core_util_critical_section_enter+0x28>)
     c2e:	b2c0      	uxtb	r0, r0
     c30:	7018      	strb	r0, [r3, #0]
     c32:	6813      	ldr	r3, [r2, #0]
     c34:	6813      	ldr	r3, [r2, #0]
     c36:	3301      	adds	r3, #1
     c38:	6013      	str	r3, [r2, #0]
     c3a:	bd10      	pop	{r4, pc}
     c3c:	1ffff428 	.word	0x1ffff428
     c40:	1ffff424 	.word	0x1ffff424

00000c44 <core_util_critical_section_exit>:
     c44:	b510      	push	{r4, lr}
     c46:	4c09      	ldr	r4, [pc, #36]	; (c6c <core_util_critical_section_exit+0x28>)
     c48:	6823      	ldr	r3, [r4, #0]
     c4a:	2b00      	cmp	r3, #0
     c4c:	d00c      	beq.n	c68 <core_util_critical_section_exit+0x24>
     c4e:	f7ff ffdd 	bl	c0c <core_util_are_interrupts_enabled>
     c52:	6823      	ldr	r3, [r4, #0]
     c54:	3b01      	subs	r3, #1
     c56:	6023      	str	r3, [r4, #0]
     c58:	6823      	ldr	r3, [r4, #0]
     c5a:	2b00      	cmp	r3, #0
     c5c:	d104      	bne.n	c68 <core_util_critical_section_exit+0x24>
     c5e:	4b04      	ldr	r3, [pc, #16]	; (c70 <core_util_critical_section_exit+0x2c>)
     c60:	781b      	ldrb	r3, [r3, #0]
     c62:	2b00      	cmp	r3, #0
     c64:	d100      	bne.n	c68 <core_util_critical_section_exit+0x24>
     c66:	b662      	cpsie	i
     c68:	bd10      	pop	{r4, pc}
     c6a:	46c0      	nop			; (mov r8, r8)
     c6c:	1ffff428 	.word	0x1ffff428
     c70:	1ffff424 	.word	0x1ffff424

00000c74 <semihost_exit>:
     c74:	b530      	push	{r4, r5, lr}
     c76:	b085      	sub	sp, #20
     c78:	466d      	mov	r5, sp
     c7a:	2418      	movs	r4, #24
     c7c:	1c20      	adds	r0, r4, #0
     c7e:	1c29      	adds	r1, r5, #0
     c80:	beab      	bkpt	0x00ab
     c82:	1c04      	adds	r4, r0, #0
     c84:	0020      	movs	r0, r4
     c86:	b005      	add	sp, #20
     c88:	bd30      	pop	{r4, r5, pc}
	...

00000c8c <semihost_connected>:
     c8c:	4b01      	ldr	r3, [pc, #4]	; (c94 <semihost_connected+0x8>)
     c8e:	6818      	ldr	r0, [r3, #0]
     c90:	4770      	bx	lr
     c92:	46c0      	nop			; (mov r8, r8)
     c94:	1ffff0c4 	.word	0x1ffff0c4

00000c98 <mbed_die>:
     c98:	b510      	push	{r4, lr}
     c9a:	b088      	sub	sp, #32
     c9c:	f7ff ffbc 	bl	c18 <core_util_critical_section_enter>
     ca0:	4909      	ldr	r1, [pc, #36]	; (cc8 <mbed_die+0x30>)
     ca2:	a802      	add	r0, sp, #8
     ca4:	f7ff ff35 	bl	b12 <gpio_init_out>
     ca8:	2496      	movs	r4, #150	; 0x96
     caa:	9a03      	ldr	r2, [sp, #12]
     cac:	9b05      	ldr	r3, [sp, #20]
     cae:	0020      	movs	r0, r4
     cb0:	601a      	str	r2, [r3, #0]
     cb2:	9201      	str	r2, [sp, #4]
     cb4:	f002 fdd8 	bl	3868 <wait_ms>
     cb8:	9a03      	ldr	r2, [sp, #12]
     cba:	9b06      	ldr	r3, [sp, #24]
     cbc:	0020      	movs	r0, r4
     cbe:	601a      	str	r2, [r3, #0]
     cc0:	9201      	str	r2, [sp, #4]
     cc2:	f002 fdd1 	bl	3868 <wait_ms>
     cc6:	e7f0      	b.n	caa <mbed_die+0x12>
     cc8:	00001048 	.word	0x00001048

00000ccc <error>:
     ccc:	b40f      	push	{r0, r1, r2, r3}
     cce:	2001      	movs	r0, #1
     cd0:	b510      	push	{r4, lr}
     cd2:	f002 ff0f 	bl	3af4 <__wrap_exit>

00000cd6 <default_idle_hook>:
     cd6:	b510      	push	{r4, lr}
     cd8:	f001 fb6c 	bl	23b4 <hal_sleep>
     cdc:	bd10      	pop	{r4, pc}
	...

00000ce0 <rtos_idle_loop>:
     ce0:	b510      	push	{r4, lr}
     ce2:	4b02      	ldr	r3, [pc, #8]	; (cec <rtos_idle_loop+0xc>)
     ce4:	681b      	ldr	r3, [r3, #0]
     ce6:	4798      	blx	r3
     ce8:	e7fb      	b.n	ce2 <rtos_idle_loop+0x2>
     cea:	46c0      	nop			; (mov r8, r8)
     cec:	1ffff0c8 	.word	0x1ffff0c8

00000cf0 <pre_main>:
     cf0:	b510      	push	{r4, lr}
     cf2:	480c      	ldr	r0, [pc, #48]	; (d24 <pre_main+0x34>)
     cf4:	f000 fde4 	bl	18c0 <osMutexCreate>
     cf8:	0002      	movs	r2, r0
     cfa:	4b0b      	ldr	r3, [pc, #44]	; (d28 <pre_main+0x38>)
     cfc:	480b      	ldr	r0, [pc, #44]	; (d2c <pre_main+0x3c>)
     cfe:	601a      	str	r2, [r3, #0]
     d00:	f000 fdde 	bl	18c0 <osMutexCreate>
     d04:	0002      	movs	r2, r0
     d06:	4b0a      	ldr	r3, [pc, #40]	; (d30 <pre_main+0x40>)
     d08:	480a      	ldr	r0, [pc, #40]	; (d34 <pre_main+0x44>)
     d0a:	601a      	str	r2, [r3, #0]
     d0c:	f000 fdd8 	bl	18c0 <osMutexCreate>
     d10:	4b09      	ldr	r3, [pc, #36]	; (d38 <pre_main+0x48>)
     d12:	6018      	str	r0, [r3, #0]
     d14:	f004 fb8a 	bl	542c <__libc_init_array>
     d18:	2100      	movs	r1, #0
     d1a:	2000      	movs	r0, #0
     d1c:	f002 fea8 	bl	3a70 <__wrap_main>
     d20:	bd10      	pop	{r4, pc}
     d22:	46c0      	nop			; (mov r8, r8)
     d24:	00007300 	.word	0x00007300
     d28:	200008cc 	.word	0x200008cc
     d2c:	000072fc 	.word	0x000072fc
     d30:	1ffff434 	.word	0x1ffff434
     d34:	000072f8 	.word	0x000072f8
     d38:	1ffff42c 	.word	0x1ffff42c

00000d3c <os_idle_demon>:
     d3c:	b510      	push	{r4, lr}
     d3e:	f7ff ffcf 	bl	ce0 <rtos_idle_loop>
     d42:	bd10      	pop	{r4, pc}

00000d44 <os_error>:
     d44:	b510      	push	{r4, lr}
     d46:	0004      	movs	r4, r0
     d48:	f000 fd0c 	bl	1764 <svcThreadGetId>
     d4c:	0021      	movs	r1, r4
     d4e:	0002      	movs	r2, r0
     d50:	4801      	ldr	r0, [pc, #4]	; (d58 <os_error+0x14>)
     d52:	f7ff ffbb 	bl	ccc <error>
     d56:	bd10      	pop	{r4, pc}
     d58:	000072c0 	.word	0x000072c0

00000d5c <sysThreadTerminate>:
     d5c:	b510      	push	{r4, lr}
     d5e:	f002 ffe9 	bl	3d34 <thread_terminate_hook>
     d62:	bd10      	pop	{r4, pc}

00000d64 <set_stack_heap>:
     d64:	2280      	movs	r2, #128	; 0x80
     d66:	490a      	ldr	r1, [pc, #40]	; (d90 <set_stack_heap+0x2c>)
     d68:	4b0a      	ldr	r3, [pc, #40]	; (d94 <set_stack_heap+0x30>)
     d6a:	b510      	push	{r4, lr}
     d6c:	1a5b      	subs	r3, r3, r1
     d6e:	0092      	lsls	r2, r2, #2
     d70:	0018      	movs	r0, r3
     d72:	4293      	cmp	r3, r2
     d74:	d900      	bls.n	d78 <set_stack_heap+0x14>
     d76:	0010      	movs	r0, r2
     d78:	4a07      	ldr	r2, [pc, #28]	; (d98 <set_stack_heap+0x34>)
     d7a:	1a1b      	subs	r3, r3, r0
     d7c:	4c07      	ldr	r4, [pc, #28]	; (d9c <set_stack_heap+0x38>)
     d7e:	6013      	str	r3, [r2, #0]
     d80:	18cb      	adds	r3, r1, r3
     d82:	4a07      	ldr	r2, [pc, #28]	; (da0 <set_stack_heap+0x3c>)
     d84:	6023      	str	r3, [r4, #0]
     d86:	4b07      	ldr	r3, [pc, #28]	; (da4 <set_stack_heap+0x40>)
     d88:	6010      	str	r0, [r2, #0]
     d8a:	6019      	str	r1, [r3, #0]
     d8c:	bd10      	pop	{r4, pc}
     d8e:	46c0      	nop			; (mov r8, r8)
     d90:	20000e68 	.word	0x20000e68
     d94:	20003000 	.word	0x20003000
     d98:	20000604 	.word	0x20000604
     d9c:	1ffff43c 	.word	0x1ffff43c
     da0:	1ffff438 	.word	0x1ffff438
     da4:	20000608 	.word	0x20000608

00000da8 <software_init_hook_rtos>:
     da8:	f000 fe82 	bl	1ab0 <osKernelInitialize>
     dac:	f7ff ffda 	bl	d64 <set_stack_heap>
     db0:	4803      	ldr	r0, [pc, #12]	; (dc0 <software_init_hook_rtos+0x18>)
     db2:	2100      	movs	r1, #0
     db4:	f000 fe16 	bl	19e4 <osThreadCreate>
     db8:	f000 fc4c 	bl	1654 <osKernelStart>
     dbc:	e7fe      	b.n	dbc <software_init_hook_rtos+0x14>
     dbe:	0000      	.short	0x0000
     dc0:	1ffff0cc 	.word	0x1ffff0cc

00000dc4 <__rtos_malloc_lock>:
     dc4:	2101      	movs	r1, #1
     dc6:	b510      	push	{r4, lr}
     dc8:	4b02      	ldr	r3, [pc, #8]	; (dd4 <__rtos_malloc_lock+0x10>)
     dca:	4249      	negs	r1, r1
     dcc:	6818      	ldr	r0, [r3, #0]
     dce:	f000 fd99 	bl	1904 <osMutexWait>
     dd2:	bd10      	pop	{r4, pc}
     dd4:	1ffff434 	.word	0x1ffff434

00000dd8 <__rtos_malloc_unlock>:
     dd8:	b510      	push	{r4, lr}
     dda:	4b02      	ldr	r3, [pc, #8]	; (de4 <__rtos_malloc_unlock+0xc>)
     ddc:	6818      	ldr	r0, [r3, #0]
     dde:	f000 fdbb 	bl	1958 <osMutexRelease>
     de2:	bd10      	pop	{r4, pc}
     de4:	1ffff434 	.word	0x1ffff434

00000de8 <rt_put_prio>:
     de8:	7802      	ldrb	r2, [r0, #0]
     dea:	b530      	push	{r4, r5, lr}
     dec:	3a01      	subs	r2, #1
     dee:	788c      	ldrb	r4, [r1, #2]
     df0:	6843      	ldr	r3, [r0, #4]
     df2:	b2d2      	uxtb	r2, r2
     df4:	2b00      	cmp	r3, #0
     df6:	d002      	beq.n	dfe <rt_put_prio+0x16>
     df8:	789d      	ldrb	r5, [r3, #2]
     dfa:	42a5      	cmp	r5, r4
     dfc:	d208      	bcs.n	e10 <rt_put_prio+0x28>
     dfe:	604b      	str	r3, [r1, #4]
     e00:	6041      	str	r1, [r0, #4]
     e02:	2a02      	cmp	r2, #2
     e04:	d807      	bhi.n	e16 <rt_put_prio+0x2e>
     e06:	2b00      	cmp	r3, #0
     e08:	d000      	beq.n	e0c <rt_put_prio+0x24>
     e0a:	6099      	str	r1, [r3, #8]
     e0c:	6088      	str	r0, [r1, #8]
     e0e:	bd30      	pop	{r4, r5, pc}
     e10:	0018      	movs	r0, r3
     e12:	685b      	ldr	r3, [r3, #4]
     e14:	e7ee      	b.n	df4 <rt_put_prio+0xc>
     e16:	2300      	movs	r3, #0
     e18:	608b      	str	r3, [r1, #8]
     e1a:	e7f8      	b.n	e0e <rt_put_prio+0x26>

00000e1c <rt_get_first>:
     e1c:	6843      	ldr	r3, [r0, #4]
     e1e:	b510      	push	{r4, lr}
     e20:	7804      	ldrb	r4, [r0, #0]
     e22:	6859      	ldr	r1, [r3, #4]
     e24:	3c01      	subs	r4, #1
     e26:	6041      	str	r1, [r0, #4]
     e28:	2200      	movs	r2, #0
     e2a:	2c02      	cmp	r4, #2
     e2c:	d806      	bhi.n	e3c <rt_get_first+0x20>
     e2e:	4291      	cmp	r1, r2
     e30:	d001      	beq.n	e36 <rt_get_first+0x1a>
     e32:	6088      	str	r0, [r1, #8]
     e34:	605a      	str	r2, [r3, #4]
     e36:	609a      	str	r2, [r3, #8]
     e38:	0018      	movs	r0, r3
     e3a:	bd10      	pop	{r4, pc}
     e3c:	605a      	str	r2, [r3, #4]
     e3e:	e7fb      	b.n	e38 <rt_get_first+0x1c>

00000e40 <rt_put_rdy_first>:
     e40:	4b03      	ldr	r3, [pc, #12]	; (e50 <rt_put_rdy_first+0x10>)
     e42:	685a      	ldr	r2, [r3, #4]
     e44:	6042      	str	r2, [r0, #4]
     e46:	2200      	movs	r2, #0
     e48:	6058      	str	r0, [r3, #4]
     e4a:	6082      	str	r2, [r0, #8]
     e4c:	4770      	bx	lr
     e4e:	46c0      	nop			; (mov r8, r8)
     e50:	20000dc0 	.word	0x20000dc0

00000e54 <rt_put_dly>:
     e54:	4a12      	ldr	r2, [pc, #72]	; (ea0 <rt_put_dly+0x4c>)
     e56:	b510      	push	{r4, lr}
     e58:	68d3      	ldr	r3, [r2, #12]
     e5a:	2b00      	cmp	r3, #0
     e5c:	d013      	beq.n	e86 <rt_put_dly+0x32>
     e5e:	8a93      	ldrh	r3, [r2, #20]
     e60:	68d4      	ldr	r4, [r2, #12]
     e62:	428b      	cmp	r3, r1
     e64:	d30d      	bcc.n	e82 <rt_put_dly+0x2e>
     e66:	60c4      	str	r4, [r0, #12]
     e68:	60d0      	str	r0, [r2, #12]
     e6a:	68c4      	ldr	r4, [r0, #12]
     e6c:	6102      	str	r2, [r0, #16]
     e6e:	2c00      	cmp	r4, #0
     e70:	d000      	beq.n	e74 <rt_put_dly+0x20>
     e72:	6120      	str	r0, [r4, #16]
     e74:	1a5b      	subs	r3, r3, r1
     e76:	b29b      	uxth	r3, r3
     e78:	8283      	strh	r3, [r0, #20]
     e7a:	8a91      	ldrh	r1, [r2, #20]
     e7c:	1acb      	subs	r3, r1, r3
     e7e:	8293      	strh	r3, [r2, #20]
     e80:	e008      	b.n	e94 <rt_put_dly+0x40>
     e82:	2c00      	cmp	r4, #0
     e84:	d107      	bne.n	e96 <rt_put_dly+0x42>
     e86:	2400      	movs	r4, #0
     e88:	1acb      	subs	r3, r1, r3
     e8a:	60c4      	str	r4, [r0, #12]
     e8c:	60d0      	str	r0, [r2, #12]
     e8e:	6102      	str	r2, [r0, #16]
     e90:	8293      	strh	r3, [r2, #20]
     e92:	8284      	strh	r4, [r0, #20]
     e94:	bd10      	pop	{r4, pc}
     e96:	8aa2      	ldrh	r2, [r4, #20]
     e98:	189b      	adds	r3, r3, r2
     e9a:	0022      	movs	r2, r4
     e9c:	e7e0      	b.n	e60 <rt_put_dly+0xc>
     e9e:	46c0      	nop			; (mov r8, r8)
     ea0:	20000dd8 	.word	0x20000dd8

00000ea4 <rt_dec_dly>:
     ea4:	b570      	push	{r4, r5, r6, lr}
     ea6:	4d19      	ldr	r5, [pc, #100]	; (f0c <rt_dec_dly+0x68>)
     ea8:	68eb      	ldr	r3, [r5, #12]
     eaa:	2b00      	cmp	r3, #0
     eac:	d009      	beq.n	ec2 <rt_dec_dly+0x1e>
     eae:	2601      	movs	r6, #1
     eb0:	8aab      	ldrh	r3, [r5, #20]
     eb2:	3b01      	subs	r3, #1
     eb4:	82ab      	strh	r3, [r5, #20]
     eb6:	8aaa      	ldrh	r2, [r5, #20]
     eb8:	2a00      	cmp	r2, #0
     eba:	d102      	bne.n	ec2 <rt_dec_dly+0x1e>
     ebc:	68ec      	ldr	r4, [r5, #12]
     ebe:	2c00      	cmp	r4, #0
     ec0:	d100      	bne.n	ec4 <rt_dec_dly+0x20>
     ec2:	bd70      	pop	{r4, r5, r6, pc}
     ec4:	68a3      	ldr	r3, [r4, #8]
     ec6:	2b00      	cmp	r3, #0
     ec8:	d008      	beq.n	edc <rt_dec_dly+0x38>
     eca:	6861      	ldr	r1, [r4, #4]
     ecc:	6059      	str	r1, [r3, #4]
     ece:	6861      	ldr	r1, [r4, #4]
     ed0:	2900      	cmp	r1, #0
     ed2:	d001      	beq.n	ed8 <rt_dec_dly+0x34>
     ed4:	608b      	str	r3, [r1, #8]
     ed6:	6062      	str	r2, [r4, #4]
     ed8:	2300      	movs	r3, #0
     eda:	60a3      	str	r3, [r4, #8]
     edc:	0021      	movs	r1, r4
     ede:	480c      	ldr	r0, [pc, #48]	; (f10 <rt_dec_dly+0x6c>)
     ee0:	f7ff ff82 	bl	de8 <rt_put_prio>
     ee4:	8aa3      	ldrh	r3, [r4, #20]
     ee6:	82ab      	strh	r3, [r5, #20]
     ee8:	7863      	ldrb	r3, [r4, #1]
     eea:	2b04      	cmp	r3, #4
     eec:	d104      	bne.n	ef8 <rt_dec_dly+0x54>
     eee:	4b09      	ldr	r3, [pc, #36]	; (f14 <rt_dec_dly+0x70>)
     ef0:	8ae2      	ldrh	r2, [r4, #22]
     ef2:	681b      	ldr	r3, [r3, #0]
     ef4:	189b      	adds	r3, r3, r2
     ef6:	82a3      	strh	r3, [r4, #20]
     ef8:	2200      	movs	r2, #0
     efa:	68e3      	ldr	r3, [r4, #12]
     efc:	7066      	strb	r6, [r4, #1]
     efe:	60eb      	str	r3, [r5, #12]
     f00:	4293      	cmp	r3, r2
     f02:	d001      	beq.n	f08 <rt_dec_dly+0x64>
     f04:	611d      	str	r5, [r3, #16]
     f06:	60e2      	str	r2, [r4, #12]
     f08:	6122      	str	r2, [r4, #16]
     f0a:	e7d4      	b.n	eb6 <rt_dec_dly+0x12>
     f0c:	20000dd8 	.word	0x20000dd8
     f10:	20000dc0 	.word	0x20000dc0
     f14:	20000e54 	.word	0x20000e54

00000f18 <rt_rmv_list>:
     f18:	6883      	ldr	r3, [r0, #8]
     f1a:	2b00      	cmp	r3, #0
     f1c:	d006      	beq.n	f2c <rt_rmv_list+0x14>
     f1e:	6842      	ldr	r2, [r0, #4]
     f20:	605a      	str	r2, [r3, #4]
     f22:	6842      	ldr	r2, [r0, #4]
     f24:	2a00      	cmp	r2, #0
     f26:	d000      	beq.n	f2a <rt_rmv_list+0x12>
     f28:	6093      	str	r3, [r2, #8]
     f2a:	4770      	bx	lr
     f2c:	4b04      	ldr	r3, [pc, #16]	; (f40 <rt_rmv_list+0x28>)
     f2e:	685a      	ldr	r2, [r3, #4]
     f30:	4290      	cmp	r0, r2
     f32:	d102      	bne.n	f3a <rt_rmv_list+0x22>
     f34:	6842      	ldr	r2, [r0, #4]
     f36:	605a      	str	r2, [r3, #4]
     f38:	e7f7      	b.n	f2a <rt_rmv_list+0x12>
     f3a:	1e13      	subs	r3, r2, #0
     f3c:	d1f7      	bne.n	f2e <rt_rmv_list+0x16>
     f3e:	e7f4      	b.n	f2a <rt_rmv_list+0x12>
     f40:	20000dc0 	.word	0x20000dc0

00000f44 <rt_resort_prio>:
     f44:	b570      	push	{r4, r5, r6, lr}
     f46:	6884      	ldr	r4, [r0, #8]
     f48:	0005      	movs	r5, r0
     f4a:	2c00      	cmp	r4, #0
     f4c:	d105      	bne.n	f5a <rt_resort_prio+0x16>
     f4e:	7843      	ldrb	r3, [r0, #1]
     f50:	2b01      	cmp	r3, #1
     f52:	d10c      	bne.n	f6e <rt_resort_prio+0x2a>
     f54:	4c06      	ldr	r4, [pc, #24]	; (f70 <rt_resort_prio+0x2c>)
     f56:	e003      	b.n	f60 <rt_resort_prio+0x1c>
     f58:	68a4      	ldr	r4, [r4, #8]
     f5a:	7823      	ldrb	r3, [r4, #0]
     f5c:	2b00      	cmp	r3, #0
     f5e:	d0fb      	beq.n	f58 <rt_resort_prio+0x14>
     f60:	0028      	movs	r0, r5
     f62:	f7ff ffd9 	bl	f18 <rt_rmv_list>
     f66:	0029      	movs	r1, r5
     f68:	0020      	movs	r0, r4
     f6a:	f7ff ff3d 	bl	de8 <rt_put_prio>
     f6e:	bd70      	pop	{r4, r5, r6, pc}
     f70:	20000dc0 	.word	0x20000dc0

00000f74 <rt_rmv_dly>:
     f74:	6903      	ldr	r3, [r0, #16]
     f76:	b510      	push	{r4, lr}
     f78:	2b00      	cmp	r3, #0
     f7a:	d00d      	beq.n	f98 <rt_rmv_dly+0x24>
     f7c:	68c2      	ldr	r2, [r0, #12]
     f7e:	60da      	str	r2, [r3, #12]
     f80:	68c2      	ldr	r2, [r0, #12]
     f82:	2a00      	cmp	r2, #0
     f84:	d009      	beq.n	f9a <rt_rmv_dly+0x26>
     f86:	8a99      	ldrh	r1, [r3, #20]
     f88:	8a84      	ldrh	r4, [r0, #20]
     f8a:	1909      	adds	r1, r1, r4
     f8c:	8299      	strh	r1, [r3, #20]
     f8e:	6113      	str	r3, [r2, #16]
     f90:	2300      	movs	r3, #0
     f92:	60c3      	str	r3, [r0, #12]
     f94:	2300      	movs	r3, #0
     f96:	6103      	str	r3, [r0, #16]
     f98:	bd10      	pop	{r4, pc}
     f9a:	829a      	strh	r2, [r3, #20]
     f9c:	e7fa      	b.n	f94 <rt_rmv_dly+0x20>
	...

00000fa0 <rt_psq_enq>:
     fa0:	b570      	push	{r4, r5, r6, lr}
     fa2:	4a11      	ldr	r2, [pc, #68]	; (fe8 <rt_psq_enq+0x48>)
     fa4:	78d4      	ldrb	r4, [r2, #3]
     fa6:	f3ef 8610 	mrs	r6, PRIMASK
     faa:	f3ef 8310 	mrs	r3, PRIMASK
     fae:	b672      	cpsid	i
     fb0:	7893      	ldrb	r3, [r2, #2]
     fb2:	429c      	cmp	r4, r3
     fb4:	d911      	bls.n	fda <rt_psq_enq+0x3a>
     fb6:	3301      	adds	r3, #1
     fb8:	7093      	strb	r3, [r2, #2]
     fba:	7813      	ldrb	r3, [r2, #0]
     fbc:	1c5d      	adds	r5, r3, #1
     fbe:	42ac      	cmp	r4, r5
     fc0:	d100      	bne.n	fc4 <rt_psq_enq+0x24>
     fc2:	2500      	movs	r5, #0
     fc4:	7015      	strb	r5, [r2, #0]
     fc6:	2e00      	cmp	r6, #0
     fc8:	d100      	bne.n	fcc <rt_psq_enq+0x2c>
     fca:	b662      	cpsie	i
     fcc:	429c      	cmp	r4, r3
     fce:	d906      	bls.n	fde <rt_psq_enq+0x3e>
     fd0:	00db      	lsls	r3, r3, #3
     fd2:	18d3      	adds	r3, r2, r3
     fd4:	6058      	str	r0, [r3, #4]
     fd6:	6099      	str	r1, [r3, #8]
     fd8:	bd70      	pop	{r4, r5, r6, pc}
     fda:	2e00      	cmp	r6, #0
     fdc:	d0f5      	beq.n	fca <rt_psq_enq+0x2a>
     fde:	2002      	movs	r0, #2
     fe0:	f7ff feb0 	bl	d44 <os_error>
     fe4:	e7f8      	b.n	fd8 <rt_psq_enq+0x38>
     fe6:	46c0      	nop			; (mov r8, r8)
     fe8:	20000844 	.word	0x20000844

00000fec <rt_init_stack>:
     fec:	b5f7      	push	{r0, r1, r2, r4, r5, r6, r7, lr}
     fee:	6a83      	ldr	r3, [r0, #40]	; 0x28
     ff0:	9101      	str	r1, [sp, #4]
     ff2:	089b      	lsrs	r3, r3, #2
     ff4:	d102      	bne.n	ffc <rt_init_stack+0x10>
     ff6:	4b20      	ldr	r3, [pc, #128]	; (1078 <rt_init_stack+0x8c>)
     ff8:	881b      	ldrh	r3, [r3, #0]
     ffa:	089b      	lsrs	r3, r3, #2
     ffc:	6b06      	ldr	r6, [r0, #48]	; 0x30
     ffe:	009c      	lsls	r4, r3, #2
    1000:	1934      	adds	r4, r6, r4
    1002:	0762      	lsls	r2, r4, #29
    1004:	d500      	bpl.n	1008 <rt_init_stack+0x1c>
    1006:	3c04      	subs	r4, #4
    1008:	2780      	movs	r7, #128	; 0x80
    100a:	1f22      	subs	r2, r4, #4
    100c:	047f      	lsls	r7, r7, #17
    100e:	6017      	str	r7, [r2, #0]
    1010:	0027      	movs	r7, r4
    1012:	9a01      	ldr	r2, [sp, #4]
    1014:	0025      	movs	r5, r4
    1016:	3f08      	subs	r7, #8
    1018:	603a      	str	r2, [r7, #0]
    101a:	2200      	movs	r2, #0
    101c:	3d40      	subs	r5, #64	; 0x40
    101e:	0029      	movs	r1, r5
    1020:	4694      	mov	r12, r2
    1022:	4662      	mov	r2, r12
    1024:	c104      	stmia	r1!, {r2}
    1026:	428f      	cmp	r7, r1
    1028:	d1fb      	bne.n	1022 <rt_init_stack+0x36>
    102a:	0022      	movs	r2, r4
    102c:	69c7      	ldr	r7, [r0, #28]
    102e:	3a20      	subs	r2, #32
    1030:	6017      	str	r7, [r2, #0]
    1032:	9a01      	ldr	r2, [sp, #4]
    1034:	62c5      	str	r5, [r0, #44]	; 0x2c
    1036:	6342      	str	r2, [r0, #52]	; 0x34
    1038:	4a0f      	ldr	r2, [pc, #60]	; (1078 <rt_init_stack+0x8c>)
    103a:	6812      	ldr	r2, [r2, #0]
    103c:	9201      	str	r2, [sp, #4]
    103e:	00d2      	lsls	r2, r2, #3
    1040:	d512      	bpl.n	1068 <rt_init_stack+0x7c>
    1042:	2b11      	cmp	r3, #17
    1044:	d910      	bls.n	1068 <rt_init_stack+0x7c>
    1046:	3b10      	subs	r3, #16
    1048:	085b      	lsrs	r3, r3, #1
    104a:	00db      	lsls	r3, r3, #3
    104c:	425b      	negs	r3, r3
    104e:	001a      	movs	r2, r3
    1050:	3a38      	subs	r2, #56	; 0x38
    1052:	18a4      	adds	r4, r4, r2
    1054:	002a      	movs	r2, r5
    1056:	4909      	ldr	r1, [pc, #36]	; (107c <rt_init_stack+0x90>)
    1058:	42a2      	cmp	r2, r4
    105a:	d108      	bne.n	106e <rt_init_stack+0x82>
    105c:	18eb      	adds	r3, r5, r3
    105e:	3304      	adds	r3, #4
    1060:	429e      	cmp	r6, r3
    1062:	d201      	bcs.n	1068 <rt_init_stack+0x7c>
    1064:	4a05      	ldr	r2, [pc, #20]	; (107c <rt_init_stack+0x90>)
    1066:	601a      	str	r2, [r3, #0]
    1068:	4b05      	ldr	r3, [pc, #20]	; (1080 <rt_init_stack+0x94>)
    106a:	6033      	str	r3, [r6, #0]
    106c:	bdf7      	pop	{r0, r1, r2, r4, r5, r6, r7, pc}
    106e:	3a08      	subs	r2, #8
    1070:	6051      	str	r1, [r2, #4]
    1072:	6011      	str	r1, [r2, #0]
    1074:	e7f0      	b.n	1058 <rt_init_stack+0x6c>
    1076:	46c0      	nop			; (mov r8, r8)
    1078:	00007308 	.word	0x00007308
    107c:	cccccccc 	.word	0xcccccccc
    1080:	e25a2ea5 	.word	0xe25a2ea5

00001084 <rt_ret_val>:
    1084:	6ac3      	ldr	r3, [r0, #44]	; 0x2c
    1086:	6219      	str	r1, [r3, #32]
    1088:	4770      	bx	lr

0000108a <rt_ret_val2>:
    108a:	6ac3      	ldr	r3, [r0, #44]	; 0x2c
    108c:	6219      	str	r1, [r3, #32]
    108e:	625a      	str	r2, [r3, #36]	; 0x24
    1090:	4770      	bx	lr
	...

00001094 <rt_psh_req>:
    1094:	4b06      	ldr	r3, [pc, #24]	; (10b0 <rt_psh_req+0x1c>)
    1096:	781b      	ldrb	r3, [r3, #0]
    1098:	2b00      	cmp	r3, #0
    109a:	d104      	bne.n	10a6 <rt_psh_req+0x12>
    109c:	2280      	movs	r2, #128	; 0x80
    109e:	4b05      	ldr	r3, [pc, #20]	; (10b4 <rt_psh_req+0x20>)
    10a0:	0552      	lsls	r2, r2, #21
    10a2:	601a      	str	r2, [r3, #0]
    10a4:	4770      	bx	lr
    10a6:	2201      	movs	r2, #1
    10a8:	4b03      	ldr	r3, [pc, #12]	; (10b8 <rt_psh_req+0x24>)
    10aa:	701a      	strb	r2, [r3, #0]
    10ac:	e7fa      	b.n	10a4 <rt_psh_req+0x10>
    10ae:	46c0      	nop			; (mov r8, r8)
    10b0:	20000490 	.word	0x20000490
    10b4:	e000ed04 	.word	0xe000ed04
    10b8:	20000491 	.word	0x20000491

000010bc <rt_pop_req>:
    10bc:	4b1b      	ldr	r3, [pc, #108]	; (112c <rt_pop_req+0x70>)
    10be:	b570      	push	{r4, r5, r6, lr}
    10c0:	6818      	ldr	r0, [r3, #0]
    10c2:	2301      	movs	r3, #1
    10c4:	7043      	strb	r3, [r0, #1]
    10c6:	f7ff febb 	bl	e40 <rt_put_rdy_first>
    10ca:	4c19      	ldr	r4, [pc, #100]	; (1130 <rt_pop_req+0x74>)
    10cc:	7865      	ldrb	r5, [r4, #1]
    10ce:	78a3      	ldrb	r3, [r4, #2]
    10d0:	2b00      	cmp	r3, #0
    10d2:	d106      	bne.n	10e2 <rt_pop_req+0x26>
    10d4:	7065      	strb	r5, [r4, #1]
    10d6:	4817      	ldr	r0, [pc, #92]	; (1134 <rt_pop_req+0x78>)
    10d8:	f7ff fea0 	bl	e1c <rt_get_first>
    10dc:	f000 fdba 	bl	1c54 <rt_switch_req>
    10e0:	bd70      	pop	{r4, r5, r6, pc}
    10e2:	00eb      	lsls	r3, r5, #3
    10e4:	18e3      	adds	r3, r4, r3
    10e6:	6858      	ldr	r0, [r3, #4]
    10e8:	7802      	ldrb	r2, [r0, #0]
    10ea:	2a00      	cmp	r2, #0
    10ec:	d114      	bne.n	1118 <rt_pop_req+0x5c>
    10ee:	6899      	ldr	r1, [r3, #8]
    10f0:	b289      	uxth	r1, r1
    10f2:	f000 f9c7 	bl	1484 <rt_evt_psh>
    10f6:	78e3      	ldrb	r3, [r4, #3]
    10f8:	3501      	adds	r5, #1
    10fa:	429d      	cmp	r5, r3
    10fc:	d100      	bne.n	1100 <rt_pop_req+0x44>
    10fe:	2500      	movs	r5, #0
    1100:	f3ef 8310 	mrs	r3, PRIMASK
    1104:	f3ef 8210 	mrs	r2, PRIMASK
    1108:	b672      	cpsid	i
    110a:	78a2      	ldrb	r2, [r4, #2]
    110c:	3a01      	subs	r2, #1
    110e:	70a2      	strb	r2, [r4, #2]
    1110:	2b00      	cmp	r3, #0
    1112:	d1dc      	bne.n	10ce <rt_pop_req+0x12>
    1114:	b662      	cpsie	i
    1116:	e7da      	b.n	10ce <rt_pop_req+0x12>
    1118:	2a01      	cmp	r2, #1
    111a:	d103      	bne.n	1124 <rt_pop_req+0x68>
    111c:	6899      	ldr	r1, [r3, #8]
    111e:	f000 f93f 	bl	13a0 <rt_mbx_psh>
    1122:	e7e8      	b.n	10f6 <rt_pop_req+0x3a>
    1124:	f001 f8f2 	bl	230c <rt_sem_psh>
    1128:	e7e5      	b.n	10f6 <rt_pop_req+0x3a>
    112a:	46c0      	nop			; (mov r8, r8)
    112c:	20000e0c 	.word	0x20000e0c
    1130:	20000844 	.word	0x20000844
    1134:	20000dc0 	.word	0x20000dc0

00001138 <os_tick_init>:
    1138:	4b09      	ldr	r3, [pc, #36]	; (1160 <os_tick_init+0x28>)
    113a:	2001      	movs	r0, #1
    113c:	681a      	ldr	r2, [r3, #0]
    113e:	4b09      	ldr	r3, [pc, #36]	; (1164 <os_tick_init+0x2c>)
    1140:	4240      	negs	r0, r0
    1142:	601a      	str	r2, [r3, #0]
    1144:	2200      	movs	r2, #0
    1146:	4b08      	ldr	r3, [pc, #32]	; (1168 <os_tick_init+0x30>)
    1148:	601a      	str	r2, [r3, #0]
    114a:	4b08      	ldr	r3, [pc, #32]	; (116c <os_tick_init+0x34>)
    114c:	3207      	adds	r2, #7
    114e:	601a      	str	r2, [r3, #0]
    1150:	23ff      	movs	r3, #255	; 0xff
    1152:	4a07      	ldr	r2, [pc, #28]	; (1170 <os_tick_init+0x38>)
    1154:	061b      	lsls	r3, r3, #24
    1156:	6811      	ldr	r1, [r2, #0]
    1158:	430b      	orrs	r3, r1
    115a:	6013      	str	r3, [r2, #0]
    115c:	4770      	bx	lr
    115e:	46c0      	nop			; (mov r8, r8)
    1160:	00007320 	.word	0x00007320
    1164:	e000e014 	.word	0xe000e014
    1168:	e000e018 	.word	0xe000e018
    116c:	e000e010 	.word	0xe000e010
    1170:	e000ed20 	.word	0xe000ed20

00001174 <os_tick_irqack>:
    1174:	4770      	bx	lr
	...

00001178 <rt_systick>:
    1178:	4b0b      	ldr	r3, [pc, #44]	; (11a8 <rt_systick+0x30>)
    117a:	b510      	push	{r4, lr}
    117c:	6818      	ldr	r0, [r3, #0]
    117e:	2301      	movs	r3, #1
    1180:	7043      	strb	r3, [r0, #1]
    1182:	f7ff fe5d 	bl	e40 <rt_put_rdy_first>
    1186:	f000 f9b1 	bl	14ec <rt_chk_robin>
    118a:	4a08      	ldr	r2, [pc, #32]	; (11ac <rt_systick+0x34>)
    118c:	6813      	ldr	r3, [r2, #0]
    118e:	3301      	adds	r3, #1
    1190:	6013      	str	r3, [r2, #0]
    1192:	f7ff fe87 	bl	ea4 <rt_dec_dly>
    1196:	f000 fcdf 	bl	1b58 <sysTimerTick>
    119a:	4805      	ldr	r0, [pc, #20]	; (11b0 <rt_systick+0x38>)
    119c:	f7ff fe3e 	bl	e1c <rt_get_first>
    11a0:	f000 fd58 	bl	1c54 <rt_switch_req>
    11a4:	bd10      	pop	{r4, pc}
    11a6:	46c0      	nop			; (mov r8, r8)
    11a8:	20000e0c 	.word	0x20000e0c
    11ac:	20000e54 	.word	0x20000e54
    11b0:	20000dc0 	.word	0x20000dc0

000011b4 <rt_stk_check>:
    11b4:	4b07      	ldr	r3, [pc, #28]	; (11d4 <rt_stk_check+0x20>)
    11b6:	b510      	push	{r4, lr}
    11b8:	681a      	ldr	r2, [r3, #0]
    11ba:	6b13      	ldr	r3, [r2, #48]	; 0x30
    11bc:	6ad2      	ldr	r2, [r2, #44]	; 0x2c
    11be:	4293      	cmp	r3, r2
    11c0:	d803      	bhi.n	11ca <rt_stk_check+0x16>
    11c2:	4a05      	ldr	r2, [pc, #20]	; (11d8 <rt_stk_check+0x24>)
    11c4:	681b      	ldr	r3, [r3, #0]
    11c6:	4293      	cmp	r3, r2
    11c8:	d002      	beq.n	11d0 <rt_stk_check+0x1c>
    11ca:	2001      	movs	r0, #1
    11cc:	f7ff fdba 	bl	d44 <os_error>
    11d0:	bd10      	pop	{r4, pc}
    11d2:	46c0      	nop			; (mov r8, r8)
    11d4:	20000e0c 	.word	0x20000e0c
    11d8:	e25a2ea5 	.word	0xe25a2ea5

000011dc <_init_box>:
    11dc:	b530      	push	{r4, r5, lr}
    11de:	0003      	movs	r3, r0
    11e0:	2a00      	cmp	r2, #0
    11e2:	da18      	bge.n	1216 <_init_box+0x3a>
    11e4:	2007      	movs	r0, #7
    11e6:	2410      	movs	r4, #16
    11e8:	0052      	lsls	r2, r2, #1
    11ea:	0852      	lsrs	r2, r2, #1
    11ec:	3207      	adds	r2, #7
    11ee:	4382      	bics	r2, r0
    11f0:	2001      	movs	r0, #1
    11f2:	2a00      	cmp	r2, #0
    11f4:	d016      	beq.n	1224 <_init_box+0x48>
    11f6:	1915      	adds	r5, r2, r4
    11f8:	428d      	cmp	r5, r1
    11fa:	d813      	bhi.n	1224 <_init_box+0x48>
    11fc:	1859      	adds	r1, r3, r1
    11fe:	191c      	adds	r4, r3, r4
    1200:	4250      	negs	r0, r2
    1202:	6059      	str	r1, [r3, #4]
    1204:	601c      	str	r4, [r3, #0]
    1206:	609a      	str	r2, [r3, #8]
    1208:	1809      	adds	r1, r1, r0
    120a:	18a3      	adds	r3, r4, r2
    120c:	4299      	cmp	r1, r3
    120e:	d307      	bcc.n	1220 <_init_box+0x44>
    1210:	501b      	str	r3, [r3, r0]
    1212:	001c      	movs	r4, r3
    1214:	e7f9      	b.n	120a <_init_box+0x2e>
    1216:	2003      	movs	r0, #3
    1218:	3203      	adds	r2, #3
    121a:	4382      	bics	r2, r0
    121c:	240c      	movs	r4, #12
    121e:	e7e7      	b.n	11f0 <_init_box+0x14>
    1220:	2000      	movs	r0, #0
    1222:	6020      	str	r0, [r4, #0]
    1224:	bd30      	pop	{r4, r5, pc}

00001226 <rt_alloc_box>:
    1226:	f3ef 8210 	mrs	r2, PRIMASK
    122a:	b672      	cpsid	i
    122c:	2301      	movs	r3, #1
    122e:	401a      	ands	r2, r3
    1230:	6803      	ldr	r3, [r0, #0]
    1232:	2b00      	cmp	r3, #0
    1234:	d001      	beq.n	123a <rt_alloc_box+0x14>
    1236:	6819      	ldr	r1, [r3, #0]
    1238:	6001      	str	r1, [r0, #0]
    123a:	2a00      	cmp	r2, #0
    123c:	d100      	bne.n	1240 <rt_alloc_box+0x1a>
    123e:	b662      	cpsie	i
    1240:	0018      	movs	r0, r3
    1242:	4770      	bx	lr

00001244 <rt_free_box>:
    1244:	0003      	movs	r3, r0
    1246:	2001      	movs	r0, #1
    1248:	4299      	cmp	r1, r3
    124a:	d30c      	bcc.n	1266 <rt_free_box+0x22>
    124c:	685a      	ldr	r2, [r3, #4]
    124e:	4291      	cmp	r1, r2
    1250:	d209      	bcs.n	1266 <rt_free_box+0x22>
    1252:	f3ef 8210 	mrs	r2, PRIMASK
    1256:	b672      	cpsid	i
    1258:	6818      	ldr	r0, [r3, #0]
    125a:	6008      	str	r0, [r1, #0]
    125c:	6019      	str	r1, [r3, #0]
    125e:	2000      	movs	r0, #0
    1260:	07d3      	lsls	r3, r2, #31
    1262:	d400      	bmi.n	1266 <rt_free_box+0x22>
    1264:	b662      	cpsie	i
    1266:	4770      	bx	lr

00001268 <rt_mbx_init>:
    1268:	2301      	movs	r3, #1
    126a:	7003      	strb	r3, [r0, #0]
    126c:	2300      	movs	r3, #0
    126e:	3910      	subs	r1, #16
    1270:	0889      	lsrs	r1, r1, #2
    1272:	7043      	strb	r3, [r0, #1]
    1274:	7083      	strb	r3, [r0, #2]
    1276:	6043      	str	r3, [r0, #4]
    1278:	8103      	strh	r3, [r0, #8]
    127a:	8143      	strh	r3, [r0, #10]
    127c:	8183      	strh	r3, [r0, #12]
    127e:	81c1      	strh	r1, [r0, #14]
    1280:	4770      	bx	lr
	...

00001284 <rt_mbx_wait>:
    1284:	b570      	push	{r4, r5, r6, lr}
    1286:	0015      	movs	r5, r2
    1288:	8982      	ldrh	r2, [r0, #12]
    128a:	0004      	movs	r4, r0
    128c:	2a00      	cmp	r2, #0
    128e:	d03a      	beq.n	1306 <rt_mbx_wait+0x82>
    1290:	8943      	ldrh	r3, [r0, #10]
    1292:	1d18      	adds	r0, r3, #4
    1294:	0080      	lsls	r0, r0, #2
    1296:	5900      	ldr	r0, [r0, r4]
    1298:	3301      	adds	r3, #1
    129a:	6008      	str	r0, [r1, #0]
    129c:	89e1      	ldrh	r1, [r4, #14]
    129e:	b29b      	uxth	r3, r3
    12a0:	8163      	strh	r3, [r4, #10]
    12a2:	4299      	cmp	r1, r3
    12a4:	d101      	bne.n	12aa <rt_mbx_wait+0x26>
    12a6:	2300      	movs	r3, #0
    12a8:	8163      	strh	r3, [r4, #10]
    12aa:	6863      	ldr	r3, [r4, #4]
    12ac:	2b00      	cmp	r3, #0
    12ae:	d01e      	beq.n	12ee <rt_mbx_wait+0x6a>
    12b0:	7863      	ldrb	r3, [r4, #1]
    12b2:	2b02      	cmp	r3, #2
    12b4:	d11b      	bne.n	12ee <rt_mbx_wait+0x6a>
    12b6:	0020      	movs	r0, r4
    12b8:	f7ff fdb0 	bl	e1c <rt_get_first>
    12bc:	0005      	movs	r5, r0
    12be:	2100      	movs	r1, #0
    12c0:	f7ff fee0 	bl	1084 <rt_ret_val>
    12c4:	8923      	ldrh	r3, [r4, #8]
    12c6:	69e9      	ldr	r1, [r5, #28]
    12c8:	1d1a      	adds	r2, r3, #4
    12ca:	0092      	lsls	r2, r2, #2
    12cc:	5111      	str	r1, [r2, r4]
    12ce:	3301      	adds	r3, #1
    12d0:	89e2      	ldrh	r2, [r4, #14]
    12d2:	b29b      	uxth	r3, r3
    12d4:	8123      	strh	r3, [r4, #8]
    12d6:	429a      	cmp	r2, r3
    12d8:	d101      	bne.n	12de <rt_mbx_wait+0x5a>
    12da:	2300      	movs	r3, #0
    12dc:	8123      	strh	r3, [r4, #8]
    12de:	0028      	movs	r0, r5
    12e0:	f7ff fe48 	bl	f74 <rt_rmv_dly>
    12e4:	0028      	movs	r0, r5
    12e6:	f000 fcd3 	bl	1c90 <rt_dispatch>
    12ea:	2000      	movs	r0, #0
    12ec:	bd70      	pop	{r4, r5, r6, pc}
    12ee:	f3ef 8310 	mrs	r3, PRIMASK
    12f2:	f3ef 8110 	mrs	r1, PRIMASK
    12f6:	b672      	cpsid	i
    12f8:	2000      	movs	r0, #0
    12fa:	3a01      	subs	r2, #1
    12fc:	81a2      	strh	r2, [r4, #12]
    12fe:	4283      	cmp	r3, r0
    1300:	d1f4      	bne.n	12ec <rt_mbx_wait+0x68>
    1302:	b662      	cpsie	i
    1304:	e7f2      	b.n	12ec <rt_mbx_wait+0x68>
    1306:	2001      	movs	r0, #1
    1308:	2d00      	cmp	r5, #0
    130a:	d0ef      	beq.n	12ec <rt_mbx_wait+0x68>
    130c:	6862      	ldr	r2, [r4, #4]
    130e:	4b09      	ldr	r3, [pc, #36]	; (1334 <rt_mbx_wait+0xb0>)
    1310:	2a00      	cmp	r2, #0
    1312:	d009      	beq.n	1328 <rt_mbx_wait+0xa4>
    1314:	6819      	ldr	r1, [r3, #0]
    1316:	0020      	movs	r0, r4
    1318:	f7ff fd66 	bl	de8 <rt_put_prio>
    131c:	0028      	movs	r0, r5
    131e:	2108      	movs	r1, #8
    1320:	f000 fcd6 	bl	1cd0 <rt_block>
    1324:	2001      	movs	r0, #1
    1326:	e7e1      	b.n	12ec <rt_mbx_wait+0x68>
    1328:	681b      	ldr	r3, [r3, #0]
    132a:	6063      	str	r3, [r4, #4]
    132c:	605a      	str	r2, [r3, #4]
    132e:	609c      	str	r4, [r3, #8]
    1330:	7060      	strb	r0, [r4, #1]
    1332:	e7f3      	b.n	131c <rt_mbx_wait+0x98>
    1334:	20000e0c 	.word	0x20000e0c

00001338 <rt_mbx_check>:
    1338:	89c3      	ldrh	r3, [r0, #14]
    133a:	8980      	ldrh	r0, [r0, #12]
    133c:	1a18      	subs	r0, r3, r0
    133e:	4770      	bx	lr

00001340 <isr_mbx_send>:
    1340:	b510      	push	{r4, lr}
    1342:	f7ff fe2d 	bl	fa0 <rt_psq_enq>
    1346:	f7ff fea5 	bl	1094 <rt_psh_req>
    134a:	bd10      	pop	{r4, pc}

0000134c <isr_mbx_receive>:
    134c:	b510      	push	{r4, lr}
    134e:	0004      	movs	r4, r0
    1350:	8983      	ldrh	r3, [r0, #12]
    1352:	2000      	movs	r0, #0
    1354:	4283      	cmp	r3, r0
    1356:	d022      	beq.n	139e <isr_mbx_receive+0x52>
    1358:	8963      	ldrh	r3, [r4, #10]
    135a:	3304      	adds	r3, #4
    135c:	009b      	lsls	r3, r3, #2
    135e:	591b      	ldr	r3, [r3, r4]
    1360:	600b      	str	r3, [r1, #0]
    1362:	7863      	ldrb	r3, [r4, #1]
    1364:	2b02      	cmp	r3, #2
    1366:	d105      	bne.n	1374 <isr_mbx_receive+0x28>
    1368:	0001      	movs	r1, r0
    136a:	0020      	movs	r0, r4
    136c:	f7ff fe18 	bl	fa0 <rt_psq_enq>
    1370:	f7ff fe90 	bl	1094 <rt_psh_req>
    1374:	f3ef 8310 	mrs	r3, PRIMASK
    1378:	f3ef 8210 	mrs	r2, PRIMASK
    137c:	b672      	cpsid	i
    137e:	89a2      	ldrh	r2, [r4, #12]
    1380:	3a01      	subs	r2, #1
    1382:	81a2      	strh	r2, [r4, #12]
    1384:	2b00      	cmp	r3, #0
    1386:	d100      	bne.n	138a <isr_mbx_receive+0x3e>
    1388:	b662      	cpsie	i
    138a:	8963      	ldrh	r3, [r4, #10]
    138c:	89e2      	ldrh	r2, [r4, #14]
    138e:	3301      	adds	r3, #1
    1390:	b29b      	uxth	r3, r3
    1392:	8163      	strh	r3, [r4, #10]
    1394:	2004      	movs	r0, #4
    1396:	429a      	cmp	r2, r3
    1398:	d101      	bne.n	139e <isr_mbx_receive+0x52>
    139a:	2300      	movs	r3, #0
    139c:	8163      	strh	r3, [r4, #10]
    139e:	bd10      	pop	{r4, pc}

000013a0 <rt_mbx_psh>:
    13a0:	6843      	ldr	r3, [r0, #4]
    13a2:	b570      	push	{r4, r5, r6, lr}
    13a4:	0004      	movs	r4, r0
    13a6:	000d      	movs	r5, r1
    13a8:	2b00      	cmp	r3, #0
    13aa:	d04a      	beq.n	1442 <rt_mbx_psh+0xa2>
    13ac:	7846      	ldrb	r6, [r0, #1]
    13ae:	2e02      	cmp	r6, #2
    13b0:	d01f      	beq.n	13f2 <rt_mbx_psh+0x52>
    13b2:	2e03      	cmp	r6, #3
    13b4:	d00a      	beq.n	13cc <rt_mbx_psh+0x2c>
    13b6:	2e01      	cmp	r6, #1
    13b8:	d142      	bne.n	1440 <rt_mbx_psh+0xa0>
    13ba:	f7ff fd2f 	bl	e1c <rt_get_first>
    13be:	0004      	movs	r4, r0
    13c0:	002a      	movs	r2, r5
    13c2:	2110      	movs	r1, #16
    13c4:	f7ff fe61 	bl	108a <rt_ret_val2>
    13c8:	7066      	strb	r6, [r4, #1]
    13ca:	e00d      	b.n	13e8 <rt_mbx_psh+0x48>
    13cc:	0008      	movs	r0, r1
    13ce:	f7ff ff2a 	bl	1226 <rt_alloc_box>
    13d2:	1e05      	subs	r5, r0, #0
    13d4:	d034      	beq.n	1440 <rt_mbx_psh+0xa0>
    13d6:	0020      	movs	r0, r4
    13d8:	f7ff fd20 	bl	e1c <rt_get_first>
    13dc:	0029      	movs	r1, r5
    13de:	0004      	movs	r4, r0
    13e0:	f7ff fe50 	bl	1084 <rt_ret_val>
    13e4:	2301      	movs	r3, #1
    13e6:	7063      	strb	r3, [r4, #1]
    13e8:	0020      	movs	r0, r4
    13ea:	f7ff fdc3 	bl	f74 <rt_rmv_dly>
    13ee:	0021      	movs	r1, r4
    13f0:	e023      	b.n	143a <rt_mbx_psh+0x9a>
    13f2:	f7ff fd13 	bl	e1c <rt_get_first>
    13f6:	0005      	movs	r5, r0
    13f8:	2100      	movs	r1, #0
    13fa:	f7ff fe43 	bl	1084 <rt_ret_val>
    13fe:	8923      	ldrh	r3, [r4, #8]
    1400:	69e9      	ldr	r1, [r5, #28]
    1402:	1d1a      	adds	r2, r3, #4
    1404:	0092      	lsls	r2, r2, #2
    1406:	5111      	str	r1, [r2, r4]
    1408:	f3ef 8210 	mrs	r2, PRIMASK
    140c:	f3ef 8110 	mrs	r1, PRIMASK
    1410:	b672      	cpsid	i
    1412:	89a1      	ldrh	r1, [r4, #12]
    1414:	3101      	adds	r1, #1
    1416:	81a1      	strh	r1, [r4, #12]
    1418:	2a00      	cmp	r2, #0
    141a:	d100      	bne.n	141e <rt_mbx_psh+0x7e>
    141c:	b662      	cpsie	i
    141e:	3301      	adds	r3, #1
    1420:	89e2      	ldrh	r2, [r4, #14]
    1422:	b29b      	uxth	r3, r3
    1424:	8123      	strh	r3, [r4, #8]
    1426:	429a      	cmp	r2, r3
    1428:	d101      	bne.n	142e <rt_mbx_psh+0x8e>
    142a:	2300      	movs	r3, #0
    142c:	8123      	strh	r3, [r4, #8]
    142e:	2301      	movs	r3, #1
    1430:	0028      	movs	r0, r5
    1432:	706b      	strb	r3, [r5, #1]
    1434:	f7ff fd9e 	bl	f74 <rt_rmv_dly>
    1438:	0029      	movs	r1, r5
    143a:	4811      	ldr	r0, [pc, #68]	; (1480 <rt_mbx_psh+0xe0>)
    143c:	f7ff fcd4 	bl	de8 <rt_put_prio>
    1440:	bd70      	pop	{r4, r5, r6, pc}
    1442:	8982      	ldrh	r2, [r0, #12]
    1444:	89c0      	ldrh	r0, [r0, #14]
    1446:	4282      	cmp	r2, r0
    1448:	d215      	bcs.n	1476 <rt_mbx_psh+0xd6>
    144a:	8923      	ldrh	r3, [r4, #8]
    144c:	1d19      	adds	r1, r3, #4
    144e:	0089      	lsls	r1, r1, #2
    1450:	510d      	str	r5, [r1, r4]
    1452:	f3ef 8110 	mrs	r1, PRIMASK
    1456:	f3ef 8510 	mrs	r5, PRIMASK
    145a:	b672      	cpsid	i
    145c:	3201      	adds	r2, #1
    145e:	81a2      	strh	r2, [r4, #12]
    1460:	2900      	cmp	r1, #0
    1462:	d100      	bne.n	1466 <rt_mbx_psh+0xc6>
    1464:	b662      	cpsie	i
    1466:	3301      	adds	r3, #1
    1468:	b29b      	uxth	r3, r3
    146a:	4298      	cmp	r0, r3
    146c:	d001      	beq.n	1472 <rt_mbx_psh+0xd2>
    146e:	8123      	strh	r3, [r4, #8]
    1470:	e7e6      	b.n	1440 <rt_mbx_psh+0xa0>
    1472:	2300      	movs	r3, #0
    1474:	e7fb      	b.n	146e <rt_mbx_psh+0xce>
    1476:	2003      	movs	r0, #3
    1478:	f7ff fc64 	bl	d44 <os_error>
    147c:	e7e0      	b.n	1440 <rt_mbx_psh+0xa0>
    147e:	46c0      	nop			; (mov r8, r8)
    1480:	20000dc0 	.word	0x20000dc0

00001484 <rt_evt_psh>:
    1484:	b510      	push	{r4, lr}
    1486:	8b03      	ldrh	r3, [r0, #24]
    1488:	7842      	ldrb	r2, [r0, #1]
    148a:	4319      	orrs	r1, r3
    148c:	0004      	movs	r4, r0
    148e:	8301      	strh	r1, [r0, #24]
    1490:	8b43      	ldrh	r3, [r0, #26]
    1492:	2a06      	cmp	r2, #6
    1494:	d114      	bne.n	14c0 <rt_evt_psh+0x3c>
    1496:	001a      	movs	r2, r3
    1498:	400a      	ands	r2, r1
    149a:	4293      	cmp	r3, r2
    149c:	d10f      	bne.n	14be <rt_evt_psh+0x3a>
    149e:	4399      	bics	r1, r3
    14a0:	8321      	strh	r1, [r4, #24]
    14a2:	0020      	movs	r0, r4
    14a4:	f7ff fd66 	bl	f74 <rt_rmv_dly>
    14a8:	2301      	movs	r3, #1
    14aa:	2108      	movs	r1, #8
    14ac:	0020      	movs	r0, r4
    14ae:	7063      	strb	r3, [r4, #1]
    14b0:	8b62      	ldrh	r2, [r4, #26]
    14b2:	f7ff fdea 	bl	108a <rt_ret_val2>
    14b6:	0021      	movs	r1, r4
    14b8:	4805      	ldr	r0, [pc, #20]	; (14d0 <rt_evt_psh+0x4c>)
    14ba:	f7ff fc95 	bl	de8 <rt_put_prio>
    14be:	bd10      	pop	{r4, pc}
    14c0:	2a05      	cmp	r2, #5
    14c2:	d1fc      	bne.n	14be <rt_evt_psh+0x3a>
    14c4:	001a      	movs	r2, r3
    14c6:	400a      	ands	r2, r1
    14c8:	d0f9      	beq.n	14be <rt_evt_psh+0x3a>
    14ca:	8342      	strh	r2, [r0, #26]
    14cc:	e7e7      	b.n	149e <rt_evt_psh+0x1a>
    14ce:	46c0      	nop			; (mov r8, r8)
    14d0:	20000dc0 	.word	0x20000dc0

000014d4 <rt_init_robin>:
    14d4:	2200      	movs	r2, #0
    14d6:	4b03      	ldr	r3, [pc, #12]	; (14e4 <rt_init_robin+0x10>)
    14d8:	601a      	str	r2, [r3, #0]
    14da:	4a03      	ldr	r2, [pc, #12]	; (14e8 <rt_init_robin+0x14>)
    14dc:	6812      	ldr	r2, [r2, #0]
    14de:	80da      	strh	r2, [r3, #6]
    14e0:	4770      	bx	lr
    14e2:	46c0      	nop			; (mov r8, r8)
    14e4:	20000df8 	.word	0x20000df8
    14e8:	00007304 	.word	0x00007304

000014ec <rt_chk_robin>:
    14ec:	b510      	push	{r4, lr}
    14ee:	4b0d      	ldr	r3, [pc, #52]	; (1524 <rt_chk_robin+0x38>)
    14f0:	4c0d      	ldr	r4, [pc, #52]	; (1528 <rt_chk_robin+0x3c>)
    14f2:	6818      	ldr	r0, [r3, #0]
    14f4:	6862      	ldr	r2, [r4, #4]
    14f6:	490d      	ldr	r1, [pc, #52]	; (152c <rt_chk_robin+0x40>)
    14f8:	4290      	cmp	r0, r2
    14fa:	d005      	beq.n	1508 <rt_chk_robin+0x1c>
    14fc:	601a      	str	r2, [r3, #0]
    14fe:	88da      	ldrh	r2, [r3, #6]
    1500:	6808      	ldr	r0, [r1, #0]
    1502:	3a01      	subs	r2, #1
    1504:	1882      	adds	r2, r0, r2
    1506:	809a      	strh	r2, [r3, #4]
    1508:	8898      	ldrh	r0, [r3, #4]
    150a:	880a      	ldrh	r2, [r1, #0]
    150c:	4290      	cmp	r0, r2
    150e:	d108      	bne.n	1522 <rt_chk_robin+0x36>
    1510:	2200      	movs	r2, #0
    1512:	0020      	movs	r0, r4
    1514:	601a      	str	r2, [r3, #0]
    1516:	f7ff fc81 	bl	e1c <rt_get_first>
    151a:	0001      	movs	r1, r0
    151c:	0020      	movs	r0, r4
    151e:	f7ff fc63 	bl	de8 <rt_put_prio>
    1522:	bd10      	pop	{r4, pc}
    1524:	20000df8 	.word	0x20000df8
    1528:	20000dc0 	.word	0x20000dc0
    152c:	20000e54 	.word	0x20000e54

00001530 <rt_timer_insert>:
    1530:	2200      	movs	r2, #0
    1532:	b530      	push	{r4, r5, lr}
    1534:	4c0b      	ldr	r4, [pc, #44]	; (1564 <rt_timer_insert+0x34>)
    1536:	6823      	ldr	r3, [r4, #0]
    1538:	2b00      	cmp	r3, #0
    153a:	d10a      	bne.n	1552 <rt_timer_insert+0x22>
    153c:	6003      	str	r3, [r0, #0]
    153e:	6081      	str	r1, [r0, #8]
    1540:	2b00      	cmp	r3, #0
    1542:	d002      	beq.n	154a <rt_timer_insert+0x1a>
    1544:	689d      	ldr	r5, [r3, #8]
    1546:	1a69      	subs	r1, r5, r1
    1548:	6099      	str	r1, [r3, #8]
    154a:	2a00      	cmp	r2, #0
    154c:	d008      	beq.n	1560 <rt_timer_insert+0x30>
    154e:	6010      	str	r0, [r2, #0]
    1550:	bd30      	pop	{r4, r5, pc}
    1552:	689d      	ldr	r5, [r3, #8]
    1554:	42a9      	cmp	r1, r5
    1556:	d3f1      	bcc.n	153c <rt_timer_insert+0xc>
    1558:	001a      	movs	r2, r3
    155a:	1b49      	subs	r1, r1, r5
    155c:	681b      	ldr	r3, [r3, #0]
    155e:	e7eb      	b.n	1538 <rt_timer_insert+0x8>
    1560:	6020      	str	r0, [r4, #0]
    1562:	e7f5      	b.n	1550 <rt_timer_insert+0x20>
    1564:	20000e08 	.word	0x20000e08

00001568 <rt_ms2tick>:
    1568:	2300      	movs	r3, #0
    156a:	b513      	push	{r0, r1, r4, lr}
    156c:	0002      	movs	r2, r0
    156e:	4298      	cmp	r0, r3
    1570:	d015      	beq.n	159e <rt_ms2tick+0x36>
    1572:	1c43      	adds	r3, r0, #1
    1574:	d015      	beq.n	15a2 <rt_ms2tick+0x3a>
    1576:	4c0c      	ldr	r4, [pc, #48]	; (15a8 <rt_ms2tick+0x40>)
    1578:	490c      	ldr	r1, [pc, #48]	; (15ac <rt_ms2tick+0x44>)
    157a:	0023      	movs	r3, r4
    157c:	4288      	cmp	r0, r1
    157e:	d80e      	bhi.n	159e <rt_ms2tick+0x36>
    1580:	20fa      	movs	r0, #250	; 0xfa
    1582:	4b0b      	ldr	r3, [pc, #44]	; (15b0 <rt_ms2tick+0x48>)
    1584:	0080      	lsls	r0, r0, #2
    1586:	4350      	muls	r0, r2
    1588:	681b      	ldr	r3, [r3, #0]
    158a:	9301      	str	r3, [sp, #4]
    158c:	3b01      	subs	r3, #1
    158e:	18c0      	adds	r0, r0, r3
    1590:	9901      	ldr	r1, [sp, #4]
    1592:	f002 fcc1 	bl	3f18 <__udivsi3>
    1596:	0023      	movs	r3, r4
    1598:	42a0      	cmp	r0, r4
    159a:	d800      	bhi.n	159e <rt_ms2tick+0x36>
    159c:	b283      	uxth	r3, r0
    159e:	0018      	movs	r0, r3
    15a0:	bd16      	pop	{r1, r2, r4, pc}
    15a2:	4b04      	ldr	r3, [pc, #16]	; (15b4 <rt_ms2tick+0x4c>)
    15a4:	e7fb      	b.n	159e <rt_ms2tick+0x36>
    15a6:	46c0      	nop			; (mov r8, r8)
    15a8:	0000fffe 	.word	0x0000fffe
    15ac:	003d0900 	.word	0x003d0900
    15b0:	000072bc 	.word	0x000072bc
    15b4:	0000ffff 	.word	0x0000ffff

000015b8 <rt_tid2ptcb>:
    15b8:	2800      	cmp	r0, #0
    15ba:	d006      	beq.n	15ca <rt_tid2ptcb+0x12>
    15bc:	0783      	lsls	r3, r0, #30
    15be:	d105      	bne.n	15cc <rt_tid2ptcb+0x14>
    15c0:	7803      	ldrb	r3, [r0, #0]
    15c2:	425a      	negs	r2, r3
    15c4:	4153      	adcs	r3, r2
    15c6:	425b      	negs	r3, r3
    15c8:	4018      	ands	r0, r3
    15ca:	4770      	bx	lr
    15cc:	2000      	movs	r0, #0
    15ce:	e7fc      	b.n	15ca <rt_tid2ptcb+0x12>

000015d0 <svcKernelStart>:
    15d0:	b5b0      	push	{r4, r5, r7, lr}
    15d2:	4d0f      	ldr	r5, [pc, #60]	; (1610 <svcKernelStart+0x40>)
    15d4:	af00      	add	r7, sp, #0
    15d6:	7828      	ldrb	r0, [r5, #0]
    15d8:	2800      	cmp	r0, #0
    15da:	d115      	bne.n	1608 <svcKernelStart+0x38>
    15dc:	4c0d      	ldr	r4, [pc, #52]	; (1614 <svcKernelStart+0x44>)
    15de:	6823      	ldr	r3, [r4, #0]
    15e0:	3305      	adds	r3, #5
    15e2:	7fd9      	ldrb	r1, [r3, #31]
    15e4:	f000 fb96 	bl	1d14 <rt_tsk_prio>
    15e8:	6823      	ldr	r3, [r4, #0]
    15ea:	78da      	ldrb	r2, [r3, #3]
    15ec:	2aff      	cmp	r2, #255	; 0xff
    15ee:	d103      	bne.n	15f8 <svcKernelStart+0x28>
    15f0:	6ada      	ldr	r2, [r3, #44]	; 0x2c
    15f2:	3220      	adds	r2, #32
    15f4:	f382 8809 	msr	PSP, r2
    15f8:	6862      	ldr	r2, [r4, #4]
    15fa:	2a00      	cmp	r2, #0
    15fc:	d100      	bne.n	1600 <svcKernelStart+0x30>
    15fe:	c40c      	stmia	r4!, {r2, r3}
    1600:	f000 fd3c 	bl	207c <rt_sys_start>
    1604:	2301      	movs	r3, #1
    1606:	702b      	strb	r3, [r5, #0]
    1608:	46bd      	mov	sp, r7
    160a:	2000      	movs	r0, #0
    160c:	bdb0      	pop	{r4, r5, r7, pc}
    160e:	46c0      	nop			; (mov r8, r8)
    1610:	20000e05 	.word	0x20000e05
    1614:	20000e0c 	.word	0x20000e0c

00001618 <svcKernelRunning>:
    1618:	4b01      	ldr	r3, [pc, #4]	; (1620 <svcKernelRunning+0x8>)
    161a:	7818      	ldrb	r0, [r3, #0]
    161c:	4770      	bx	lr
    161e:	46c0      	nop			; (mov r8, r8)
    1620:	20000e05 	.word	0x20000e05

00001624 <osKernelRunning>:
    1624:	b590      	push	{r4, r7, lr}
    1626:	f3ef 8410 	mrs	r4, PRIMASK
    162a:	2c00      	cmp	r4, #0
    162c:	d107      	bne.n	163e <osKernelRunning+0x1a>
    162e:	f3ef 8405 	mrs	r4, IPSR
    1632:	2c00      	cmp	r4, #0
    1634:	d103      	bne.n	163e <osKernelRunning+0x1a>
    1636:	f3ef 8414 	mrs	r4, CONTROL
    163a:	07e4      	lsls	r4, r4, #31
    163c:	d402      	bmi.n	1644 <osKernelRunning+0x20>
    163e:	4b03      	ldr	r3, [pc, #12]	; (164c <osKernelRunning+0x28>)
    1640:	7818      	ldrb	r0, [r3, #0]
    1642:	bd90      	pop	{r4, r7, pc}
    1644:	4f02      	ldr	r7, [pc, #8]	; (1650 <osKernelRunning+0x2c>)
    1646:	46bc      	mov	r12, r7
    1648:	df00      	svc	0
    164a:	e7fa      	b.n	1642 <osKernelRunning+0x1e>
    164c:	20000e05 	.word	0x20000e05
    1650:	00001619 	.word	0x00001619

00001654 <osKernelStart>:
    1654:	b5f0      	push	{r4, r5, r6, r7, lr}
    1656:	b089      	sub	sp, #36	; 0x24
    1658:	af00      	add	r7, sp, #0
    165a:	f3ef 8310 	mrs	r3, PRIMASK
    165e:	2582      	movs	r5, #130	; 0x82
    1660:	2b00      	cmp	r3, #0
    1662:	d13a      	bne.n	16da <osKernelStart+0x86>
    1664:	f3ef 8305 	mrs	r3, IPSR
    1668:	2b00      	cmp	r3, #0
    166a:	d136      	bne.n	16da <osKernelStart+0x86>
    166c:	f7ff ffda 	bl	1624 <osKernelRunning>
    1670:	2800      	cmp	r0, #0
    1672:	d107      	bne.n	1684 <osKernelStart+0x30>
    1674:	4c1b      	ldr	r4, [pc, #108]	; (16e4 <osKernelStart+0x90>)
    1676:	6824      	ldr	r4, [r4, #0]
    1678:	2c00      	cmp	r4, #0
    167a:	d003      	beq.n	1684 <osKernelStart+0x30>
    167c:	6864      	ldr	r4, [r4, #4]
    167e:	2c00      	cmp	r4, #0
    1680:	d000      	beq.n	1684 <osKernelStart+0x30>
    1682:	47a0      	blx	r4
    1684:	f3ef 8414 	mrs	r4, CONTROL
    1688:	2603      	movs	r6, #3
    168a:	4034      	ands	r4, r6
    168c:	2c02      	cmp	r4, #2
    168e:	d018      	beq.n	16c2 <osKernelStart+0x6e>
    1690:	42b4      	cmp	r4, r6
    1692:	d01d      	beq.n	16d0 <osKernelStart+0x7c>
    1694:	25ff      	movs	r5, #255	; 0xff
    1696:	2c01      	cmp	r4, #1
    1698:	d01f      	beq.n	16da <osKernelStart+0x86>
    169a:	2420      	movs	r4, #32
    169c:	193c      	adds	r4, r7, r4
    169e:	f384 8809 	msr	PSP, r4
    16a2:	4c11      	ldr	r4, [pc, #68]	; (16e8 <osKernelStart+0x94>)
    16a4:	7824      	ldrb	r4, [r4, #0]
    16a6:	07e4      	lsls	r4, r4, #31
    16a8:	d50f      	bpl.n	16ca <osKernelStart+0x76>
    16aa:	2402      	movs	r4, #2
    16ac:	f384 8814 	msr	CONTROL, r4
    16b0:	f3bf 8f4f 	dsb	sy
    16b4:	f3bf 8f6f 	isb	sy
    16b8:	4f0c      	ldr	r7, [pc, #48]	; (16ec <osKernelStart+0x98>)
    16ba:	46bc      	mov	r12, r7
    16bc:	df00      	svc	0
    16be:	0005      	movs	r5, r0
    16c0:	e00b      	b.n	16da <osKernelStart+0x86>
    16c2:	4c09      	ldr	r4, [pc, #36]	; (16e8 <osKernelStart+0x94>)
    16c4:	7824      	ldrb	r4, [r4, #0]
    16c6:	07e4      	lsls	r4, r4, #31
    16c8:	d4f6      	bmi.n	16b8 <osKernelStart+0x64>
    16ca:	f386 8814 	msr	CONTROL, r6
    16ce:	e7ef      	b.n	16b0 <osKernelStart+0x5c>
    16d0:	4c05      	ldr	r4, [pc, #20]	; (16e8 <osKernelStart+0x94>)
    16d2:	25ff      	movs	r5, #255	; 0xff
    16d4:	7824      	ldrb	r4, [r4, #0]
    16d6:	07e4      	lsls	r4, r4, #31
    16d8:	d5ee      	bpl.n	16b8 <osKernelStart+0x64>
    16da:	0028      	movs	r0, r5
    16dc:	46bd      	mov	sp, r7
    16de:	b009      	add	sp, #36	; 0x24
    16e0:	bdf0      	pop	{r4, r5, r6, r7, pc}
    16e2:	46c0      	nop			; (mov r8, r8)
    16e4:	20000df4 	.word	0x20000df4
    16e8:	000072ea 	.word	0x000072ea
    16ec:	000015d1 	.word	0x000015d1

000016f0 <svcThreadCreate>:
    16f0:	b570      	push	{r4, r5, r6, lr}
    16f2:	000b      	movs	r3, r1
    16f4:	0015      	movs	r5, r2
    16f6:	2800      	cmp	r0, #0
    16f8:	d102      	bne.n	1700 <svcThreadCreate+0x10>
    16fa:	2400      	movs	r4, #0
    16fc:	0020      	movs	r0, r4
    16fe:	bd70      	pop	{r4, r5, r6, pc}
    1700:	6806      	ldr	r6, [r0, #0]
    1702:	2e00      	cmp	r6, #0
    1704:	d0f9      	beq.n	16fa <svcThreadCreate+0xa>
    1706:	2204      	movs	r2, #4
    1708:	5e84      	ldrsh	r4, [r0, r2]
    170a:	1ce2      	adds	r2, r4, #3
    170c:	b292      	uxth	r2, r2
    170e:	2a06      	cmp	r2, #6
    1710:	d8f3      	bhi.n	16fa <svcThreadCreate+0xa>
    1712:	2200      	movs	r2, #0
    1714:	68c1      	ldr	r1, [r0, #12]
    1716:	4291      	cmp	r1, r2
    1718:	d000      	beq.n	171c <svcThreadCreate+0x2c>
    171a:	6902      	ldr	r2, [r0, #16]
    171c:	3404      	adds	r4, #4
    171e:	0209      	lsls	r1, r1, #8
    1720:	4321      	orrs	r1, r4
    1722:	0030      	movs	r0, r6
    1724:	f000 fb36 	bl	1d94 <rt_tsk_create>
    1728:	2800      	cmp	r0, #0
    172a:	d0e6      	beq.n	16fa <svcThreadCreate+0xa>
    172c:	4b0a      	ldr	r3, [pc, #40]	; (1758 <svcThreadCreate+0x68>)
    172e:	3801      	subs	r0, #1
    1730:	0080      	lsls	r0, r0, #2
    1732:	58c4      	ldr	r4, [r0, r3]
    1734:	4a09      	ldr	r2, [pc, #36]	; (175c <svcThreadCreate+0x6c>)
    1736:	6ae3      	ldr	r3, [r4, #44]	; 0x2c
    1738:	635a      	str	r2, [r3, #52]	; 0x34
    173a:	4b09      	ldr	r3, [pc, #36]	; (1760 <svcThreadCreate+0x70>)
    173c:	681b      	ldr	r3, [r3, #0]
    173e:	2b00      	cmp	r3, #0
    1740:	d007      	beq.n	1752 <svcThreadCreate+0x62>
    1742:	689b      	ldr	r3, [r3, #8]
    1744:	2b00      	cmp	r3, #0
    1746:	d004      	beq.n	1752 <svcThreadCreate+0x62>
    1748:	78e0      	ldrb	r0, [r4, #3]
    174a:	0029      	movs	r1, r5
    174c:	4798      	blx	r3
    174e:	63e0      	str	r0, [r4, #60]	; 0x3c
    1750:	e7d4      	b.n	16fc <svcThreadCreate+0xc>
    1752:	63e5      	str	r5, [r4, #60]	; 0x3c
    1754:	e7d2      	b.n	16fc <svcThreadCreate+0xc>
    1756:	46c0      	nop			; (mov r8, r8)
    1758:	20000828 	.word	0x20000828
    175c:	00001929 	.word	0x00001929
    1760:	20000df4 	.word	0x20000df4

00001764 <svcThreadGetId>:
    1764:	b510      	push	{r4, lr}
    1766:	f000 facd 	bl	1d04 <rt_tsk_self>
    176a:	1e03      	subs	r3, r0, #0
    176c:	d003      	beq.n	1776 <svcThreadGetId+0x12>
    176e:	3801      	subs	r0, #1
    1770:	4b02      	ldr	r3, [pc, #8]	; (177c <svcThreadGetId+0x18>)
    1772:	0080      	lsls	r0, r0, #2
    1774:	58c3      	ldr	r3, [r0, r3]
    1776:	0018      	movs	r0, r3
    1778:	bd10      	pop	{r4, pc}
    177a:	46c0      	nop			; (mov r8, r8)
    177c:	20000828 	.word	0x20000828

00001780 <svcThreadTerminate>:
    1780:	b510      	push	{r4, lr}
    1782:	f7ff ff19 	bl	15b8 <rt_tid2ptcb>
    1786:	2380      	movs	r3, #128	; 0x80
    1788:	1e04      	subs	r4, r0, #0
    178a:	d00f      	beq.n	17ac <svcThreadTerminate+0x2c>
    178c:	4b08      	ldr	r3, [pc, #32]	; (17b0 <svcThreadTerminate+0x30>)
    178e:	681b      	ldr	r3, [r3, #0]
    1790:	2b00      	cmp	r3, #0
    1792:	d004      	beq.n	179e <svcThreadTerminate+0x1e>
    1794:	68db      	ldr	r3, [r3, #12]
    1796:	2b00      	cmp	r3, #0
    1798:	d001      	beq.n	179e <svcThreadTerminate+0x1e>
    179a:	6bc0      	ldr	r0, [r0, #60]	; 0x3c
    179c:	4798      	blx	r3
    179e:	78e0      	ldrb	r0, [r4, #3]
    17a0:	f000 fb4a 	bl	1e38 <rt_tsk_delete>
    17a4:	2381      	movs	r3, #129	; 0x81
    17a6:	28ff      	cmp	r0, #255	; 0xff
    17a8:	d000      	beq.n	17ac <svcThreadTerminate+0x2c>
    17aa:	2300      	movs	r3, #0
    17ac:	0018      	movs	r0, r3
    17ae:	bd10      	pop	{r4, pc}
    17b0:	20000df4 	.word	0x20000df4

000017b4 <svcDelay>:
    17b4:	2300      	movs	r3, #0
    17b6:	b510      	push	{r4, lr}
    17b8:	4298      	cmp	r0, r3
    17ba:	d004      	beq.n	17c6 <svcDelay+0x12>
    17bc:	f7ff fed4 	bl	1568 <rt_ms2tick>
    17c0:	f000 fd9e 	bl	2300 <rt_dly_wait>
    17c4:	2340      	movs	r3, #64	; 0x40
    17c6:	0018      	movs	r0, r3
    17c8:	bd10      	pop	{r4, pc}
	...

000017cc <osDelay>:
    17cc:	b5b0      	push	{r4, r5, r7, lr}
    17ce:	0005      	movs	r5, r0
    17d0:	f3ef 8410 	mrs	r4, PRIMASK
    17d4:	2082      	movs	r0, #130	; 0x82
    17d6:	2c00      	cmp	r4, #0
    17d8:	d107      	bne.n	17ea <osDelay+0x1e>
    17da:	f3ef 8405 	mrs	r4, IPSR
    17de:	2c00      	cmp	r4, #0
    17e0:	d103      	bne.n	17ea <osDelay+0x1e>
    17e2:	0028      	movs	r0, r5
    17e4:	4f01      	ldr	r7, [pc, #4]	; (17ec <osDelay+0x20>)
    17e6:	46bc      	mov	r12, r7
    17e8:	df00      	svc	0
    17ea:	bdb0      	pop	{r4, r5, r7, pc}
    17ec:	000017b5 	.word	0x000017b5

000017f0 <svcTimerCall>:
    17f0:	0783      	lsls	r3, r0, #30
    17f2:	d106      	bne.n	1802 <svcTimerCall+0x12>
    17f4:	2800      	cmp	r0, #0
    17f6:	d007      	beq.n	1808 <svcTimerCall+0x18>
    17f8:	6943      	ldr	r3, [r0, #20]
    17fa:	6901      	ldr	r1, [r0, #16]
    17fc:	681b      	ldr	r3, [r3, #0]
    17fe:	0018      	movs	r0, r3
    1800:	4770      	bx	lr
    1802:	2300      	movs	r3, #0
    1804:	0019      	movs	r1, r3
    1806:	e7fa      	b.n	17fe <svcTimerCall+0xe>
    1808:	0003      	movs	r3, r0
    180a:	e7fb      	b.n	1804 <svcTimerCall+0x14>

0000180c <osTimerCall>:
    180c:	b590      	push	{r4, r7, lr}
    180e:	0004      	movs	r4, r0
    1810:	0008      	movs	r0, r1
    1812:	4f03      	ldr	r7, [pc, #12]	; (1820 <osTimerCall+0x14>)
    1814:	46bc      	mov	r12, r7
    1816:	df00      	svc	0
    1818:	6020      	str	r0, [r4, #0]
    181a:	6061      	str	r1, [r4, #4]
    181c:	0020      	movs	r0, r4
    181e:	bd90      	pop	{r4, r7, pc}
    1820:	000017f1 	.word	0x000017f1

00001824 <svcMutexCreate>:
    1824:	b510      	push	{r4, lr}
    1826:	1e03      	subs	r3, r0, #0
    1828:	d00a      	beq.n	1840 <svcMutexCreate+0x1c>
    182a:	6804      	ldr	r4, [r0, #0]
    182c:	1e23      	subs	r3, r4, #0
    182e:	d007      	beq.n	1840 <svcMutexCreate+0x1c>
    1830:	2300      	movs	r3, #0
    1832:	7822      	ldrb	r2, [r4, #0]
    1834:	429a      	cmp	r2, r3
    1836:	d103      	bne.n	1840 <svcMutexCreate+0x1c>
    1838:	0020      	movs	r0, r4
    183a:	f000 fc55 	bl	20e8 <rt_mut_init>
    183e:	0023      	movs	r3, r4
    1840:	0018      	movs	r0, r3
    1842:	bd10      	pop	{r4, pc}

00001844 <svcMutexWait>:
    1844:	b570      	push	{r4, r5, r6, lr}
    1846:	2403      	movs	r4, #3
    1848:	0005      	movs	r5, r0
    184a:	000e      	movs	r6, r1
    184c:	4004      	ands	r4, r0
    184e:	2380      	movs	r3, #128	; 0x80
    1850:	2c00      	cmp	r4, #0
    1852:	d112      	bne.n	187a <svcMutexWait+0x36>
    1854:	2800      	cmp	r0, #0
    1856:	d010      	beq.n	187a <svcMutexWait+0x36>
    1858:	7802      	ldrb	r2, [r0, #0]
    185a:	2a03      	cmp	r2, #3
    185c:	d10d      	bne.n	187a <svcMutexWait+0x36>
    185e:	0008      	movs	r0, r1
    1860:	f7ff fe82 	bl	1568 <rt_ms2tick>
    1864:	0001      	movs	r1, r0
    1866:	0028      	movs	r0, r5
    1868:	f000 fd16 	bl	2298 <rt_mut_wait>
    186c:	0023      	movs	r3, r4
    186e:	2801      	cmp	r0, #1
    1870:	d103      	bne.n	187a <svcMutexWait+0x36>
    1872:	33c1      	adds	r3, #193	; 0xc1
    1874:	2e00      	cmp	r6, #0
    1876:	d100      	bne.n	187a <svcMutexWait+0x36>
    1878:	3b40      	subs	r3, #64	; 0x40
    187a:	0018      	movs	r0, r3
    187c:	bd70      	pop	{r4, r5, r6, pc}

0000187e <svcMutexRelease>:
    187e:	b510      	push	{r4, lr}
    1880:	2403      	movs	r4, #3
    1882:	2380      	movs	r3, #128	; 0x80
    1884:	4004      	ands	r4, r0
    1886:	d10a      	bne.n	189e <svcMutexRelease+0x20>
    1888:	2800      	cmp	r0, #0
    188a:	d008      	beq.n	189e <svcMutexRelease+0x20>
    188c:	7802      	ldrb	r2, [r0, #0]
    188e:	2a03      	cmp	r2, #3
    1890:	d105      	bne.n	189e <svcMutexRelease+0x20>
    1892:	f000 fc8d 	bl	21b0 <rt_mut_release>
    1896:	2381      	movs	r3, #129	; 0x81
    1898:	28ff      	cmp	r0, #255	; 0xff
    189a:	d000      	beq.n	189e <svcMutexRelease+0x20>
    189c:	0023      	movs	r3, r4
    189e:	0018      	movs	r0, r3
    18a0:	bd10      	pop	{r4, pc}

000018a2 <svcMutexDelete>:
    18a2:	b510      	push	{r4, lr}
    18a4:	2403      	movs	r4, #3
    18a6:	2380      	movs	r3, #128	; 0x80
    18a8:	4004      	ands	r4, r0
    18aa:	d107      	bne.n	18bc <svcMutexDelete+0x1a>
    18ac:	2800      	cmp	r0, #0
    18ae:	d005      	beq.n	18bc <svcMutexDelete+0x1a>
    18b0:	7802      	ldrb	r2, [r0, #0]
    18b2:	2a03      	cmp	r2, #3
    18b4:	d102      	bne.n	18bc <svcMutexDelete+0x1a>
    18b6:	f000 fc1f 	bl	20f8 <rt_mut_delete>
    18ba:	0023      	movs	r3, r4
    18bc:	0018      	movs	r0, r3
    18be:	bd10      	pop	{r4, pc}

000018c0 <osMutexCreate>:
    18c0:	b5f8      	push	{r3, r4, r5, r6, r7, lr}
    18c2:	0005      	movs	r5, r0
    18c4:	f3ef 8610 	mrs	r6, PRIMASK
    18c8:	2000      	movs	r0, #0
    18ca:	4286      	cmp	r6, r0
    18cc:	d10f      	bne.n	18ee <osMutexCreate+0x2e>
    18ce:	f3ef 8405 	mrs	r4, IPSR
    18d2:	0030      	movs	r0, r6
    18d4:	2c00      	cmp	r4, #0
    18d6:	d10a      	bne.n	18ee <osMutexCreate+0x2e>
    18d8:	f3ef 8014 	mrs	r0, CONTROL
    18dc:	07c0      	lsls	r0, r0, #31
    18de:	d407      	bmi.n	18f0 <osMutexCreate+0x30>
    18e0:	4806      	ldr	r0, [pc, #24]	; (18fc <osMutexCreate+0x3c>)
    18e2:	7800      	ldrb	r0, [r0, #0]
    18e4:	2800      	cmp	r0, #0
    18e6:	d103      	bne.n	18f0 <osMutexCreate+0x30>
    18e8:	0028      	movs	r0, r5
    18ea:	f7ff ff9b 	bl	1824 <svcMutexCreate>
    18ee:	bdf8      	pop	{r3, r4, r5, r6, r7, pc}
    18f0:	0028      	movs	r0, r5
    18f2:	4f03      	ldr	r7, [pc, #12]	; (1900 <osMutexCreate+0x40>)
    18f4:	46bc      	mov	r12, r7
    18f6:	df00      	svc	0
    18f8:	e7f9      	b.n	18ee <osMutexCreate+0x2e>
    18fa:	46c0      	nop			; (mov r8, r8)
    18fc:	20000e05 	.word	0x20000e05
    1900:	00001825 	.word	0x00001825

00001904 <osMutexWait>:
    1904:	b5b0      	push	{r4, r5, r7, lr}
    1906:	0005      	movs	r5, r0
    1908:	f3ef 8410 	mrs	r4, PRIMASK
    190c:	2082      	movs	r0, #130	; 0x82
    190e:	2c00      	cmp	r4, #0
    1910:	d107      	bne.n	1922 <osMutexWait+0x1e>
    1912:	f3ef 8405 	mrs	r4, IPSR
    1916:	2c00      	cmp	r4, #0
    1918:	d103      	bne.n	1922 <osMutexWait+0x1e>
    191a:	0028      	movs	r0, r5
    191c:	4f01      	ldr	r7, [pc, #4]	; (1924 <osMutexWait+0x20>)
    191e:	46bc      	mov	r12, r7
    1920:	df00      	svc	0
    1922:	bdb0      	pop	{r4, r5, r7, pc}
    1924:	00001845 	.word	0x00001845

00001928 <osThreadExit>:
    1928:	2101      	movs	r1, #1
    192a:	4808      	ldr	r0, [pc, #32]	; (194c <osThreadExit+0x24>)
    192c:	b5b0      	push	{r4, r5, r7, lr}
    192e:	4249      	negs	r1, r1
    1930:	6800      	ldr	r0, [r0, #0]
    1932:	f7ff ffe7 	bl	1904 <osMutexWait>
    1936:	4f06      	ldr	r7, [pc, #24]	; (1950 <osThreadExit+0x28>)
    1938:	46bc      	mov	r12, r7
    193a:	df00      	svc	0
    193c:	0004      	movs	r4, r0
    193e:	f7ff fa0d 	bl	d5c <sysThreadTerminate>
    1942:	0020      	movs	r0, r4
    1944:	4f03      	ldr	r7, [pc, #12]	; (1954 <osThreadExit+0x2c>)
    1946:	46bc      	mov	r12, r7
    1948:	df00      	svc	0
    194a:	e7fe      	b.n	194a <osThreadExit+0x22>
    194c:	20000e00 	.word	0x20000e00
    1950:	00001765 	.word	0x00001765
    1954:	00001781 	.word	0x00001781

00001958 <osMutexRelease>:
    1958:	b5b0      	push	{r4, r5, r7, lr}
    195a:	0005      	movs	r5, r0
    195c:	f3ef 8410 	mrs	r4, PRIMASK
    1960:	2082      	movs	r0, #130	; 0x82
    1962:	2c00      	cmp	r4, #0
    1964:	d107      	bne.n	1976 <osMutexRelease+0x1e>
    1966:	f3ef 8405 	mrs	r4, IPSR
    196a:	2c00      	cmp	r4, #0
    196c:	d103      	bne.n	1976 <osMutexRelease+0x1e>
    196e:	0028      	movs	r0, r5
    1970:	4f01      	ldr	r7, [pc, #4]	; (1978 <osMutexRelease+0x20>)
    1972:	46bc      	mov	r12, r7
    1974:	df00      	svc	0
    1976:	bdb0      	pop	{r4, r5, r7, pc}
    1978:	0000187f 	.word	0x0000187f

0000197c <osThreadContextCreate>:
    197c:	b5f7      	push	{r0, r1, r2, r4, r5, r6, r7, lr}
    197e:	0006      	movs	r6, r0
    1980:	9100      	str	r1, [sp, #0]
    1982:	9201      	str	r2, [sp, #4]
    1984:	f3ef 8210 	mrs	r2, PRIMASK
    1988:	2400      	movs	r4, #0
    198a:	42a2      	cmp	r2, r4
    198c:	d110      	bne.n	19b0 <osThreadContextCreate+0x34>
    198e:	f3ef 8305 	mrs	r3, IPSR
    1992:	0014      	movs	r4, r2
    1994:	2b00      	cmp	r3, #0
    1996:	d10b      	bne.n	19b0 <osThreadContextCreate+0x34>
    1998:	f3ef 8314 	mrs	r3, CONTROL
    199c:	07db      	lsls	r3, r3, #31
    199e:	d409      	bmi.n	19b4 <osThreadContextCreate+0x38>
    19a0:	4b0d      	ldr	r3, [pc, #52]	; (19d8 <osThreadContextCreate+0x5c>)
    19a2:	781b      	ldrb	r3, [r3, #0]
    19a4:	2b00      	cmp	r3, #0
    19a6:	d105      	bne.n	19b4 <osThreadContextCreate+0x38>
    19a8:	9a01      	ldr	r2, [sp, #4]
    19aa:	f7ff fea1 	bl	16f0 <svcThreadCreate>
    19ae:	0004      	movs	r4, r0
    19b0:	0020      	movs	r0, r4
    19b2:	bdfe      	pop	{r1, r2, r3, r4, r5, r6, r7, pc}
    19b4:	2101      	movs	r1, #1
    19b6:	4d09      	ldr	r5, [pc, #36]	; (19dc <osThreadContextCreate+0x60>)
    19b8:	4249      	negs	r1, r1
    19ba:	6828      	ldr	r0, [r5, #0]
    19bc:	f7ff ffa2 	bl	1904 <osMutexWait>
    19c0:	0030      	movs	r0, r6
    19c2:	9900      	ldr	r1, [sp, #0]
    19c4:	9a01      	ldr	r2, [sp, #4]
    19c6:	4f06      	ldr	r7, [pc, #24]	; (19e0 <osThreadContextCreate+0x64>)
    19c8:	46bc      	mov	r12, r7
    19ca:	df00      	svc	0
    19cc:	0004      	movs	r4, r0
    19ce:	6828      	ldr	r0, [r5, #0]
    19d0:	f7ff ffc2 	bl	1958 <osMutexRelease>
    19d4:	e7ec      	b.n	19b0 <osThreadContextCreate+0x34>
    19d6:	46c0      	nop			; (mov r8, r8)
    19d8:	20000e05 	.word	0x20000e05
    19dc:	20000e00 	.word	0x20000e00
    19e0:	000016f1 	.word	0x000016f1

000019e4 <osThreadCreate>:
    19e4:	b510      	push	{r4, lr}
    19e6:	2200      	movs	r2, #0
    19e8:	f7ff ffc8 	bl	197c <osThreadContextCreate>
    19ec:	bd10      	pop	{r4, pc}
	...

000019f0 <osMutexDelete>:
    19f0:	b5b0      	push	{r4, r5, r7, lr}
    19f2:	0005      	movs	r5, r0
    19f4:	f3ef 8410 	mrs	r4, PRIMASK
    19f8:	2082      	movs	r0, #130	; 0x82
    19fa:	2c00      	cmp	r4, #0
    19fc:	d107      	bne.n	1a0e <osMutexDelete+0x1e>
    19fe:	f3ef 8405 	mrs	r4, IPSR
    1a02:	2c00      	cmp	r4, #0
    1a04:	d103      	bne.n	1a0e <osMutexDelete+0x1e>
    1a06:	0028      	movs	r0, r5
    1a08:	4f01      	ldr	r7, [pc, #4]	; (1a10 <osMutexDelete+0x20>)
    1a0a:	46bc      	mov	r12, r7
    1a0c:	df00      	svc	0
    1a0e:	bdb0      	pop	{r4, r5, r7, pc}
    1a10:	000018a3 	.word	0x000018a3

00001a14 <svcMessageCreate>:
    1a14:	b510      	push	{r4, lr}
    1a16:	0003      	movs	r3, r0
    1a18:	1e04      	subs	r4, r0, #0
    1a1a:	d00f      	beq.n	1a3c <svcMessageCreate+0x28>
    1a1c:	6801      	ldr	r1, [r0, #0]
    1a1e:	1e0b      	subs	r3, r1, #0
    1a20:	d00c      	beq.n	1a3c <svcMessageCreate+0x28>
    1a22:	6840      	ldr	r0, [r0, #4]
    1a24:	1e03      	subs	r3, r0, #0
    1a26:	d009      	beq.n	1a3c <svcMessageCreate+0x28>
    1a28:	2300      	movs	r3, #0
    1a2a:	7802      	ldrb	r2, [r0, #0]
    1a2c:	429a      	cmp	r2, r3
    1a2e:	d105      	bne.n	1a3c <svcMessageCreate+0x28>
    1a30:	3104      	adds	r1, #4
    1a32:	0089      	lsls	r1, r1, #2
    1a34:	b289      	uxth	r1, r1
    1a36:	f7ff fc17 	bl	1268 <rt_mbx_init>
    1a3a:	6863      	ldr	r3, [r4, #4]
    1a3c:	0018      	movs	r0, r3
    1a3e:	bd10      	pop	{r4, pc}

00001a40 <svcKernelInitialize>:
    1a40:	b570      	push	{r4, r5, r6, lr}
    1a42:	4d12      	ldr	r5, [pc, #72]	; (1a8c <svcKernelInitialize+0x4c>)
    1a44:	782b      	ldrb	r3, [r5, #0]
    1a46:	2b00      	cmp	r3, #0
    1a48:	d101      	bne.n	1a4e <svcKernelInitialize+0xe>
    1a4a:	f000 fa9b 	bl	1f84 <rt_sys_init>
    1a4e:	22ff      	movs	r2, #255	; 0xff
    1a50:	4b0f      	ldr	r3, [pc, #60]	; (1a90 <svcKernelInitialize+0x50>)
    1a52:	782c      	ldrb	r4, [r5, #0]
    1a54:	681b      	ldr	r3, [r3, #0]
    1a56:	709a      	strb	r2, [r3, #2]
    1a58:	2c00      	cmp	r4, #0
    1a5a:	d111      	bne.n	1a80 <svcKernelInitialize+0x40>
    1a5c:	0021      	movs	r1, r4
    1a5e:	480d      	ldr	r0, [pc, #52]	; (1a94 <svcKernelInitialize+0x54>)
    1a60:	f7ff ffd8 	bl	1a14 <svcMessageCreate>
    1a64:	4b0c      	ldr	r3, [pc, #48]	; (1a98 <svcKernelInitialize+0x58>)
    1a66:	0022      	movs	r2, r4
    1a68:	6018      	str	r0, [r3, #0]
    1a6a:	0021      	movs	r1, r4
    1a6c:	480b      	ldr	r0, [pc, #44]	; (1a9c <svcKernelInitialize+0x5c>)
    1a6e:	f7ff fe3f 	bl	16f0 <svcThreadCreate>
    1a72:	4b0b      	ldr	r3, [pc, #44]	; (1aa0 <svcKernelInitialize+0x60>)
    1a74:	6018      	str	r0, [r3, #0]
    1a76:	480b      	ldr	r0, [pc, #44]	; (1aa4 <svcKernelInitialize+0x64>)
    1a78:	f7ff ff22 	bl	18c0 <osMutexCreate>
    1a7c:	4b0a      	ldr	r3, [pc, #40]	; (1aa8 <svcKernelInitialize+0x68>)
    1a7e:	6018      	str	r0, [r3, #0]
    1a80:	2301      	movs	r3, #1
    1a82:	2000      	movs	r0, #0
    1a84:	702b      	strb	r3, [r5, #0]
    1a86:	4b09      	ldr	r3, [pc, #36]	; (1aac <svcKernelInitialize+0x6c>)
    1a88:	7018      	strb	r0, [r3, #0]
    1a8a:	bd70      	pop	{r4, r5, r6, pc}
    1a8c:	20000e04 	.word	0x20000e04
    1a90:	20000e0c 	.word	0x20000e0c
    1a94:	000072f0 	.word	0x000072f0
    1a98:	200008c8 	.word	0x200008c8
    1a9c:	0000730c 	.word	0x0000730c
    1aa0:	20000dbc 	.word	0x20000dbc
    1aa4:	00007324 	.word	0x00007324
    1aa8:	20000e00 	.word	0x20000e00
    1aac:	20000e05 	.word	0x20000e05

00001ab0 <osKernelInitialize>:
    1ab0:	b5b0      	push	{r4, r5, r7, lr}
    1ab2:	f3ef 8510 	mrs	r5, PRIMASK
    1ab6:	2482      	movs	r4, #130	; 0x82
    1ab8:	2d00      	cmp	r5, #0
    1aba:	d10a      	bne.n	1ad2 <osKernelInitialize+0x22>
    1abc:	f3ef 8505 	mrs	r5, IPSR
    1ac0:	2d00      	cmp	r5, #0
    1ac2:	d106      	bne.n	1ad2 <osKernelInitialize+0x22>
    1ac4:	f3ef 8414 	mrs	r4, CONTROL
    1ac8:	07e4      	lsls	r4, r4, #31
    1aca:	d404      	bmi.n	1ad6 <osKernelInitialize+0x26>
    1acc:	f7ff ffb8 	bl	1a40 <svcKernelInitialize>
    1ad0:	0004      	movs	r4, r0
    1ad2:	0020      	movs	r0, r4
    1ad4:	bdb0      	pop	{r4, r5, r7, pc}
    1ad6:	4f02      	ldr	r7, [pc, #8]	; (1ae0 <osKernelInitialize+0x30>)
    1ad8:	46bc      	mov	r12, r7
    1ada:	df00      	svc	0
    1adc:	e7f8      	b.n	1ad0 <osKernelInitialize+0x20>
    1ade:	0000      	.short	0x0000
    1ae0:	00001a41 	.word	0x00001a41

00001ae4 <svcMessageGet>:
    1ae4:	b530      	push	{r4, r5, lr}
    1ae6:	0004      	movs	r4, r0
    1ae8:	b085      	sub	sp, #20
    1aea:	000d      	movs	r5, r1
    1aec:	2800      	cmp	r0, #0
    1aee:	d017      	beq.n	1b20 <svcMessageGet+0x3c>
    1af0:	7803      	ldrb	r3, [r0, #0]
    1af2:	2b01      	cmp	r3, #1
    1af4:	d114      	bne.n	1b20 <svcMessageGet+0x3c>
    1af6:	0008      	movs	r0, r1
    1af8:	f7ff fd36 	bl	1568 <rt_ms2tick>
    1afc:	a902      	add	r1, sp, #8
    1afe:	0002      	movs	r2, r0
    1b00:	0020      	movs	r0, r4
    1b02:	f7ff fbbf 	bl	1284 <rt_mbx_wait>
    1b06:	2801      	cmp	r0, #1
    1b08:	d108      	bne.n	1b1c <svcMessageGet+0x38>
    1b0a:	0028      	movs	r0, r5
    1b0c:	1e45      	subs	r5, r0, #1
    1b0e:	41a8      	sbcs	r0, r5
    1b10:	0180      	lsls	r0, r0, #6
    1b12:	9902      	ldr	r1, [sp, #8]
    1b14:	2200      	movs	r2, #0
    1b16:	0013      	movs	r3, r2
    1b18:	b005      	add	sp, #20
    1b1a:	bd30      	pop	{r4, r5, pc}
    1b1c:	2010      	movs	r0, #16
    1b1e:	e7f8      	b.n	1b12 <svcMessageGet+0x2e>
    1b20:	2080      	movs	r0, #128	; 0x80
    1b22:	2100      	movs	r1, #0
    1b24:	e7f6      	b.n	1b14 <svcMessageGet+0x30>

00001b26 <isrMessagePut>:
    1b26:	b570      	push	{r4, r5, r6, lr}
    1b28:	2380      	movs	r3, #128	; 0x80
    1b2a:	0004      	movs	r4, r0
    1b2c:	000e      	movs	r6, r1
    1b2e:	0015      	movs	r5, r2
    1b30:	2800      	cmp	r0, #0
    1b32:	d00e      	beq.n	1b52 <isrMessagePut+0x2c>
    1b34:	2a00      	cmp	r2, #0
    1b36:	d10c      	bne.n	1b52 <isrMessagePut+0x2c>
    1b38:	7802      	ldrb	r2, [r0, #0]
    1b3a:	2a01      	cmp	r2, #1
    1b3c:	d109      	bne.n	1b52 <isrMessagePut+0x2c>
    1b3e:	f7ff fbfb 	bl	1338 <rt_mbx_check>
    1b42:	2381      	movs	r3, #129	; 0x81
    1b44:	2800      	cmp	r0, #0
    1b46:	d004      	beq.n	1b52 <isrMessagePut+0x2c>
    1b48:	0031      	movs	r1, r6
    1b4a:	0020      	movs	r0, r4
    1b4c:	f7ff fbf8 	bl	1340 <isr_mbx_send>
    1b50:	002b      	movs	r3, r5
    1b52:	0018      	movs	r0, r3
    1b54:	bd70      	pop	{r4, r5, r6, pc}
	...

00001b58 <sysTimerTick>:
    1b58:	b5f8      	push	{r3, r4, r5, r6, r7, lr}
    1b5a:	4e12      	ldr	r6, [pc, #72]	; (1ba4 <sysTimerTick+0x4c>)
    1b5c:	6834      	ldr	r4, [r6, #0]
    1b5e:	2c00      	cmp	r4, #0
    1b60:	d006      	beq.n	1b70 <sysTimerTick+0x18>
    1b62:	2701      	movs	r7, #1
    1b64:	68a3      	ldr	r3, [r4, #8]
    1b66:	3b01      	subs	r3, #1
    1b68:	60a3      	str	r3, [r4, #8]
    1b6a:	68a2      	ldr	r2, [r4, #8]
    1b6c:	2a00      	cmp	r2, #0
    1b6e:	d000      	beq.n	1b72 <sysTimerTick+0x1a>
    1b70:	bdf8      	pop	{r3, r4, r5, r6, r7, pc}
    1b72:	4b0d      	ldr	r3, [pc, #52]	; (1ba8 <sysTimerTick+0x50>)
    1b74:	6825      	ldr	r5, [r4, #0]
    1b76:	0021      	movs	r1, r4
    1b78:	6818      	ldr	r0, [r3, #0]
    1b7a:	6035      	str	r5, [r6, #0]
    1b7c:	f7ff ffd3 	bl	1b26 <isrMessagePut>
    1b80:	2800      	cmp	r0, #0
    1b82:	d002      	beq.n	1b8a <sysTimerTick+0x32>
    1b84:	2004      	movs	r0, #4
    1b86:	f7ff f8dd 	bl	d44 <os_error>
    1b8a:	7963      	ldrb	r3, [r4, #5]
    1b8c:	2b01      	cmp	r3, #1
    1b8e:	d107      	bne.n	1ba0 <sysTimerTick+0x48>
    1b90:	68e1      	ldr	r1, [r4, #12]
    1b92:	0020      	movs	r0, r4
    1b94:	f7ff fccc 	bl	1530 <rt_timer_insert>
    1b98:	2d00      	cmp	r5, #0
    1b9a:	d0e9      	beq.n	1b70 <sysTimerTick+0x18>
    1b9c:	002c      	movs	r4, r5
    1b9e:	e7e4      	b.n	1b6a <sysTimerTick+0x12>
    1ba0:	7127      	strb	r7, [r4, #4]
    1ba2:	e7f9      	b.n	1b98 <sysTimerTick+0x40>
    1ba4:	20000e08 	.word	0x20000e08
    1ba8:	200008c8 	.word	0x200008c8

00001bac <isrMessageGet>:
    1bac:	b57f      	push	{r0, r1, r2, r3, r4, r5, r6, lr}
    1bae:	0004      	movs	r4, r0
    1bb0:	0016      	movs	r6, r2
    1bb2:	1e08      	subs	r0, r1, #0
    1bb4:	d001      	beq.n	1bba <isrMessageGet+0xe>
    1bb6:	2a00      	cmp	r2, #0
    1bb8:	d004      	beq.n	1bc4 <isrMessageGet+0x18>
    1bba:	2380      	movs	r3, #128	; 0x80
    1bbc:	6023      	str	r3, [r4, #0]
    1bbe:	0020      	movs	r0, r4
    1bc0:	b004      	add	sp, #16
    1bc2:	bd70      	pop	{r4, r5, r6, pc}
    1bc4:	780b      	ldrb	r3, [r1, #0]
    1bc6:	2b01      	cmp	r3, #1
    1bc8:	d1f7      	bne.n	1bba <isrMessageGet+0xe>
    1bca:	a902      	add	r1, sp, #8
    1bcc:	ad01      	add	r5, sp, #4
    1bce:	f7ff fbbd 	bl	134c <isr_mbx_receive>
    1bd2:	2804      	cmp	r0, #4
    1bd4:	d004      	beq.n	1be0 <isrMessageGet+0x34>
    1bd6:	9601      	str	r6, [sp, #4]
    1bd8:	0023      	movs	r3, r4
    1bda:	cd07      	ldmia	r5!, {r0, r1, r2}
    1bdc:	c307      	stmia	r3!, {r0, r1, r2}
    1bde:	e7ee      	b.n	1bbe <isrMessageGet+0x12>
    1be0:	2310      	movs	r3, #16
    1be2:	9301      	str	r3, [sp, #4]
    1be4:	e7f8      	b.n	1bd8 <isrMessageGet+0x2c>
	...

00001be8 <osMessageGet>:
    1be8:	b5b0      	push	{r4, r5, r7, lr}
    1bea:	0004      	movs	r4, r0
    1bec:	0015      	movs	r5, r2
    1bee:	f3ef 8010 	mrs	r0, PRIMASK
    1bf2:	2800      	cmp	r0, #0
    1bf4:	d103      	bne.n	1bfe <osMessageGet+0x16>
    1bf6:	f3ef 8005 	mrs	r0, IPSR
    1bfa:	2800      	cmp	r0, #0
    1bfc:	d005      	beq.n	1c0a <osMessageGet+0x22>
    1bfe:	002a      	movs	r2, r5
    1c00:	0020      	movs	r0, r4
    1c02:	f7ff ffd3 	bl	1bac <isrMessageGet>
    1c06:	0020      	movs	r0, r4
    1c08:	bdb0      	pop	{r4, r5, r7, pc}
    1c0a:	0008      	movs	r0, r1
    1c0c:	0011      	movs	r1, r2
    1c0e:	4f03      	ldr	r7, [pc, #12]	; (1c1c <osMessageGet+0x34>)
    1c10:	46bc      	mov	r12, r7
    1c12:	df00      	svc	0
    1c14:	6020      	str	r0, [r4, #0]
    1c16:	6061      	str	r1, [r4, #4]
    1c18:	60a2      	str	r2, [r4, #8]
    1c1a:	e7f4      	b.n	1c06 <osMessageGet+0x1e>
    1c1c:	00001ae5 	.word	0x00001ae5

00001c20 <osTimerThread>:
    1c20:	b510      	push	{r4, lr}
    1c22:	2401      	movs	r4, #1
    1c24:	b086      	sub	sp, #24
    1c26:	4264      	negs	r4, r4
    1c28:	4b09      	ldr	r3, [pc, #36]	; (1c50 <osTimerThread+0x30>)
    1c2a:	0022      	movs	r2, r4
    1c2c:	6819      	ldr	r1, [r3, #0]
    1c2e:	a803      	add	r0, sp, #12
    1c30:	f7ff ffda 	bl	1be8 <osMessageGet>
    1c34:	9b03      	ldr	r3, [sp, #12]
    1c36:	2b10      	cmp	r3, #16
    1c38:	d1f6      	bne.n	1c28 <osTimerThread+0x8>
    1c3a:	9904      	ldr	r1, [sp, #16]
    1c3c:	a801      	add	r0, sp, #4
    1c3e:	f7ff fde5 	bl	180c <osTimerCall>
    1c42:	9b01      	ldr	r3, [sp, #4]
    1c44:	2b00      	cmp	r3, #0
    1c46:	d0ef      	beq.n	1c28 <osTimerThread+0x8>
    1c48:	9802      	ldr	r0, [sp, #8]
    1c4a:	4798      	blx	r3
    1c4c:	e7ec      	b.n	1c28 <osTimerThread+0x8>
    1c4e:	46c0      	nop			; (mov r8, r8)
    1c50:	200008c8 	.word	0x200008c8

00001c54 <rt_switch_req>:
    1c54:	4b07      	ldr	r3, [pc, #28]	; (1c74 <rt_switch_req+0x20>)
    1c56:	b510      	push	{r4, lr}
    1c58:	6058      	str	r0, [r3, #4]
    1c5a:	2302      	movs	r3, #2
    1c5c:	7043      	strb	r3, [r0, #1]
    1c5e:	4b06      	ldr	r3, [pc, #24]	; (1c78 <rt_switch_req+0x24>)
    1c60:	681b      	ldr	r3, [r3, #0]
    1c62:	2b00      	cmp	r3, #0
    1c64:	d004      	beq.n	1c70 <rt_switch_req+0x1c>
    1c66:	691b      	ldr	r3, [r3, #16]
    1c68:	2b00      	cmp	r3, #0
    1c6a:	d001      	beq.n	1c70 <rt_switch_req+0x1c>
    1c6c:	6bc0      	ldr	r0, [r0, #60]	; 0x3c
    1c6e:	4798      	blx	r3
    1c70:	bd10      	pop	{r4, pc}
    1c72:	46c0      	nop			; (mov r8, r8)
    1c74:	20000e0c 	.word	0x20000e0c
    1c78:	20000df4 	.word	0x20000df4

00001c7c <rt_dispatch.part.0>:
    1c7c:	b510      	push	{r4, lr}
    1c7e:	4803      	ldr	r0, [pc, #12]	; (1c8c <rt_dispatch.part.0+0x10>)
    1c80:	f7ff f8cc 	bl	e1c <rt_get_first>
    1c84:	f7ff ffe6 	bl	1c54 <rt_switch_req>
    1c88:	bd10      	pop	{r4, pc}
    1c8a:	46c0      	nop			; (mov r8, r8)
    1c8c:	20000dc0 	.word	0x20000dc0

00001c90 <rt_dispatch>:
    1c90:	b570      	push	{r4, r5, r6, lr}
    1c92:	1e04      	subs	r4, r0, #0
    1c94:	d102      	bne.n	1c9c <rt_dispatch+0xc>
    1c96:	f7ff fff1 	bl	1c7c <rt_dispatch.part.0>
    1c9a:	bd70      	pop	{r4, r5, r6, pc}
    1c9c:	4e0a      	ldr	r6, [pc, #40]	; (1cc8 <rt_dispatch+0x38>)
    1c9e:	78a2      	ldrb	r2, [r4, #2]
    1ca0:	6830      	ldr	r0, [r6, #0]
    1ca2:	2501      	movs	r5, #1
    1ca4:	7883      	ldrb	r3, [r0, #2]
    1ca6:	429a      	cmp	r2, r3
    1ca8:	d907      	bls.n	1cba <rt_dispatch+0x2a>
    1caa:	f7ff f8c9 	bl	e40 <rt_put_rdy_first>
    1cae:	6833      	ldr	r3, [r6, #0]
    1cb0:	0020      	movs	r0, r4
    1cb2:	705d      	strb	r5, [r3, #1]
    1cb4:	f7ff ffce 	bl	1c54 <rt_switch_req>
    1cb8:	e7ef      	b.n	1c9a <rt_dispatch+0xa>
    1cba:	7065      	strb	r5, [r4, #1]
    1cbc:	0021      	movs	r1, r4
    1cbe:	4803      	ldr	r0, [pc, #12]	; (1ccc <rt_dispatch+0x3c>)
    1cc0:	f7ff f892 	bl	de8 <rt_put_prio>
    1cc4:	e7e9      	b.n	1c9a <rt_dispatch+0xa>
    1cc6:	46c0      	nop			; (mov r8, r8)
    1cc8:	20000e0c 	.word	0x20000e0c
    1ccc:	20000dc0 	.word	0x20000dc0

00001cd0 <rt_block>:
    1cd0:	b570      	push	{r4, r5, r6, lr}
    1cd2:	000d      	movs	r5, r1
    1cd4:	2800      	cmp	r0, #0
    1cd6:	d00e      	beq.n	1cf6 <rt_block+0x26>
    1cd8:	4b07      	ldr	r3, [pc, #28]	; (1cf8 <rt_block+0x28>)
    1cda:	4c08      	ldr	r4, [pc, #32]	; (1cfc <rt_block+0x2c>)
    1cdc:	4298      	cmp	r0, r3
    1cde:	d003      	beq.n	1ce8 <rt_block+0x18>
    1ce0:	0001      	movs	r1, r0
    1ce2:	6820      	ldr	r0, [r4, #0]
    1ce4:	f7ff f8b6 	bl	e54 <rt_put_dly>
    1ce8:	6823      	ldr	r3, [r4, #0]
    1cea:	4805      	ldr	r0, [pc, #20]	; (1d00 <rt_block+0x30>)
    1cec:	705d      	strb	r5, [r3, #1]
    1cee:	f7ff f895 	bl	e1c <rt_get_first>
    1cf2:	f7ff ffaf 	bl	1c54 <rt_switch_req>
    1cf6:	bd70      	pop	{r4, r5, r6, pc}
    1cf8:	0000ffff 	.word	0x0000ffff
    1cfc:	20000e0c 	.word	0x20000e0c
    1d00:	20000dc0 	.word	0x20000dc0

00001d04 <rt_tsk_self>:
    1d04:	4b02      	ldr	r3, [pc, #8]	; (1d10 <rt_tsk_self+0xc>)
    1d06:	681b      	ldr	r3, [r3, #0]
    1d08:	1e18      	subs	r0, r3, #0
    1d0a:	d000      	beq.n	1d0e <rt_tsk_self+0xa>
    1d0c:	78d8      	ldrb	r0, [r3, #3]
    1d0e:	4770      	bx	lr
    1d10:	20000e0c 	.word	0x20000e0c

00001d14 <rt_tsk_prio>:
    1d14:	b510      	push	{r4, lr}
    1d16:	2800      	cmp	r0, #0
    1d18:	d116      	bne.n	1d48 <rt_tsk_prio+0x34>
    1d1a:	4b1a      	ldr	r3, [pc, #104]	; (1d84 <rt_tsk_prio+0x70>)
    1d1c:	681b      	ldr	r3, [r3, #0]
    1d1e:	7099      	strb	r1, [r3, #2]
    1d20:	3305      	adds	r3, #5
    1d22:	77d9      	strb	r1, [r3, #31]
    1d24:	4818      	ldr	r0, [pc, #96]	; (1d88 <rt_tsk_prio+0x74>)
    1d26:	6843      	ldr	r3, [r0, #4]
    1d28:	789b      	ldrb	r3, [r3, #2]
    1d2a:	428b      	cmp	r3, r1
    1d2c:	d802      	bhi.n	1d34 <rt_tsk_prio+0x20>
    1d2e:	2200      	movs	r2, #0
    1d30:	0010      	movs	r0, r2
    1d32:	bd10      	pop	{r4, pc}
    1d34:	4c13      	ldr	r4, [pc, #76]	; (1d84 <rt_tsk_prio+0x70>)
    1d36:	6821      	ldr	r1, [r4, #0]
    1d38:	f7ff f856 	bl	de8 <rt_put_prio>
    1d3c:	2201      	movs	r2, #1
    1d3e:	6823      	ldr	r3, [r4, #0]
    1d40:	705a      	strb	r2, [r3, #1]
    1d42:	f7ff ff9b 	bl	1c7c <rt_dispatch.part.0>
    1d46:	e7f2      	b.n	1d2e <rt_tsk_prio+0x1a>
    1d48:	4b10      	ldr	r3, [pc, #64]	; (1d8c <rt_tsk_prio+0x78>)
    1d4a:	22ff      	movs	r2, #255	; 0xff
    1d4c:	881b      	ldrh	r3, [r3, #0]
    1d4e:	4298      	cmp	r0, r3
    1d50:	d8ee      	bhi.n	1d30 <rt_tsk_prio+0x1c>
    1d52:	1e43      	subs	r3, r0, #1
    1d54:	480e      	ldr	r0, [pc, #56]	; (1d90 <rt_tsk_prio+0x7c>)
    1d56:	009b      	lsls	r3, r3, #2
    1d58:	581c      	ldr	r4, [r3, r0]
    1d5a:	2c00      	cmp	r4, #0
    1d5c:	d0e8      	beq.n	1d30 <rt_tsk_prio+0x1c>
    1d5e:	1d63      	adds	r3, r4, #5
    1d60:	70a1      	strb	r1, [r4, #2]
    1d62:	77d9      	strb	r1, [r3, #31]
    1d64:	4b07      	ldr	r3, [pc, #28]	; (1d84 <rt_tsk_prio+0x70>)
    1d66:	681b      	ldr	r3, [r3, #0]
    1d68:	429c      	cmp	r4, r3
    1d6a:	d0db      	beq.n	1d24 <rt_tsk_prio+0x10>
    1d6c:	0020      	movs	r0, r4
    1d6e:	f7ff f8e9 	bl	f44 <rt_resort_prio>
    1d72:	7863      	ldrb	r3, [r4, #1]
    1d74:	2b01      	cmp	r3, #1
    1d76:	d1da      	bne.n	1d2e <rt_tsk_prio+0x1a>
    1d78:	4803      	ldr	r0, [pc, #12]	; (1d88 <rt_tsk_prio+0x74>)
    1d7a:	f7ff f84f 	bl	e1c <rt_get_first>
    1d7e:	f7ff ff87 	bl	1c90 <rt_dispatch>
    1d82:	e7d4      	b.n	1d2e <rt_tsk_prio+0x1a>
    1d84:	20000e0c 	.word	0x20000e0c
    1d88:	20000dc0 	.word	0x20000dc0
    1d8c:	000072ec 	.word	0x000072ec
    1d90:	20000828 	.word	0x20000828

00001d94 <rt_tsk_create>:
    1d94:	b5f7      	push	{r0, r1, r2, r4, r5, r6, r7, lr}
    1d96:	001f      	movs	r7, r3
    1d98:	b2cb      	uxtb	r3, r1
    1d9a:	0015      	movs	r5, r2
    1d9c:	425a      	negs	r2, r3
    1d9e:	4153      	adcs	r3, r2
    1da0:	9000      	str	r0, [sp, #0]
    1da2:	4821      	ldr	r0, [pc, #132]	; (1e28 <rt_tsk_create+0x94>)
    1da4:	18ce      	adds	r6, r1, r3
    1da6:	f7ff fa3e 	bl	1226 <rt_alloc_box>
    1daa:	1e04      	subs	r4, r0, #0
    1dac:	d102      	bne.n	1db4 <rt_tsk_create+0x20>
    1dae:	2500      	movs	r5, #0
    1db0:	0028      	movs	r0, r5
    1db2:	bdfe      	pop	{r1, r2, r3, r4, r5, r6, r7, pc}
    1db4:	6305      	str	r5, [r0, #48]	; 0x30
    1db6:	2501      	movs	r5, #1
    1db8:	4b1c      	ldr	r3, [pc, #112]	; (1e2c <rt_tsk_create+0x98>)
    1dba:	0a32      	lsrs	r2, r6, #8
    1dbc:	8819      	ldrh	r1, [r3, #0]
    1dbe:	6282      	str	r2, [r0, #40]	; 0x28
    1dc0:	428d      	cmp	r5, r1
    1dc2:	d8f4      	bhi.n	1dae <rt_tsk_create+0x1a>
    1dc4:	1e6b      	subs	r3, r5, #1
    1dc6:	9301      	str	r3, [sp, #4]
    1dc8:	4819      	ldr	r0, [pc, #100]	; (1e30 <rt_tsk_create+0x9c>)
    1dca:	00ab      	lsls	r3, r5, #2
    1dcc:	3b04      	subs	r3, #4
    1dce:	58c3      	ldr	r3, [r0, r3]
    1dd0:	2b00      	cmp	r3, #0
    1dd2:	d001      	beq.n	1dd8 <rt_tsk_create+0x44>
    1dd4:	3501      	adds	r5, #1
    1dd6:	e7f3      	b.n	1dc0 <rt_tsk_create+0x2c>
    1dd8:	2101      	movs	r1, #1
    1dda:	b2f6      	uxtb	r6, r6
    1ddc:	7061      	strb	r1, [r4, #1]
    1dde:	1d61      	adds	r1, r4, #5
    1de0:	70e5      	strb	r5, [r4, #3]
    1de2:	61e7      	str	r7, [r4, #28]
    1de4:	63a7      	str	r7, [r4, #56]	; 0x38
    1de6:	7023      	strb	r3, [r4, #0]
    1de8:	70a6      	strb	r6, [r4, #2]
    1dea:	77ce      	strb	r6, [r1, #31]
    1dec:	1da1      	adds	r1, r4, #6
    1dee:	6063      	str	r3, [r4, #4]
    1df0:	60a3      	str	r3, [r4, #8]
    1df2:	60e3      	str	r3, [r4, #12]
    1df4:	6123      	str	r3, [r4, #16]
    1df6:	6223      	str	r3, [r4, #32]
    1df8:	82a3      	strh	r3, [r4, #20]
    1dfa:	82e3      	strh	r3, [r4, #22]
    1dfc:	8323      	strh	r3, [r4, #24]
    1dfe:	8363      	strh	r3, [r4, #26]
    1e00:	77cb      	strb	r3, [r1, #31]
    1e02:	2a00      	cmp	r2, #0
    1e04:	d103      	bne.n	1e0e <rt_tsk_create+0x7a>
    1e06:	480b      	ldr	r0, [pc, #44]	; (1e34 <rt_tsk_create+0xa0>)
    1e08:	f7ff fa0d 	bl	1226 <rt_alloc_box>
    1e0c:	6320      	str	r0, [r4, #48]	; 0x30
    1e0e:	0020      	movs	r0, r4
    1e10:	9900      	ldr	r1, [sp, #0]
    1e12:	f7ff f8eb 	bl	fec <rt_init_stack>
    1e16:	1e6b      	subs	r3, r5, #1
    1e18:	4a05      	ldr	r2, [pc, #20]	; (1e30 <rt_tsk_create+0x9c>)
    1e1a:	009b      	lsls	r3, r3, #2
    1e1c:	0020      	movs	r0, r4
    1e1e:	50d4      	str	r4, [r2, r3]
    1e20:	f7ff ff36 	bl	1c90 <rt_dispatch>
    1e24:	e7c4      	b.n	1db0 <rt_tsk_create+0x1c>
    1e26:	46c0      	nop			; (mov r8, r8)
    1e28:	20000bf0 	.word	0x20000bf0
    1e2c:	000072ec 	.word	0x000072ec
    1e30:	20000828 	.word	0x20000828
    1e34:	20000618 	.word	0x20000618

00001e38 <rt_tsk_delete>:
    1e38:	b5f7      	push	{r0, r1, r2, r4, r5, r6, r7, lr}
    1e3a:	4d4c      	ldr	r5, [pc, #304]	; (1f6c <rt_tsk_delete+0x134>)
    1e3c:	2800      	cmp	r0, #0
    1e3e:	d003      	beq.n	1e48 <rt_tsk_delete+0x10>
    1e40:	682b      	ldr	r3, [r5, #0]
    1e42:	78db      	ldrb	r3, [r3, #3]
    1e44:	4298      	cmp	r0, r3
    1e46:	d140      	bne.n	1eca <rt_tsk_delete+0x92>
    1e48:	2300      	movs	r3, #0
    1e4a:	682c      	ldr	r4, [r5, #0]
    1e4c:	2701      	movs	r7, #1
    1e4e:	7063      	strb	r3, [r4, #1]
    1e50:	f001 ffab 	bl	3daa <rt_get_PSP>
    1e54:	62e0      	str	r0, [r4, #44]	; 0x2c
    1e56:	f7ff f9ad 	bl	11b4 <rt_stk_check>
    1e5a:	682b      	ldr	r3, [r5, #0]
    1e5c:	6a1c      	ldr	r4, [r3, #32]
    1e5e:	2c00      	cmp	r4, #0
    1e60:	d113      	bne.n	1e8a <rt_tsk_delete+0x52>
    1e62:	682a      	ldr	r2, [r5, #0]
    1e64:	4942      	ldr	r1, [pc, #264]	; (1f70 <rt_tsk_delete+0x138>)
    1e66:	78d3      	ldrb	r3, [r2, #3]
    1e68:	4842      	ldr	r0, [pc, #264]	; (1f74 <rt_tsk_delete+0x13c>)
    1e6a:	3b01      	subs	r3, #1
    1e6c:	009b      	lsls	r3, r3, #2
    1e6e:	505c      	str	r4, [r3, r1]
    1e70:	6b11      	ldr	r1, [r2, #48]	; 0x30
    1e72:	f7ff f9e7 	bl	1244 <rt_free_box>
    1e76:	6829      	ldr	r1, [r5, #0]
    1e78:	483f      	ldr	r0, [pc, #252]	; (1f78 <rt_tsk_delete+0x140>)
    1e7a:	630c      	str	r4, [r1, #48]	; 0x30
    1e7c:	f7ff f9e2 	bl	1244 <rt_free_box>
    1e80:	602c      	str	r4, [r5, #0]
    1e82:	f7ff fefb 	bl	1c7c <rt_dispatch.part.0>
    1e86:	0020      	movs	r0, r4
    1e88:	bdfe      	pop	{r1, r2, r3, r4, r5, r6, r7, pc}
    1e8a:	6863      	ldr	r3, [r4, #4]
    1e8c:	2b00      	cmp	r3, #0
    1e8e:	d016      	beq.n	1ebe <rt_tsk_delete+0x86>
    1e90:	0020      	movs	r0, r4
    1e92:	f7fe ffc3 	bl	e1c <rt_get_first>
    1e96:	0006      	movs	r6, r0
    1e98:	2100      	movs	r1, #0
    1e9a:	f7ff f8f3 	bl	1084 <rt_ret_val>
    1e9e:	0030      	movs	r0, r6
    1ea0:	f7ff f868 	bl	f74 <rt_rmv_dly>
    1ea4:	7077      	strb	r7, [r6, #1]
    1ea6:	0031      	movs	r1, r6
    1ea8:	4834      	ldr	r0, [pc, #208]	; (1f7c <rt_tsk_delete+0x144>)
    1eaa:	f7fe ff9d 	bl	de8 <rt_put_prio>
    1eae:	68e3      	ldr	r3, [r4, #12]
    1eb0:	6a32      	ldr	r2, [r6, #32]
    1eb2:	8067      	strh	r7, [r4, #2]
    1eb4:	60a6      	str	r6, [r4, #8]
    1eb6:	60e2      	str	r2, [r4, #12]
    1eb8:	6234      	str	r4, [r6, #32]
    1eba:	001c      	movs	r4, r3
    1ebc:	e7cf      	b.n	1e5e <rt_tsk_delete+0x26>
    1ebe:	68e2      	ldr	r2, [r4, #12]
    1ec0:	8063      	strh	r3, [r4, #2]
    1ec2:	60a3      	str	r3, [r4, #8]
    1ec4:	60e3      	str	r3, [r4, #12]
    1ec6:	0014      	movs	r4, r2
    1ec8:	e7c9      	b.n	1e5e <rt_tsk_delete+0x26>
    1eca:	4b2d      	ldr	r3, [pc, #180]	; (1f80 <rt_tsk_delete+0x148>)
    1ecc:	24ff      	movs	r4, #255	; 0xff
    1ece:	881b      	ldrh	r3, [r3, #0]
    1ed0:	4298      	cmp	r0, r3
    1ed2:	d8d8      	bhi.n	1e86 <rt_tsk_delete+0x4e>
    1ed4:	3801      	subs	r0, #1
    1ed6:	0083      	lsls	r3, r0, #2
    1ed8:	9301      	str	r3, [sp, #4]
    1eda:	9a01      	ldr	r2, [sp, #4]
    1edc:	4b24      	ldr	r3, [pc, #144]	; (1f70 <rt_tsk_delete+0x138>)
    1ede:	58d6      	ldr	r6, [r2, r3]
    1ee0:	2e00      	cmp	r6, #0
    1ee2:	d0d0      	beq.n	1e86 <rt_tsk_delete+0x4e>
    1ee4:	0030      	movs	r0, r6
    1ee6:	f7ff f817 	bl	f18 <rt_rmv_list>
    1eea:	0030      	movs	r0, r6
    1eec:	f7ff f842 	bl	f74 <rt_rmv_dly>
    1ef0:	6a34      	ldr	r4, [r6, #32]
    1ef2:	2c00      	cmp	r4, #0
    1ef4:	d117      	bne.n	1f26 <rt_tsk_delete+0xee>
    1ef6:	4b1e      	ldr	r3, [pc, #120]	; (1f70 <rt_tsk_delete+0x138>)
    1ef8:	9a01      	ldr	r2, [sp, #4]
    1efa:	6b31      	ldr	r1, [r6, #48]	; 0x30
    1efc:	481d      	ldr	r0, [pc, #116]	; (1f74 <rt_tsk_delete+0x13c>)
    1efe:	509c      	str	r4, [r3, r2]
    1f00:	f7ff f9a0 	bl	1244 <rt_free_box>
    1f04:	0031      	movs	r1, r6
    1f06:	6334      	str	r4, [r6, #48]	; 0x30
    1f08:	481b      	ldr	r0, [pc, #108]	; (1f78 <rt_tsk_delete+0x140>)
    1f0a:	f7ff f99b 	bl	1244 <rt_free_box>
    1f0e:	481b      	ldr	r0, [pc, #108]	; (1f7c <rt_tsk_delete+0x144>)
    1f10:	6829      	ldr	r1, [r5, #0]
    1f12:	6843      	ldr	r3, [r0, #4]
    1f14:	789a      	ldrb	r2, [r3, #2]
    1f16:	788b      	ldrb	r3, [r1, #2]
    1f18:	429a      	cmp	r2, r3
    1f1a:	d9b4      	bls.n	1e86 <rt_tsk_delete+0x4e>
    1f1c:	2301      	movs	r3, #1
    1f1e:	704b      	strb	r3, [r1, #1]
    1f20:	f7fe ff62 	bl	de8 <rt_put_prio>
    1f24:	e7ad      	b.n	1e82 <rt_tsk_delete+0x4a>
    1f26:	6863      	ldr	r3, [r4, #4]
    1f28:	2b00      	cmp	r3, #0
    1f2a:	d018      	beq.n	1f5e <rt_tsk_delete+0x126>
    1f2c:	0020      	movs	r0, r4
    1f2e:	f7fe ff75 	bl	e1c <rt_get_first>
    1f32:	0007      	movs	r7, r0
    1f34:	2100      	movs	r1, #0
    1f36:	f7ff f8a5 	bl	1084 <rt_ret_val>
    1f3a:	0038      	movs	r0, r7
    1f3c:	f7ff f81a 	bl	f74 <rt_rmv_dly>
    1f40:	2301      	movs	r3, #1
    1f42:	0039      	movs	r1, r7
    1f44:	707b      	strb	r3, [r7, #1]
    1f46:	480d      	ldr	r0, [pc, #52]	; (1f7c <rt_tsk_delete+0x144>)
    1f48:	f7fe ff4e 	bl	de8 <rt_put_prio>
    1f4c:	2201      	movs	r2, #1
    1f4e:	68e3      	ldr	r3, [r4, #12]
    1f50:	8062      	strh	r2, [r4, #2]
    1f52:	6a3a      	ldr	r2, [r7, #32]
    1f54:	60a7      	str	r7, [r4, #8]
    1f56:	60e2      	str	r2, [r4, #12]
    1f58:	623c      	str	r4, [r7, #32]
    1f5a:	001c      	movs	r4, r3
    1f5c:	e7c9      	b.n	1ef2 <rt_tsk_delete+0xba>
    1f5e:	68e2      	ldr	r2, [r4, #12]
    1f60:	8063      	strh	r3, [r4, #2]
    1f62:	60a3      	str	r3, [r4, #8]
    1f64:	60e3      	str	r3, [r4, #12]
    1f66:	0014      	movs	r4, r2
    1f68:	e7c3      	b.n	1ef2 <rt_tsk_delete+0xba>
    1f6a:	46c0      	nop			; (mov r8, r8)
    1f6c:	20000e0c 	.word	0x20000e0c
    1f70:	20000828 	.word	0x20000828
    1f74:	20000618 	.word	0x20000618
    1f78:	20000bf0 	.word	0x20000bf0
    1f7c:	20000dc0 	.word	0x20000dc0
    1f80:	000072ec 	.word	0x000072ec

00001f84 <rt_sys_init>:
    1f84:	4b2d      	ldr	r3, [pc, #180]	; (203c <rt_sys_init+0xb8>)
    1f86:	b570      	push	{r4, r5, r6, lr}
    1f88:	8819      	ldrh	r1, [r3, #0]
    1f8a:	2300      	movs	r3, #0
    1f8c:	001c      	movs	r4, r3
    1f8e:	482c      	ldr	r0, [pc, #176]	; (2040 <rt_sys_init+0xbc>)
    1f90:	428b      	cmp	r3, r1
    1f92:	d34e      	bcc.n	2032 <rt_sys_init+0xae>
    1f94:	4b2b      	ldr	r3, [pc, #172]	; (2044 <rt_sys_init+0xc0>)
    1f96:	2240      	movs	r2, #64	; 0x40
    1f98:	8819      	ldrh	r1, [r3, #0]
    1f9a:	482b      	ldr	r0, [pc, #172]	; (2048 <rt_sys_init+0xc4>)
    1f9c:	f7ff f91e 	bl	11dc <_init_box>
    1fa0:	2280      	movs	r2, #128	; 0x80
    1fa2:	4b2a      	ldr	r3, [pc, #168]	; (204c <rt_sys_init+0xc8>)
    1fa4:	0612      	lsls	r2, r2, #24
    1fa6:	881b      	ldrh	r3, [r3, #0]
    1fa8:	4e29      	ldr	r6, [pc, #164]	; (2050 <rt_sys_init+0xcc>)
    1faa:	431a      	orrs	r2, r3
    1fac:	4b29      	ldr	r3, [pc, #164]	; (2054 <rt_sys_init+0xd0>)
    1fae:	0030      	movs	r0, r6
    1fb0:	6819      	ldr	r1, [r3, #0]
    1fb2:	f7ff f913 	bl	11dc <_init_box>
    1fb6:	4b28      	ldr	r3, [pc, #160]	; (2058 <rt_sys_init+0xd4>)
    1fb8:	2208      	movs	r2, #8
    1fba:	8819      	ldrh	r1, [r3, #0]
    1fbc:	4b27      	ldr	r3, [pc, #156]	; (205c <rt_sys_init+0xd8>)
    1fbe:	2500      	movs	r5, #0
    1fc0:	6818      	ldr	r0, [r3, #0]
    1fc2:	f7ff f90b 	bl	11dc <_init_box>
    1fc6:	23ff      	movs	r3, #255	; 0xff
    1fc8:	4c25      	ldr	r4, [pc, #148]	; (2060 <rt_sys_init+0xdc>)
    1fca:	0030      	movs	r0, r6
    1fcc:	70e3      	strb	r3, [r4, #3]
    1fce:	3bfe      	subs	r3, #254	; 0xfe
    1fd0:	7063      	strb	r3, [r4, #1]
    1fd2:	1d63      	adds	r3, r4, #5
    1fd4:	77dd      	strb	r5, [r3, #31]
    1fd6:	1da3      	adds	r3, r4, #6
    1fd8:	77dd      	strb	r5, [r3, #31]
    1fda:	62a5      	str	r5, [r4, #40]	; 0x28
    1fdc:	7025      	strb	r5, [r4, #0]
    1fde:	70a5      	strb	r5, [r4, #2]
    1fe0:	6065      	str	r5, [r4, #4]
    1fe2:	60a5      	str	r5, [r4, #8]
    1fe4:	60e5      	str	r5, [r4, #12]
    1fe6:	6125      	str	r5, [r4, #16]
    1fe8:	6225      	str	r5, [r4, #32]
    1fea:	82a5      	strh	r5, [r4, #20]
    1fec:	82e5      	strh	r5, [r4, #22]
    1fee:	8325      	strh	r5, [r4, #24]
    1ff0:	8365      	strh	r5, [r4, #26]
    1ff2:	f7ff f918 	bl	1226 <rt_alloc_box>
    1ff6:	491b      	ldr	r1, [pc, #108]	; (2064 <rt_sys_init+0xe0>)
    1ff8:	6320      	str	r0, [r4, #48]	; 0x30
    1ffa:	0020      	movs	r0, r4
    1ffc:	f7fe fff6 	bl	fec <rt_init_stack>
    2000:	2204      	movs	r2, #4
    2002:	4b19      	ldr	r3, [pc, #100]	; (2068 <rt_sys_init+0xe4>)
    2004:	0020      	movs	r0, r4
    2006:	701a      	strb	r2, [r3, #0]
    2008:	605d      	str	r5, [r3, #4]
    200a:	4b18      	ldr	r3, [pc, #96]	; (206c <rt_sys_init+0xe8>)
    200c:	701a      	strb	r2, [r3, #0]
    200e:	60dd      	str	r5, [r3, #12]
    2010:	611d      	str	r5, [r3, #16]
    2012:	829d      	strh	r5, [r3, #20]
    2014:	4b16      	ldr	r3, [pc, #88]	; (2070 <rt_sys_init+0xec>)
    2016:	601c      	str	r4, [r3, #0]
    2018:	2302      	movs	r3, #2
    201a:	7063      	strb	r3, [r4, #1]
    201c:	f7ff fe1a 	bl	1c54 <rt_switch_req>
    2020:	4a14      	ldr	r2, [pc, #80]	; (2074 <rt_sys_init+0xf0>)
    2022:	4b15      	ldr	r3, [pc, #84]	; (2078 <rt_sys_init+0xf4>)
    2024:	7812      	ldrb	r2, [r2, #0]
    2026:	701d      	strb	r5, [r3, #0]
    2028:	705d      	strb	r5, [r3, #1]
    202a:	70da      	strb	r2, [r3, #3]
    202c:	f7ff fa52 	bl	14d4 <rt_init_robin>
    2030:	bd70      	pop	{r4, r5, r6, pc}
    2032:	009a      	lsls	r2, r3, #2
    2034:	1812      	adds	r2, r2, r0
    2036:	6014      	str	r4, [r2, #0]
    2038:	3301      	adds	r3, #1
    203a:	e7a9      	b.n	1f90 <rt_sys_init+0xc>
    203c:	000072ec 	.word	0x000072ec
    2040:	20000828 	.word	0x20000828
    2044:	000072b8 	.word	0x000072b8
    2048:	20000bf0 	.word	0x20000bf0
    204c:	00007308 	.word	0x00007308
    2050:	20000618 	.word	0x20000618
    2054:	000072b4 	.word	0x000072b4
    2058:	000072ba 	.word	0x000072ba
    205c:	1ffff430 	.word	0x1ffff430
    2060:	20000e14 	.word	0x20000e14
    2064:	00000d3d 	.word	0x00000d3d
    2068:	20000dc0 	.word	0x20000dc0
    206c:	20000dd8 	.word	0x20000dd8
    2070:	20000e0c 	.word	0x20000e0c
    2074:	000072e9 	.word	0x000072e9
    2078:	20000844 	.word	0x20000844

0000207c <rt_sys_start>:
    207c:	22ff      	movs	r2, #255	; 0xff
    207e:	4b15      	ldr	r3, [pc, #84]	; (20d4 <rt_sys_start+0x58>)
    2080:	0412      	lsls	r2, r2, #16
    2082:	6819      	ldr	r1, [r3, #0]
    2084:	b510      	push	{r4, lr}
    2086:	430a      	orrs	r2, r1
    2088:	601a      	str	r2, [r3, #0]
    208a:	681b      	ldr	r3, [r3, #0]
    208c:	4a12      	ldr	r2, [pc, #72]	; (20d8 <rt_sys_start+0x5c>)
    208e:	025b      	lsls	r3, r3, #9
    2090:	6811      	ldr	r1, [r2, #0]
    2092:	0e9b      	lsrs	r3, r3, #26
    2094:	069b      	lsls	r3, r3, #26
    2096:	430b      	orrs	r3, r1
    2098:	6013      	str	r3, [r2, #0]
    209a:	f7ff f84d 	bl	1138 <os_tick_init>
    209e:	490f      	ldr	r1, [pc, #60]	; (20dc <rt_sys_start+0x60>)
    20a0:	6008      	str	r0, [r1, #0]
    20a2:	2800      	cmp	r0, #0
    20a4:	db15      	blt.n	20d2 <rt_sys_start+0x56>
    20a6:	0883      	lsrs	r3, r0, #2
    20a8:	4a0d      	ldr	r2, [pc, #52]	; (20e0 <rt_sys_start+0x64>)
    20aa:	009b      	lsls	r3, r3, #2
    20ac:	189b      	adds	r3, r3, r2
    20ae:	2218      	movs	r2, #24
    20b0:	00c0      	lsls	r0, r0, #3
    20b2:	4010      	ands	r0, r2
    20b4:	32e7      	adds	r2, #231	; 0xe7
    20b6:	4082      	lsls	r2, r0
    20b8:	681c      	ldr	r4, [r3, #0]
    20ba:	4322      	orrs	r2, r4
    20bc:	601a      	str	r2, [r3, #0]
    20be:	680a      	ldr	r2, [r1, #0]
    20c0:	4908      	ldr	r1, [pc, #32]	; (20e4 <rt_sys_start+0x68>)
    20c2:	0953      	lsrs	r3, r2, #5
    20c4:	009b      	lsls	r3, r3, #2
    20c6:	185b      	adds	r3, r3, r1
    20c8:	211f      	movs	r1, #31
    20ca:	400a      	ands	r2, r1
    20cc:	391e      	subs	r1, #30
    20ce:	4091      	lsls	r1, r2
    20d0:	6019      	str	r1, [r3, #0]
    20d2:	bd10      	pop	{r4, pc}
    20d4:	e000ed20 	.word	0xe000ed20
    20d8:	e000ed1c 	.word	0xe000ed1c
    20dc:	20000df0 	.word	0x20000df0
    20e0:	e000e400 	.word	0xe000e400
    20e4:	e000e100 	.word	0xe000e100

000020e8 <rt_mut_init>:
    20e8:	2303      	movs	r3, #3
    20ea:	7003      	strb	r3, [r0, #0]
    20ec:	2300      	movs	r3, #0
    20ee:	8043      	strh	r3, [r0, #2]
    20f0:	6043      	str	r3, [r0, #4]
    20f2:	6083      	str	r3, [r0, #8]
    20f4:	60c3      	str	r3, [r0, #12]
    20f6:	4770      	bx	lr

000020f8 <rt_mut_delete>:
    20f8:	b5f8      	push	{r3, r4, r5, r6, r7, lr}
    20fa:	8843      	ldrh	r3, [r0, #2]
    20fc:	0004      	movs	r4, r0
    20fe:	2b00      	cmp	r3, #0
    2100:	d014      	beq.n	212c <rt_mut_delete+0x34>
    2102:	6880      	ldr	r0, [r0, #8]
    2104:	6a03      	ldr	r3, [r0, #32]
    2106:	429c      	cmp	r4, r3
    2108:	d12b      	bne.n	2162 <rt_mut_delete+0x6a>
    210a:	68e3      	ldr	r3, [r4, #12]
    210c:	6203      	str	r3, [r0, #32]
    210e:	1d43      	adds	r3, r0, #5
    2110:	7fdb      	ldrb	r3, [r3, #31]
    2112:	6a02      	ldr	r2, [r0, #32]
    2114:	2a00      	cmp	r2, #0
    2116:	d12c      	bne.n	2172 <rt_mut_delete+0x7a>
    2118:	7882      	ldrb	r2, [r0, #2]
    211a:	429a      	cmp	r2, r3
    211c:	d006      	beq.n	212c <rt_mut_delete+0x34>
    211e:	7083      	strb	r3, [r0, #2]
    2120:	4b21      	ldr	r3, [pc, #132]	; (21a8 <rt_mut_delete+0xb0>)
    2122:	681b      	ldr	r3, [r3, #0]
    2124:	4298      	cmp	r0, r3
    2126:	d001      	beq.n	212c <rt_mut_delete+0x34>
    2128:	f7fe ff0c 	bl	f44 <rt_resort_prio>
    212c:	2701      	movs	r7, #1
    212e:	6865      	ldr	r5, [r4, #4]
    2130:	4e1e      	ldr	r6, [pc, #120]	; (21ac <rt_mut_delete+0xb4>)
    2132:	2d00      	cmp	r5, #0
    2134:	d128      	bne.n	2188 <rt_mut_delete+0x90>
    2136:	6873      	ldr	r3, [r6, #4]
    2138:	2b00      	cmp	r3, #0
    213a:	d00e      	beq.n	215a <rt_mut_delete+0x62>
    213c:	4f1a      	ldr	r7, [pc, #104]	; (21a8 <rt_mut_delete+0xb0>)
    213e:	789a      	ldrb	r2, [r3, #2]
    2140:	6839      	ldr	r1, [r7, #0]
    2142:	788b      	ldrb	r3, [r1, #2]
    2144:	429a      	cmp	r2, r3
    2146:	d908      	bls.n	215a <rt_mut_delete+0x62>
    2148:	0030      	movs	r0, r6
    214a:	f7fe fe4d 	bl	de8 <rt_put_prio>
    214e:	2201      	movs	r2, #1
    2150:	683b      	ldr	r3, [r7, #0]
    2152:	0028      	movs	r0, r5
    2154:	705a      	strb	r2, [r3, #1]
    2156:	f7ff fd9b 	bl	1c90 <rt_dispatch>
    215a:	2000      	movs	r0, #0
    215c:	7020      	strb	r0, [r4, #0]
    215e:	bdf8      	pop	{r3, r4, r5, r6, r7, pc}
    2160:	0013      	movs	r3, r2
    2162:	2b00      	cmp	r3, #0
    2164:	d0d3      	beq.n	210e <rt_mut_delete+0x16>
    2166:	68da      	ldr	r2, [r3, #12]
    2168:	4294      	cmp	r4, r2
    216a:	d1f9      	bne.n	2160 <rt_mut_delete+0x68>
    216c:	68e2      	ldr	r2, [r4, #12]
    216e:	60da      	str	r2, [r3, #12]
    2170:	e7cd      	b.n	210e <rt_mut_delete+0x16>
    2172:	6851      	ldr	r1, [r2, #4]
    2174:	2900      	cmp	r1, #0
    2176:	d005      	beq.n	2184 <rt_mut_delete+0x8c>
    2178:	788d      	ldrb	r5, [r1, #2]
    217a:	1c29      	adds	r1, r5, #0
    217c:	429d      	cmp	r5, r3
    217e:	d200      	bcs.n	2182 <rt_mut_delete+0x8a>
    2180:	1c19      	adds	r1, r3, #0
    2182:	b2cb      	uxtb	r3, r1
    2184:	68d2      	ldr	r2, [r2, #12]
    2186:	e7c5      	b.n	2114 <rt_mut_delete+0x1c>
    2188:	0020      	movs	r0, r4
    218a:	f7fe fe47 	bl	e1c <rt_get_first>
    218e:	0005      	movs	r5, r0
    2190:	2100      	movs	r1, #0
    2192:	f7fe ff77 	bl	1084 <rt_ret_val>
    2196:	0028      	movs	r0, r5
    2198:	f7fe feec 	bl	f74 <rt_rmv_dly>
    219c:	706f      	strb	r7, [r5, #1]
    219e:	0029      	movs	r1, r5
    21a0:	0030      	movs	r0, r6
    21a2:	f7fe fe21 	bl	de8 <rt_put_prio>
    21a6:	e7c2      	b.n	212e <rt_mut_delete+0x36>
    21a8:	20000e0c 	.word	0x20000e0c
    21ac:	20000dc0 	.word	0x20000dc0

000021b0 <rt_mut_release>:
    21b0:	b5f7      	push	{r0, r1, r2, r4, r5, r6, r7, lr}
    21b2:	8843      	ldrh	r3, [r0, #2]
    21b4:	0005      	movs	r5, r0
    21b6:	20ff      	movs	r0, #255	; 0xff
    21b8:	2b00      	cmp	r3, #0
    21ba:	d00b      	beq.n	21d4 <rt_mut_release+0x24>
    21bc:	4a34      	ldr	r2, [pc, #208]	; (2290 <rt_mut_release+0xe0>)
    21be:	68a9      	ldr	r1, [r5, #8]
    21c0:	6812      	ldr	r2, [r2, #0]
    21c2:	9201      	str	r2, [sp, #4]
    21c4:	4291      	cmp	r1, r2
    21c6:	d105      	bne.n	21d4 <rt_mut_release+0x24>
    21c8:	3b01      	subs	r3, #1
    21ca:	b29b      	uxth	r3, r3
    21cc:	806b      	strh	r3, [r5, #2]
    21ce:	2b00      	cmp	r3, #0
    21d0:	d001      	beq.n	21d6 <rt_mut_release+0x26>
    21d2:	2000      	movs	r0, #0
    21d4:	bdfe      	pop	{r1, r2, r3, r4, r5, r6, r7, pc}
    21d6:	6a0b      	ldr	r3, [r1, #32]
    21d8:	429d      	cmp	r5, r3
    21da:	d135      	bne.n	2248 <rt_mut_release+0x98>
    21dc:	68eb      	ldr	r3, [r5, #12]
    21de:	620b      	str	r3, [r1, #32]
    21e0:	1d4b      	adds	r3, r1, #5
    21e2:	7fdb      	ldrb	r3, [r3, #31]
    21e4:	6a0c      	ldr	r4, [r1, #32]
    21e6:	2c00      	cmp	r4, #0
    21e8:	d136      	bne.n	2258 <rt_mut_release+0xa8>
    21ea:	708b      	strb	r3, [r1, #2]
    21ec:	686a      	ldr	r2, [r5, #4]
    21ee:	4f29      	ldr	r7, [pc, #164]	; (2294 <rt_mut_release+0xe4>)
    21f0:	2a00      	cmp	r2, #0
    21f2:	d03c      	beq.n	226e <rt_mut_release+0xbe>
    21f4:	0028      	movs	r0, r5
    21f6:	f7fe fe11 	bl	e1c <rt_get_first>
    21fa:	0006      	movs	r6, r0
    21fc:	0021      	movs	r1, r4
    21fe:	f7fe ff41 	bl	1084 <rt_ret_val>
    2202:	0030      	movs	r0, r6
    2204:	f7fe feb6 	bl	f74 <rt_rmv_dly>
    2208:	2301      	movs	r3, #1
    220a:	806b      	strh	r3, [r5, #2]
    220c:	6a33      	ldr	r3, [r6, #32]
    220e:	60ae      	str	r6, [r5, #8]
    2210:	60eb      	str	r3, [r5, #12]
    2212:	4b1f      	ldr	r3, [pc, #124]	; (2290 <rt_mut_release+0xe0>)
    2214:	6235      	str	r5, [r6, #32]
    2216:	6819      	ldr	r1, [r3, #0]
    2218:	687b      	ldr	r3, [r7, #4]
    221a:	788a      	ldrb	r2, [r1, #2]
    221c:	789b      	ldrb	r3, [r3, #2]
    221e:	0030      	movs	r0, r6
    2220:	429a      	cmp	r2, r3
    2222:	d20d      	bcs.n	2240 <rt_mut_release+0x90>
    2224:	0038      	movs	r0, r7
    2226:	f7fe fddf 	bl	de8 <rt_put_prio>
    222a:	0038      	movs	r0, r7
    222c:	0031      	movs	r1, r6
    222e:	f7fe fddb 	bl	de8 <rt_put_prio>
    2232:	2201      	movs	r2, #1
    2234:	4b16      	ldr	r3, [pc, #88]	; (2290 <rt_mut_release+0xe0>)
    2236:	0020      	movs	r0, r4
    2238:	681b      	ldr	r3, [r3, #0]
    223a:	705a      	strb	r2, [r3, #1]
    223c:	2301      	movs	r3, #1
    223e:	7073      	strb	r3, [r6, #1]
    2240:	f7ff fd26 	bl	1c90 <rt_dispatch>
    2244:	e7c5      	b.n	21d2 <rt_mut_release+0x22>
    2246:	0013      	movs	r3, r2
    2248:	2b00      	cmp	r3, #0
    224a:	d0c9      	beq.n	21e0 <rt_mut_release+0x30>
    224c:	68da      	ldr	r2, [r3, #12]
    224e:	4295      	cmp	r5, r2
    2250:	d1f9      	bne.n	2246 <rt_mut_release+0x96>
    2252:	68ea      	ldr	r2, [r5, #12]
    2254:	60da      	str	r2, [r3, #12]
    2256:	e7c3      	b.n	21e0 <rt_mut_release+0x30>
    2258:	6862      	ldr	r2, [r4, #4]
    225a:	2a00      	cmp	r2, #0
    225c:	d005      	beq.n	226a <rt_mut_release+0xba>
    225e:	7890      	ldrb	r0, [r2, #2]
    2260:	1c02      	adds	r2, r0, #0
    2262:	4298      	cmp	r0, r3
    2264:	d200      	bcs.n	2268 <rt_mut_release+0xb8>
    2266:	1c1a      	adds	r2, r3, #0
    2268:	b2d3      	uxtb	r3, r2
    226a:	68e4      	ldr	r4, [r4, #12]
    226c:	e7bb      	b.n	21e6 <rt_mut_release+0x36>
    226e:	687a      	ldr	r2, [r7, #4]
    2270:	7892      	ldrb	r2, [r2, #2]
    2272:	429a      	cmp	r2, r3
    2274:	d9ad      	bls.n	21d2 <rt_mut_release+0x22>
    2276:	0038      	movs	r0, r7
    2278:	f7fe fdb6 	bl	de8 <rt_put_prio>
    227c:	2201      	movs	r2, #1
    227e:	4b04      	ldr	r3, [pc, #16]	; (2290 <rt_mut_release+0xe0>)
    2280:	0020      	movs	r0, r4
    2282:	681b      	ldr	r3, [r3, #0]
    2284:	705a      	strb	r2, [r3, #1]
    2286:	f7ff fd03 	bl	1c90 <rt_dispatch>
    228a:	0020      	movs	r0, r4
    228c:	e7a2      	b.n	21d4 <rt_mut_release+0x24>
    228e:	46c0      	nop			; (mov r8, r8)
    2290:	20000e0c 	.word	0x20000e0c
    2294:	20000dc0 	.word	0x20000dc0

00002298 <rt_mut_wait>:
    2298:	b570      	push	{r4, r5, r6, lr}
    229a:	8842      	ldrh	r2, [r0, #2]
    229c:	0004      	movs	r4, r0
    229e:	000e      	movs	r6, r1
    22a0:	4d16      	ldr	r5, [pc, #88]	; (22fc <rt_mut_wait+0x64>)
    22a2:	2a00      	cmp	r2, #0
    22a4:	d108      	bne.n	22b8 <rt_mut_wait+0x20>
    22a6:	682b      	ldr	r3, [r5, #0]
    22a8:	6a19      	ldr	r1, [r3, #32]
    22aa:	6083      	str	r3, [r0, #8]
    22ac:	60c1      	str	r1, [r0, #12]
    22ae:	6218      	str	r0, [r3, #32]
    22b0:	2000      	movs	r0, #0
    22b2:	3201      	adds	r2, #1
    22b4:	8062      	strh	r2, [r4, #2]
    22b6:	bd70      	pop	{r4, r5, r6, pc}
    22b8:	6883      	ldr	r3, [r0, #8]
    22ba:	6829      	ldr	r1, [r5, #0]
    22bc:	428b      	cmp	r3, r1
    22be:	d0f7      	beq.n	22b0 <rt_mut_wait+0x18>
    22c0:	2001      	movs	r0, #1
    22c2:	2e00      	cmp	r6, #0
    22c4:	d0f7      	beq.n	22b6 <rt_mut_wait+0x1e>
    22c6:	788a      	ldrb	r2, [r1, #2]
    22c8:	7899      	ldrb	r1, [r3, #2]
    22ca:	4291      	cmp	r1, r2
    22cc:	d203      	bcs.n	22d6 <rt_mut_wait+0x3e>
    22ce:	709a      	strb	r2, [r3, #2]
    22d0:	0018      	movs	r0, r3
    22d2:	f7fe fe37 	bl	f44 <rt_resort_prio>
    22d6:	6862      	ldr	r2, [r4, #4]
    22d8:	2a00      	cmp	r2, #0
    22da:	d009      	beq.n	22f0 <rt_mut_wait+0x58>
    22dc:	6829      	ldr	r1, [r5, #0]
    22de:	0020      	movs	r0, r4
    22e0:	f7fe fd82 	bl	de8 <rt_put_prio>
    22e4:	0030      	movs	r0, r6
    22e6:	2109      	movs	r1, #9
    22e8:	f7ff fcf2 	bl	1cd0 <rt_block>
    22ec:	2001      	movs	r0, #1
    22ee:	e7e2      	b.n	22b6 <rt_mut_wait+0x1e>
    22f0:	682b      	ldr	r3, [r5, #0]
    22f2:	6063      	str	r3, [r4, #4]
    22f4:	605a      	str	r2, [r3, #4]
    22f6:	609c      	str	r4, [r3, #8]
    22f8:	e7f4      	b.n	22e4 <rt_mut_wait+0x4c>
    22fa:	46c0      	nop			; (mov r8, r8)
    22fc:	20000e0c 	.word	0x20000e0c

00002300 <rt_dly_wait>:
    2300:	b510      	push	{r4, lr}
    2302:	2103      	movs	r1, #3
    2304:	f7ff fce4 	bl	1cd0 <rt_block>
    2308:	bd10      	pop	{r4, pc}
	...

0000230c <rt_sem_psh>:
    230c:	6843      	ldr	r3, [r0, #4]
    230e:	b510      	push	{r4, lr}
    2310:	2b00      	cmp	r3, #0
    2312:	d00e      	beq.n	2332 <rt_sem_psh+0x26>
    2314:	f7fe fd82 	bl	e1c <rt_get_first>
    2318:	0004      	movs	r4, r0
    231a:	f7fe fe2b 	bl	f74 <rt_rmv_dly>
    231e:	2101      	movs	r1, #1
    2320:	0020      	movs	r0, r4
    2322:	7061      	strb	r1, [r4, #1]
    2324:	f7fe feae 	bl	1084 <rt_ret_val>
    2328:	0021      	movs	r1, r4
    232a:	4804      	ldr	r0, [pc, #16]	; (233c <rt_sem_psh+0x30>)
    232c:	f7fe fd5c 	bl	de8 <rt_put_prio>
    2330:	bd10      	pop	{r4, pc}
    2332:	8843      	ldrh	r3, [r0, #2]
    2334:	3301      	adds	r3, #1
    2336:	8043      	strh	r3, [r0, #2]
    2338:	e7fa      	b.n	2330 <rt_sem_psh+0x24>
    233a:	46c0      	nop			; (mov r8, r8)
    233c:	20000dc0 	.word	0x20000dc0

00002340 <gpio_set>:
    2340:	b510      	push	{r4, lr}
    2342:	0004      	movs	r4, r0
    2344:	2101      	movs	r1, #1
    2346:	f000 fb27 	bl	2998 <pin_function>
    234a:	2001      	movs	r0, #1
    234c:	0664      	lsls	r4, r4, #25
    234e:	0ee4      	lsrs	r4, r4, #27
    2350:	40a0      	lsls	r0, r4
    2352:	bd10      	pop	{r4, pc}

00002354 <gpio_init>:
    2354:	b570      	push	{r4, r5, r6, lr}
    2356:	0005      	movs	r5, r0
    2358:	000c      	movs	r4, r1
    235a:	8029      	strh	r1, [r5, #0]
    235c:	1c4b      	adds	r3, r1, #1
    235e:	d00f      	beq.n	2380 <gpio_init+0x2c>
    2360:	0008      	movs	r0, r1
    2362:	f7ff ffed 	bl	2340 <gpio_set>
    2366:	4b07      	ldr	r3, [pc, #28]	; (2384 <gpio_init+0x30>)
    2368:	0b24      	lsrs	r4, r4, #12
    236a:	18e4      	adds	r4, r4, r3
    236c:	01a4      	lsls	r4, r4, #6
    236e:	1d23      	adds	r3, r4, #4
    2370:	60eb      	str	r3, [r5, #12]
    2372:	3304      	adds	r3, #4
    2374:	612b      	str	r3, [r5, #16]
    2376:	3414      	adds	r4, #20
    2378:	3308      	adds	r3, #8
    237a:	6068      	str	r0, [r5, #4]
    237c:	616b      	str	r3, [r5, #20]
    237e:	60ac      	str	r4, [r5, #8]
    2380:	bd70      	pop	{r4, r5, r6, pc}
    2382:	46c0      	nop			; (mov r8, r8)
    2384:	03e03fc0 	.word	0x03e03fc0

00002388 <gpio_mode>:
    2388:	b510      	push	{r4, lr}
    238a:	2300      	movs	r3, #0
    238c:	5ec0      	ldrsh	r0, [r0, r3]
    238e:	f000 fb23 	bl	29d8 <pin_mode>
    2392:	bd10      	pop	{r4, pc}

00002394 <gpio_dir>:
    2394:	2900      	cmp	r1, #0
    2396:	d002      	beq.n	239e <gpio_dir+0xa>
    2398:	2901      	cmp	r1, #1
    239a:	d006      	beq.n	23aa <gpio_dir+0x16>
    239c:	4770      	bx	lr
    239e:	6882      	ldr	r2, [r0, #8]
    23a0:	6841      	ldr	r1, [r0, #4]
    23a2:	6813      	ldr	r3, [r2, #0]
    23a4:	438b      	bics	r3, r1
    23a6:	6013      	str	r3, [r2, #0]
    23a8:	e7f8      	b.n	239c <gpio_dir+0x8>
    23aa:	6882      	ldr	r2, [r0, #8]
    23ac:	6841      	ldr	r1, [r0, #4]
    23ae:	6813      	ldr	r3, [r2, #0]
    23b0:	430b      	orrs	r3, r1
    23b2:	e7f8      	b.n	23a6 <gpio_dir+0x12>

000023b4 <hal_sleep>:
    23b4:	222a      	movs	r2, #42	; 0x2a
    23b6:	4b03      	ldr	r3, [pc, #12]	; (23c4 <hal_sleep+0x10>)
    23b8:	701a      	strb	r2, [r3, #0]
    23ba:	2200      	movs	r2, #0
    23bc:	4b02      	ldr	r3, [pc, #8]	; (23c8 <hal_sleep+0x14>)
    23be:	611a      	str	r2, [r3, #16]
    23c0:	bf30      	wfi
    23c2:	4770      	bx	lr
    23c4:	4007e000 	.word	0x4007e000
    23c8:	e000ed00 	.word	0xe000ed00

000023cc <lptmr_set>:
    23cc:	2200      	movs	r2, #0
    23ce:	4b06      	ldr	r3, [pc, #24]	; (23e8 <lptmr_set+0x1c>)
    23d0:	601a      	str	r2, [r3, #0]
    23d2:	6098      	str	r0, [r3, #8]
    23d4:	6819      	ldr	r1, [r3, #0]
    23d6:	3240      	adds	r2, #64	; 0x40
    23d8:	430a      	orrs	r2, r1
    23da:	601a      	str	r2, [r3, #0]
    23dc:	2201      	movs	r2, #1
    23de:	6819      	ldr	r1, [r3, #0]
    23e0:	430a      	orrs	r2, r1
    23e2:	601a      	str	r2, [r3, #0]
    23e4:	4770      	bx	lr
    23e6:	46c0      	nop			; (mov r8, r8)
    23e8:	40040000 	.word	0x40040000

000023ec <lptmr_isr>:
    23ec:	2380      	movs	r3, #128	; 0x80
    23ee:	4a0d      	ldr	r2, [pc, #52]	; (2424 <lptmr_isr+0x38>)
    23f0:	b570      	push	{r4, r5, r6, lr}
    23f2:	6811      	ldr	r1, [r2, #0]
    23f4:	4d0c      	ldr	r5, [pc, #48]	; (2428 <lptmr_isr+0x3c>)
    23f6:	430b      	orrs	r3, r1
    23f8:	6013      	str	r3, [r2, #0]
    23fa:	682c      	ldr	r4, [r5, #0]
    23fc:	2c00      	cmp	r4, #0
    23fe:	d005      	beq.n	240c <lptmr_isr+0x20>
    2400:	480a      	ldr	r0, [pc, #40]	; (242c <lptmr_isr+0x40>)
    2402:	3c01      	subs	r4, #1
    2404:	f7ff ffe2 	bl	23cc <lptmr_set>
    2408:	602c      	str	r4, [r5, #0]
    240a:	bd70      	pop	{r4, r5, r6, pc}
    240c:	4d08      	ldr	r5, [pc, #32]	; (2430 <lptmr_isr+0x44>)
    240e:	8828      	ldrh	r0, [r5, #0]
    2410:	2800      	cmp	r0, #0
    2412:	d003      	beq.n	241c <lptmr_isr+0x30>
    2414:	f7ff ffda 	bl	23cc <lptmr_set>
    2418:	802c      	strh	r4, [r5, #0]
    241a:	e7f6      	b.n	240a <lptmr_isr+0x1e>
    241c:	f7fe fb7e 	bl	b1c <us_ticker_irq_handler>
    2420:	e7f3      	b.n	240a <lptmr_isr+0x1e>
    2422:	46c0      	nop			; (mov r8, r8)
    2424:	40040000 	.word	0x40040000
    2428:	200004a8 	.word	0x200004a8
    242c:	0000ffff 	.word	0x0000ffff
    2430:	200004ac 	.word	0x200004ac

00002434 <us_ticker_init>:
    2434:	b5f7      	push	{r0, r1, r2, r4, r5, r6, r7, lr}
    2436:	4b68      	ldr	r3, [pc, #416]	; (25d8 <us_ticker_init+0x1a4>)
    2438:	681a      	ldr	r2, [r3, #0]
    243a:	9201      	str	r2, [sp, #4]
    243c:	2a00      	cmp	r2, #0
    243e:	d000      	beq.n	2442 <us_ticker_init+0xe>
    2440:	e08f      	b.n	2562 <us_ticker_init+0x12e>
    2442:	2401      	movs	r4, #1
    2444:	601c      	str	r4, [r3, #0]
    2446:	2380      	movs	r3, #128	; 0x80
    2448:	4e64      	ldr	r6, [pc, #400]	; (25dc <us_ticker_init+0x1a8>)
    244a:	4a65      	ldr	r2, [pc, #404]	; (25e0 <us_ticker_init+0x1ac>)
    244c:	041b      	lsls	r3, r3, #16
    244e:	58b1      	ldr	r1, [r6, r2]
    2450:	4d64      	ldr	r5, [pc, #400]	; (25e4 <us_ticker_init+0x1b0>)
    2452:	430b      	orrs	r3, r1
    2454:	50b3      	str	r3, [r6, r2]
    2456:	9a01      	ldr	r2, [sp, #4]
    2458:	4b63      	ldr	r3, [pc, #396]	; (25e8 <us_ticker_init+0x1b4>)
    245a:	4f64      	ldr	r7, [pc, #400]	; (25ec <us_ticker_init+0x1b8>)
    245c:	601a      	str	r2, [r3, #0]
    245e:	2301      	movs	r3, #1
    2460:	425b      	negs	r3, r3
    2462:	616b      	str	r3, [r5, #20]
    2464:	3305      	adds	r3, #5
    2466:	61eb      	str	r3, [r5, #28]
    2468:	69eb      	ldr	r3, [r5, #28]
    246a:	4323      	orrs	r3, r4
    246c:	61eb      	str	r3, [r5, #28]
    246e:	4b60      	ldr	r3, [pc, #384]	; (25f0 <us_ticker_init+0x1bc>)
    2470:	6838      	ldr	r0, [r7, #0]
    2472:	58f1      	ldr	r1, [r6, r3]
    2474:	2307      	movs	r3, #7
    2476:	0c09      	lsrs	r1, r1, #16
    2478:	4019      	ands	r1, r3
    247a:	1909      	adds	r1, r1, r4
    247c:	f001 fd4c 	bl	3f18 <__udivsi3>
    2480:	4b5c      	ldr	r3, [pc, #368]	; (25f4 <us_ticker_init+0x1c0>)
    2482:	495d      	ldr	r1, [pc, #372]	; (25f8 <us_ticker_init+0x1c4>)
    2484:	18c0      	adds	r0, r0, r3
    2486:	f001 fd47 	bl	3f18 <__udivsi3>
    248a:	4a5c      	ldr	r2, [pc, #368]	; (25fc <us_ticker_init+0x1c8>)
    248c:	3801      	subs	r0, #1
    248e:	6068      	str	r0, [r5, #4]
    2490:	60ec      	str	r4, [r5, #12]
    2492:	58b3      	ldr	r3, [r6, r2]
    2494:	4d5a      	ldr	r5, [pc, #360]	; (2600 <us_ticker_init+0x1cc>)
    2496:	4323      	orrs	r3, r4
    2498:	50b3      	str	r3, [r6, r2]
    249a:	9b01      	ldr	r3, [sp, #4]
    249c:	201c      	movs	r0, #28
    249e:	602b      	str	r3, [r5, #0]
    24a0:	4958      	ldr	r1, [pc, #352]	; (2604 <us_ticker_init+0x1d0>)
    24a2:	f000 fd6f 	bl	2f84 <NVIC_SetVector>
    24a6:	2280      	movs	r2, #128	; 0x80
    24a8:	4b57      	ldr	r3, [pc, #348]	; (2608 <us_ticker_init+0x1d4>)
    24aa:	0552      	lsls	r2, r2, #21
    24ac:	601a      	str	r2, [r3, #0]
    24ae:	223f      	movs	r2, #63	; 0x3f
    24b0:	4b4f      	ldr	r3, [pc, #316]	; (25f0 <us_ticker_init+0x1bc>)
    24b2:	683f      	ldr	r7, [r7, #0]
    24b4:	58f0      	ldr	r0, [r6, r3]
    24b6:	4e55      	ldr	r6, [pc, #340]	; (260c <us_ticker_init+0x1d8>)
    24b8:	0f00      	lsrs	r0, r0, #28
    24ba:	7833      	ldrb	r3, [r6, #0]
    24bc:	1900      	adds	r0, r0, r4
    24be:	4347      	muls	r7, r0
    24c0:	4393      	bics	r3, r2
    24c2:	2b80      	cmp	r3, #128	; 0x80
    24c4:	d033      	beq.n	252e <us_ticker_init+0xfa>
    24c6:	7833      	ldrb	r3, [r6, #0]
    24c8:	4393      	bics	r3, r2
    24ca:	d164      	bne.n	2596 <us_ticker_init+0x162>
    24cc:	7973      	ldrb	r3, [r6, #5]
    24ce:	065b      	lsls	r3, r3, #25
    24d0:	d453      	bmi.n	257a <us_ticker_init+0x146>
    24d2:	79b3      	ldrb	r3, [r6, #6]
    24d4:	06db      	lsls	r3, r3, #27
    24d6:	d45e      	bmi.n	2596 <us_ticker_init+0x162>
    24d8:	7833      	ldrb	r3, [r6, #0]
    24da:	3a38      	subs	r2, #56	; 0x38
    24dc:	08db      	lsrs	r3, r3, #3
    24de:	7871      	ldrb	r1, [r6, #1]
    24e0:	4013      	ands	r3, r2
    24e2:	3229      	adds	r2, #41	; 0x29
    24e4:	409c      	lsls	r4, r3
    24e6:	4211      	tst	r1, r2
    24e8:	d003      	beq.n	24f2 <us_ticker_init+0xbe>
    24ea:	23ff      	movs	r3, #255	; 0xff
    24ec:	0164      	lsls	r4, r4, #5
    24ee:	015b      	lsls	r3, r3, #5
    24f0:	401c      	ands	r4, r3
    24f2:	221f      	movs	r2, #31
    24f4:	78f3      	ldrb	r3, [r6, #3]
    24f6:	4393      	bics	r3, r2
    24f8:	2b60      	cmp	r3, #96	; 0x60
    24fa:	d035      	beq.n	2568 <us_ticker_init+0x134>
    24fc:	d807      	bhi.n	250e <us_ticker_init+0xda>
    24fe:	2b20      	cmp	r3, #32
    2500:	d00e      	beq.n	2520 <us_ticker_init+0xec>
    2502:	2b40      	cmp	r3, #64	; 0x40
    2504:	d02e      	beq.n	2564 <us_ticker_init+0x130>
    2506:	2b00      	cmp	r3, #0
    2508:	d135      	bne.n	2576 <us_ticker_init+0x142>
    250a:	21a0      	movs	r1, #160	; 0xa0
    250c:	e006      	b.n	251c <us_ticker_init+0xe8>
    250e:	2ba0      	cmp	r3, #160	; 0xa0
    2510:	d02d      	beq.n	256e <us_ticker_init+0x13a>
    2512:	2bc0      	cmp	r3, #192	; 0xc0
    2514:	d02d      	beq.n	2572 <us_ticker_init+0x13e>
    2516:	2b80      	cmp	r3, #128	; 0x80
    2518:	d12d      	bne.n	2576 <us_ticker_init+0x142>
    251a:	21b7      	movs	r1, #183	; 0xb7
    251c:	0089      	lsls	r1, r1, #2
    251e:	e001      	b.n	2524 <us_ticker_init+0xf0>
    2520:	21a0      	movs	r1, #160	; 0xa0
    2522:	00c9      	lsls	r1, r1, #3
    2524:	0020      	movs	r0, r4
    2526:	4378      	muls	r0, r7
    2528:	f001 fcf6 	bl	3f18 <__udivsi3>
    252c:	0007      	movs	r7, r0
    252e:	2f00      	cmp	r7, #0
    2530:	d031      	beq.n	2596 <us_ticker_init+0x162>
    2532:	4931      	ldr	r1, [pc, #196]	; (25f8 <us_ticker_init+0x1c4>)
    2534:	0038      	movs	r0, r7
    2536:	f001 fd75 	bl	4024 <__aeabi_uidivmod>
    253a:	1e0c      	subs	r4, r1, #0
    253c:	d12b      	bne.n	2596 <us_ticker_init+0x162>
    253e:	492e      	ldr	r1, [pc, #184]	; (25f8 <us_ticker_init+0x1c4>)
    2540:	0038      	movs	r0, r7
    2542:	f001 fce9 	bl	3f18 <__udivsi3>
    2546:	2307      	movs	r3, #7
    2548:	2801      	cmp	r0, #1
    254a:	d042      	beq.n	25d2 <us_ticker_init+0x19e>
    254c:	0021      	movs	r1, r4
    254e:	2301      	movs	r3, #1
    2550:	0840      	lsrs	r0, r0, #1
    2552:	2801      	cmp	r0, #1
    2554:	d11a      	bne.n	258c <us_ticker_init+0x158>
    2556:	2378      	movs	r3, #120	; 0x78
    2558:	00c9      	lsls	r1, r1, #3
    255a:	4019      	ands	r1, r3
    255c:	3b75      	subs	r3, #117	; 0x75
    255e:	4319      	orrs	r1, r3
    2560:	6069      	str	r1, [r5, #4]
    2562:	bdf7      	pop	{r0, r1, r2, r4, r5, r6, r7, pc}
    2564:	21f0      	movs	r1, #240	; 0xf0
    2566:	e7dc      	b.n	2522 <us_ticker_init+0xee>
    2568:	21a0      	movs	r1, #160	; 0xa0
    256a:	0109      	lsls	r1, r1, #4
    256c:	e7da      	b.n	2524 <us_ticker_init+0xf0>
    256e:	21b7      	movs	r1, #183	; 0xb7
    2570:	e7d7      	b.n	2522 <us_ticker_init+0xee>
    2572:	4927      	ldr	r1, [pc, #156]	; (2610 <us_ticker_init+0x1dc>)
    2574:	e7d6      	b.n	2524 <us_ticker_init+0xf0>
    2576:	4927      	ldr	r1, [pc, #156]	; (2614 <us_ticker_init+0x1e0>)
    2578:	e7d4      	b.n	2524 <us_ticker_init+0xf0>
    257a:	231f      	movs	r3, #31
    257c:	7930      	ldrb	r0, [r6, #4]
    257e:	7971      	ldrb	r1, [r6, #5]
    2580:	4018      	ands	r0, r3
    2582:	3001      	adds	r0, #1
    2584:	4019      	ands	r1, r3
    2586:	4378      	muls	r0, r7
    2588:	3118      	adds	r1, #24
    258a:	e7cd      	b.n	2528 <us_ticker_init+0xf4>
    258c:	4218      	tst	r0, r3
    258e:	d102      	bne.n	2596 <us_ticker_init+0x162>
    2590:	3101      	adds	r1, #1
    2592:	0840      	lsrs	r0, r0, #1
    2594:	e7dd      	b.n	2552 <us_ticker_init+0x11e>
    2596:	2302      	movs	r3, #2
    2598:	7832      	ldrb	r2, [r6, #0]
    259a:	4313      	orrs	r3, r2
    259c:	7033      	strb	r3, [r6, #0]
    259e:	2301      	movs	r3, #1
    25a0:	7872      	ldrb	r2, [r6, #1]
    25a2:	4313      	orrs	r3, r2
    25a4:	7073      	strb	r3, [r6, #1]
    25a6:	2300      	movs	r3, #0
    25a8:	220e      	movs	r2, #14
    25aa:	606b      	str	r3, [r5, #4]
    25ac:	7a33      	ldrb	r3, [r6, #8]
    25ae:	4013      	ands	r3, r2
    25b0:	d00a      	beq.n	25c8 <us_ticker_init+0x194>
    25b2:	2b02      	cmp	r3, #2
    25b4:	d00c      	beq.n	25d0 <us_ticker_init+0x19c>
    25b6:	7a33      	ldrb	r3, [r6, #8]
    25b8:	4393      	bics	r3, r2
    25ba:	7233      	strb	r3, [r6, #8]
    25bc:	2304      	movs	r3, #4
    25be:	7a32      	ldrb	r2, [r6, #8]
    25c0:	431a      	orrs	r2, r3
    25c2:	7232      	strb	r2, [r6, #8]
    25c4:	686a      	ldr	r2, [r5, #4]
    25c6:	e001      	b.n	25cc <us_ticker_init+0x198>
    25c8:	2308      	movs	r3, #8
    25ca:	686a      	ldr	r2, [r5, #4]
    25cc:	4313      	orrs	r3, r2
    25ce:	e000      	b.n	25d2 <us_ticker_init+0x19e>
    25d0:	686b      	ldr	r3, [r5, #4]
    25d2:	606b      	str	r3, [r5, #4]
    25d4:	e7c5      	b.n	2562 <us_ticker_init+0x12e>
    25d6:	46c0      	nop			; (mov r8, r8)
    25d8:	200004a4 	.word	0x200004a4
    25dc:	40047000 	.word	0x40047000
    25e0:	0000103c 	.word	0x0000103c
    25e4:	400370fc 	.word	0x400370fc
    25e8:	40037000 	.word	0x40037000
    25ec:	1ffff0e0 	.word	0x1ffff0e0
    25f0:	00001044 	.word	0x00001044
    25f4:	0007a120 	.word	0x0007a120
    25f8:	000f4240 	.word	0x000f4240
    25fc:	00001038 	.word	0x00001038
    2600:	40040000 	.word	0x40040000
    2604:	000023ed 	.word	0x000023ed
    2608:	e000e100 	.word	0xe000e100
    260c:	40064000 	.word	0x40064000
    2610:	00000895 	.word	0x00000895
    2614:	00000b71 	.word	0x00000b71

00002618 <us_ticker_read>:
    2618:	4b05      	ldr	r3, [pc, #20]	; (2630 <us_ticker_read+0x18>)
    261a:	b510      	push	{r4, lr}
    261c:	681b      	ldr	r3, [r3, #0]
    261e:	2b00      	cmp	r3, #0
    2620:	d101      	bne.n	2626 <us_ticker_read+0xe>
    2622:	f7ff ff07 	bl	2434 <us_ticker_init>
    2626:	4b03      	ldr	r3, [pc, #12]	; (2634 <us_ticker_read+0x1c>)
    2628:	6998      	ldr	r0, [r3, #24]
    262a:	43c0      	mvns	r0, r0
    262c:	bd10      	pop	{r4, pc}
    262e:	46c0      	nop			; (mov r8, r8)
    2630:	200004a4 	.word	0x200004a4
    2634:	400370fc 	.word	0x400370fc

00002638 <us_ticker_disable_interrupt>:
    2638:	2140      	movs	r1, #64	; 0x40
    263a:	4a02      	ldr	r2, [pc, #8]	; (2644 <us_ticker_disable_interrupt+0xc>)
    263c:	6813      	ldr	r3, [r2, #0]
    263e:	438b      	bics	r3, r1
    2640:	6013      	str	r3, [r2, #0]
    2642:	4770      	bx	lr
    2644:	40040000 	.word	0x40040000

00002648 <us_ticker_clear_interrupt>:
    2648:	4770      	bx	lr
	...

0000264c <us_ticker_set_interrupt>:
    264c:	b570      	push	{r4, r5, r6, lr}
    264e:	0004      	movs	r4, r0
    2650:	f7ff ffe2 	bl	2618 <us_ticker_read>
    2654:	1a20      	subs	r0, r4, r0
    2656:	2800      	cmp	r0, #0
    2658:	dc00      	bgt.n	265c <us_ticker_set_interrupt+0x10>
    265a:	2001      	movs	r0, #1
    265c:	4d08      	ldr	r5, [pc, #32]	; (2680 <us_ticker_set_interrupt+0x34>)
    265e:	4e09      	ldr	r6, [pc, #36]	; (2684 <us_ticker_set_interrupt+0x38>)
    2660:	1404      	asrs	r4, r0, #16
    2662:	b280      	uxth	r0, r0
    2664:	602c      	str	r4, [r5, #0]
    2666:	8030      	strh	r0, [r6, #0]
    2668:	2c00      	cmp	r4, #0
    266a:	d005      	beq.n	2678 <us_ticker_set_interrupt+0x2c>
    266c:	4806      	ldr	r0, [pc, #24]	; (2688 <us_ticker_set_interrupt+0x3c>)
    266e:	3c01      	subs	r4, #1
    2670:	f7ff feac 	bl	23cc <lptmr_set>
    2674:	602c      	str	r4, [r5, #0]
    2676:	bd70      	pop	{r4, r5, r6, pc}
    2678:	f7ff fea8 	bl	23cc <lptmr_set>
    267c:	8034      	strh	r4, [r6, #0]
    267e:	e7fa      	b.n	2676 <us_ticker_set_interrupt+0x2a>
    2680:	200004a8 	.word	0x200004a8
    2684:	200004ac 	.word	0x200004ac
    2688:	0000ffff 	.word	0x0000ffff

0000268c <mcgpllfll_frequency.part.0>:
    268c:	4a0c      	ldr	r2, [pc, #48]	; (26c0 <mcgpllfll_frequency.part.0+0x34>)
    268e:	4b0d      	ldr	r3, [pc, #52]	; (26c4 <mcgpllfll_frequency.part.0+0x38>)
    2690:	b510      	push	{r4, lr}
    2692:	5898      	ldr	r0, [r3, r2]
    2694:	4a0c      	ldr	r2, [pc, #48]	; (26c8 <mcgpllfll_frequency.part.0+0x3c>)
    2696:	0f00      	lsrs	r0, r0, #28
    2698:	6812      	ldr	r2, [r2, #0]
    269a:	3001      	adds	r0, #1
    269c:	4350      	muls	r0, r2
    269e:	4a0b      	ldr	r2, [pc, #44]	; (26cc <mcgpllfll_frequency.part.0+0x40>)
    26a0:	7951      	ldrb	r1, [r2, #5]
    26a2:	4a0b      	ldr	r2, [pc, #44]	; (26d0 <mcgpllfll_frequency.part.0+0x44>)
    26a4:	0649      	lsls	r1, r1, #25
    26a6:	d404      	bmi.n	26b2 <mcgpllfll_frequency.part.0+0x26>
    26a8:	5899      	ldr	r1, [r3, r2]
    26aa:	4c0a      	ldr	r4, [pc, #40]	; (26d4 <mcgpllfll_frequency.part.0+0x48>)
    26ac:	4021      	ands	r1, r4
    26ae:	5099      	str	r1, [r3, r2]
    26b0:	bd10      	pop	{r4, pc}
    26b2:	2180      	movs	r1, #128	; 0x80
    26b4:	589c      	ldr	r4, [r3, r2]
    26b6:	0249      	lsls	r1, r1, #9
    26b8:	4321      	orrs	r1, r4
    26ba:	5099      	str	r1, [r3, r2]
    26bc:	0840      	lsrs	r0, r0, #1
    26be:	e7f7      	b.n	26b0 <mcgpllfll_frequency.part.0+0x24>
    26c0:	00001044 	.word	0x00001044
    26c4:	40047000 	.word	0x40047000
    26c8:	1ffff0e0 	.word	0x1ffff0e0
    26cc:	40064000 	.word	0x40064000
    26d0:	00001004 	.word	0x00001004
    26d4:	fffeffff 	.word	0xfffeffff

000026d8 <pwmout_write>:
    26d8:	b570      	push	{r4, r5, r6, lr}
    26da:	1c0c      	adds	r4, r1, #0
    26dc:	0005      	movs	r5, r0
    26de:	2100      	movs	r1, #0
    26e0:	1c20      	adds	r0, r4, #0
    26e2:	f001 fda1 	bl	4228 <__aeabi_fcmplt>
    26e6:	2800      	cmp	r0, #0
    26e8:	d118      	bne.n	271c <pwmout_write+0x44>
    26ea:	21fe      	movs	r1, #254	; 0xfe
    26ec:	1c20      	adds	r0, r4, #0
    26ee:	0589      	lsls	r1, r1, #22
    26f0:	f001 fdae 	bl	4250 <__aeabi_fcmpgt>
    26f4:	2800      	cmp	r0, #0
    26f6:	d001      	beq.n	26fc <pwmout_write+0x24>
    26f8:	24fe      	movs	r4, #254	; 0xfe
    26fa:	05a4      	lsls	r4, r4, #22
    26fc:	682b      	ldr	r3, [r5, #0]
    26fe:	68ae      	ldr	r6, [r5, #8]
    2700:	6818      	ldr	r0, [r3, #0]
    2702:	3001      	adds	r0, #1
    2704:	f002 faec 	bl	4ce0 <__aeabi_ui2f>
    2708:	1c21      	adds	r1, r4, #0
    270a:	f001 ffbd 	bl	4688 <__aeabi_fmul>
    270e:	f001 fdb3 	bl	4278 <__aeabi_f2uiz>
    2712:	2200      	movs	r2, #0
    2714:	686b      	ldr	r3, [r5, #4]
    2716:	6030      	str	r0, [r6, #0]
    2718:	601a      	str	r2, [r3, #0]
    271a:	bd70      	pop	{r4, r5, r6, pc}
    271c:	2400      	movs	r4, #0
    271e:	e7ed      	b.n	26fc <pwmout_write+0x24>

00002720 <pwmout_read>:
    2720:	0003      	movs	r3, r0
    2722:	6882      	ldr	r2, [r0, #8]
    2724:	681b      	ldr	r3, [r3, #0]
    2726:	b570      	push	{r4, r5, r6, lr}
    2728:	6810      	ldr	r0, [r2, #0]
    272a:	681c      	ldr	r4, [r3, #0]
    272c:	f002 fad8 	bl	4ce0 <__aeabi_ui2f>
    2730:	1c05      	adds	r5, r0, #0
    2732:	1c60      	adds	r0, r4, #1
    2734:	f002 fad4 	bl	4ce0 <__aeabi_ui2f>
    2738:	1c01      	adds	r1, r0, #0
    273a:	1c28      	adds	r0, r5, #0
    273c:	f001 fdb4 	bl	42a8 <__aeabi_fdiv>
    2740:	21fe      	movs	r1, #254	; 0xfe
    2742:	0589      	lsls	r1, r1, #22
    2744:	1c04      	adds	r4, r0, #0
    2746:	f001 fd83 	bl	4250 <__aeabi_fcmpgt>
    274a:	2800      	cmp	r0, #0
    274c:	d001      	beq.n	2752 <pwmout_read+0x32>
    274e:	24fe      	movs	r4, #254	; 0xfe
    2750:	05a4      	lsls	r4, r4, #22
    2752:	1c20      	adds	r0, r4, #0
    2754:	bd70      	pop	{r4, r5, r6, pc}
	...

00002758 <pwmout_period_us>:
    2758:	b5f8      	push	{r3, r4, r5, r6, r7, lr}
    275a:	000f      	movs	r7, r1
    275c:	0004      	movs	r4, r0
    275e:	f7ff ffdf 	bl	2720 <pwmout_read>
    2762:	1c05      	adds	r5, r0, #0
    2764:	0038      	movs	r0, r7
    2766:	f002 fa6b 	bl	4c40 <__aeabi_i2f>
    276a:	4b07      	ldr	r3, [pc, #28]	; (2788 <pwmout_period_us+0x30>)
    276c:	6826      	ldr	r6, [r4, #0]
    276e:	6819      	ldr	r1, [r3, #0]
    2770:	f001 ff8a 	bl	4688 <__aeabi_fmul>
    2774:	f001 fd80 	bl	4278 <__aeabi_f2uiz>
    2778:	3801      	subs	r0, #1
    277a:	6030      	str	r0, [r6, #0]
    277c:	1c29      	adds	r1, r5, #0
    277e:	0020      	movs	r0, r4
    2780:	f7ff ffaa 	bl	26d8 <pwmout_write>
    2784:	bdf8      	pop	{r3, r4, r5, r6, r7, pc}
    2786:	46c0      	nop			; (mov r8, r8)
    2788:	200004b0 	.word	0x200004b0

0000278c <pwmout_period>:
    278c:	b510      	push	{r4, lr}
    278e:	0004      	movs	r4, r0
    2790:	1c08      	adds	r0, r1, #0
    2792:	4905      	ldr	r1, [pc, #20]	; (27a8 <pwmout_period+0x1c>)
    2794:	f001 ff78 	bl	4688 <__aeabi_fmul>
    2798:	f002 fa32 	bl	4c00 <__aeabi_f2iz>
    279c:	0001      	movs	r1, r0
    279e:	0020      	movs	r0, r4
    27a0:	f7ff ffda 	bl	2758 <pwmout_period_us>
    27a4:	bd10      	pop	{r4, pc}
    27a6:	46c0      	nop			; (mov r8, r8)
    27a8:	49742400 	.word	0x49742400

000027ac <pwmout_init>:
    27ac:	b5f0      	push	{r4, r5, r6, r7, lr}
    27ae:	b085      	sub	sp, #20
    27b0:	9100      	str	r1, [sp, #0]
    27b2:	0006      	movs	r6, r0
    27b4:	496a      	ldr	r1, [pc, #424]	; (2960 <pwmout_init+0x1b4>)
    27b6:	9800      	ldr	r0, [sp, #0]
    27b8:	f7fe fa14 	bl	be4 <pinmap_peripheral>
    27bc:	466b      	mov	r3, sp
    27be:	9001      	str	r0, [sp, #4]
    27c0:	889b      	ldrh	r3, [r3, #4]
    27c2:	4d68      	ldr	r5, [pc, #416]	; (2964 <pwmout_init+0x1b8>)
    27c4:	9303      	str	r3, [sp, #12]
    27c6:	4b67      	ldr	r3, [pc, #412]	; (2964 <pwmout_init+0x1b8>)
    27c8:	4c67      	ldr	r4, [pc, #412]	; (2968 <pwmout_init+0x1bc>)
    27ca:	7818      	ldrb	r0, [r3, #0]
    27cc:	233f      	movs	r3, #63	; 0x3f
    27ce:	4398      	bics	r0, r3
    27d0:	9002      	str	r0, [sp, #8]
    27d2:	4f66      	ldr	r7, [pc, #408]	; (296c <pwmout_init+0x1c0>)
    27d4:	d167      	bne.n	28a6 <pwmout_init+0xfa>
    27d6:	f7ff ff59 	bl	268c <mcgpllfll_frequency.part.0>
    27da:	2800      	cmp	r0, #0
    27dc:	d063      	beq.n	28a6 <pwmout_init+0xfa>
    27de:	2380      	movs	r3, #128	; 0x80
    27e0:	59e2      	ldr	r2, [r4, r7]
    27e2:	045b      	lsls	r3, r3, #17
    27e4:	4313      	orrs	r3, r2
    27e6:	223f      	movs	r2, #63	; 0x3f
    27e8:	51e3      	str	r3, [r4, r7]
    27ea:	782b      	ldrb	r3, [r5, #0]
    27ec:	9802      	ldr	r0, [sp, #8]
    27ee:	4393      	bics	r3, r2
    27f0:	d101      	bne.n	27f6 <pwmout_init+0x4a>
    27f2:	f7ff ff4b 	bl	268c <mcgpllfll_frequency.part.0>
    27f6:	f002 fa73 	bl	4ce0 <__aeabi_ui2f>
    27fa:	495d      	ldr	r1, [pc, #372]	; (2970 <pwmout_init+0x1c4>)
    27fc:	f001 fd54 	bl	42a8 <__aeabi_fdiv>
    2800:	2500      	movs	r5, #0
    2802:	1c07      	adds	r7, r0, #0
    2804:	21fe      	movs	r1, #254	; 0xfe
    2806:	1c38      	adds	r0, r7, #0
    2808:	0589      	lsls	r1, r1, #22
    280a:	f001 fd21 	bl	4250 <__aeabi_fcmpgt>
    280e:	2800      	cmp	r0, #0
    2810:	d008      	beq.n	2824 <pwmout_init+0x78>
    2812:	21fc      	movs	r1, #252	; 0xfc
    2814:	1c38      	adds	r0, r7, #0
    2816:	0589      	lsls	r1, r1, #22
    2818:	f001 ff36 	bl	4688 <__aeabi_fmul>
    281c:	3501      	adds	r5, #1
    281e:	1c07      	adds	r7, r0, #0
    2820:	2d07      	cmp	r5, #7
    2822:	d1ef      	bne.n	2804 <pwmout_init+0x58>
    2824:	4b53      	ldr	r3, [pc, #332]	; (2974 <pwmout_init+0x1c8>)
    2826:	2101      	movs	r1, #1
    2828:	601f      	str	r7, [r3, #0]
    282a:	9b03      	ldr	r3, [sp, #12]
    282c:	4f52      	ldr	r7, [pc, #328]	; (2978 <pwmout_init+0x1cc>)
    282e:	0a1b      	lsrs	r3, r3, #8
    2830:	9302      	str	r3, [sp, #8]
    2832:	466b      	mov	r3, sp
    2834:	791a      	ldrb	r2, [r3, #4]
    2836:	59e3      	ldr	r3, [r4, r7]
    2838:	469c      	mov	r12, r3
    283a:	9b00      	ldr	r3, [sp, #0]
    283c:	0b18      	lsrs	r0, r3, #12
    283e:	000b      	movs	r3, r1
    2840:	3009      	adds	r0, #9
    2842:	4083      	lsls	r3, r0
    2844:	0018      	movs	r0, r3
    2846:	4663      	mov	r3, r12
    2848:	4318      	orrs	r0, r3
    284a:	2318      	movs	r3, #24
    284c:	469c      	mov	r12, r3
    284e:	9b02      	ldr	r3, [sp, #8]
    2850:	51e0      	str	r0, [r4, r7]
    2852:	449c      	add	r12, r3
    2854:	4663      	mov	r3, r12
    2856:	4099      	lsls	r1, r3
    2858:	4848      	ldr	r0, [pc, #288]	; (297c <pwmout_init+0x1d0>)
    285a:	4b49      	ldr	r3, [pc, #292]	; (2980 <pwmout_init+0x1d4>)
    285c:	5827      	ldr	r7, [r4, r0]
    285e:	430f      	orrs	r7, r1
    2860:	9902      	ldr	r1, [sp, #8]
    2862:	5027      	str	r7, [r4, r0]
    2864:	18cb      	adds	r3, r1, r3
    2866:	2108      	movs	r1, #8
    2868:	2028      	movs	r0, #40	; 0x28
    286a:	430d      	orrs	r5, r1
    286c:	1c51      	adds	r1, r2, #1
    286e:	3202      	adds	r2, #2
    2870:	031b      	lsls	r3, r3, #12
    2872:	00c9      	lsls	r1, r1, #3
    2874:	00d2      	lsls	r2, r2, #3
    2876:	1859      	adds	r1, r3, r1
    2878:	189a      	adds	r2, r3, r2
    287a:	601d      	str	r5, [r3, #0]
    287c:	6048      	str	r0, [r1, #4]
    287e:	60b2      	str	r2, [r6, #8]
    2880:	001a      	movs	r2, r3
    2882:	3304      	adds	r3, #4
    2884:	3208      	adds	r2, #8
    2886:	6032      	str	r2, [r6, #0]
    2888:	6073      	str	r3, [r6, #4]
    288a:	0030      	movs	r0, r6
    288c:	493d      	ldr	r1, [pc, #244]	; (2984 <pwmout_init+0x1d8>)
    288e:	f7ff ff63 	bl	2758 <pwmout_period_us>
    2892:	0030      	movs	r0, r6
    2894:	2100      	movs	r1, #0
    2896:	f7ff ff1f 	bl	26d8 <pwmout_write>
    289a:	4931      	ldr	r1, [pc, #196]	; (2960 <pwmout_init+0x1b4>)
    289c:	9800      	ldr	r0, [sp, #0]
    289e:	f7fe f967 	bl	b70 <pinmap_pinout>
    28a2:	b005      	add	sp, #20
    28a4:	bdf0      	pop	{r4, r5, r6, r7, pc}
    28a6:	2380      	movs	r3, #128	; 0x80
    28a8:	59e2      	ldr	r2, [r4, r7]
    28aa:	049b      	lsls	r3, r3, #18
    28ac:	4313      	orrs	r3, r2
    28ae:	223f      	movs	r2, #63	; 0x3f
    28b0:	51e3      	str	r3, [r4, r7]
    28b2:	4b35      	ldr	r3, [pc, #212]	; (2988 <pwmout_init+0x1dc>)
    28b4:	58e0      	ldr	r0, [r4, r3]
    28b6:	4b35      	ldr	r3, [pc, #212]	; (298c <pwmout_init+0x1e0>)
    28b8:	0f00      	lsrs	r0, r0, #28
    28ba:	681b      	ldr	r3, [r3, #0]
    28bc:	3001      	adds	r0, #1
    28be:	4358      	muls	r0, r3
    28c0:	782b      	ldrb	r3, [r5, #0]
    28c2:	4393      	bics	r3, r2
    28c4:	2b80      	cmp	r3, #128	; 0x80
    28c6:	d096      	beq.n	27f6 <pwmout_init+0x4a>
    28c8:	782b      	ldrb	r3, [r5, #0]
    28ca:	4393      	bics	r3, r2
    28cc:	d144      	bne.n	2958 <pwmout_init+0x1ac>
    28ce:	796b      	ldrb	r3, [r5, #5]
    28d0:	3201      	adds	r2, #1
    28d2:	4013      	ands	r3, r2
    28d4:	d137      	bne.n	2946 <pwmout_init+0x19a>
    28d6:	79aa      	ldrb	r2, [r5, #6]
    28d8:	06d2      	lsls	r2, r2, #27
    28da:	d43f      	bmi.n	295c <pwmout_init+0x1b0>
    28dc:	2201      	movs	r2, #1
    28de:	2130      	movs	r1, #48	; 0x30
    28e0:	782b      	ldrb	r3, [r5, #0]
    28e2:	786f      	ldrb	r7, [r5, #1]
    28e4:	069b      	lsls	r3, r3, #26
    28e6:	0f5b      	lsrs	r3, r3, #29
    28e8:	409a      	lsls	r2, r3
    28ea:	420f      	tst	r7, r1
    28ec:	d003      	beq.n	28f6 <pwmout_init+0x14a>
    28ee:	23ff      	movs	r3, #255	; 0xff
    28f0:	0152      	lsls	r2, r2, #5
    28f2:	015b      	lsls	r3, r3, #5
    28f4:	401a      	ands	r2, r3
    28f6:	211f      	movs	r1, #31
    28f8:	78eb      	ldrb	r3, [r5, #3]
    28fa:	438b      	bics	r3, r1
    28fc:	2b60      	cmp	r3, #96	; 0x60
    28fe:	d019      	beq.n	2934 <pwmout_init+0x188>
    2900:	d807      	bhi.n	2912 <pwmout_init+0x166>
    2902:	2b20      	cmp	r3, #32
    2904:	d00e      	beq.n	2924 <pwmout_init+0x178>
    2906:	2b40      	cmp	r3, #64	; 0x40
    2908:	d012      	beq.n	2930 <pwmout_init+0x184>
    290a:	2b00      	cmp	r3, #0
    290c:	d119      	bne.n	2942 <pwmout_init+0x196>
    290e:	21a0      	movs	r1, #160	; 0xa0
    2910:	e006      	b.n	2920 <pwmout_init+0x174>
    2912:	2ba0      	cmp	r3, #160	; 0xa0
    2914:	d011      	beq.n	293a <pwmout_init+0x18e>
    2916:	2bc0      	cmp	r3, #192	; 0xc0
    2918:	d011      	beq.n	293e <pwmout_init+0x192>
    291a:	2b80      	cmp	r3, #128	; 0x80
    291c:	d111      	bne.n	2942 <pwmout_init+0x196>
    291e:	21b7      	movs	r1, #183	; 0xb7
    2920:	0089      	lsls	r1, r1, #2
    2922:	e001      	b.n	2928 <pwmout_init+0x17c>
    2924:	21a0      	movs	r1, #160	; 0xa0
    2926:	00c9      	lsls	r1, r1, #3
    2928:	4350      	muls	r0, r2
    292a:	f001 faf5 	bl	3f18 <__udivsi3>
    292e:	e762      	b.n	27f6 <pwmout_init+0x4a>
    2930:	21f0      	movs	r1, #240	; 0xf0
    2932:	e7f8      	b.n	2926 <pwmout_init+0x17a>
    2934:	21a0      	movs	r1, #160	; 0xa0
    2936:	0109      	lsls	r1, r1, #4
    2938:	e7f6      	b.n	2928 <pwmout_init+0x17c>
    293a:	21b7      	movs	r1, #183	; 0xb7
    293c:	e7f3      	b.n	2926 <pwmout_init+0x17a>
    293e:	4914      	ldr	r1, [pc, #80]	; (2990 <pwmout_init+0x1e4>)
    2940:	e7f2      	b.n	2928 <pwmout_init+0x17c>
    2942:	4914      	ldr	r1, [pc, #80]	; (2994 <pwmout_init+0x1e8>)
    2944:	e7f0      	b.n	2928 <pwmout_init+0x17c>
    2946:	221f      	movs	r2, #31
    2948:	792b      	ldrb	r3, [r5, #4]
    294a:	7969      	ldrb	r1, [r5, #5]
    294c:	4013      	ands	r3, r2
    294e:	3301      	adds	r3, #1
    2950:	4011      	ands	r1, r2
    2952:	4358      	muls	r0, r3
    2954:	3118      	adds	r1, #24
    2956:	e7e8      	b.n	292a <pwmout_init+0x17e>
    2958:	2000      	movs	r0, #0
    295a:	e74c      	b.n	27f6 <pwmout_init+0x4a>
    295c:	0018      	movs	r0, r3
    295e:	e74a      	b.n	27f6 <pwmout_init+0x4a>
    2960:	00007328 	.word	0x00007328
    2964:	40064000 	.word	0x40064000
    2968:	40047000 	.word	0x40047000
    296c:	00001004 	.word	0x00001004
    2970:	49742400 	.word	0x49742400
    2974:	200004b0 	.word	0x200004b0
    2978:	00001038 	.word	0x00001038
    297c:	0000103c 	.word	0x0000103c
    2980:	00040038 	.word	0x00040038
    2984:	00004e20 	.word	0x00004e20
    2988:	00001044 	.word	0x00001044
    298c:	1ffff0e0 	.word	0x1ffff0e0
    2990:	00000895 	.word	0x00000895
    2994:	00000b71 	.word	0x00000b71

00002998 <pin_function>:
    2998:	0b03      	lsrs	r3, r0, #12
    299a:	b5f0      	push	{r4, r5, r6, r7, lr}
    299c:	001f      	movs	r7, r3
    299e:	2201      	movs	r2, #1
    29a0:	3709      	adds	r7, #9
    29a2:	40ba      	lsls	r2, r7
    29a4:	4d08      	ldr	r5, [pc, #32]	; (29c8 <pin_function+0x30>)
    29a6:	4c09      	ldr	r4, [pc, #36]	; (29cc <pin_function+0x34>)
    29a8:	0209      	lsls	r1, r1, #8
    29aa:	592e      	ldr	r6, [r5, r4]
    29ac:	4332      	orrs	r2, r6
    29ae:	512a      	str	r2, [r5, r4]
    29b0:	4a07      	ldr	r2, [pc, #28]	; (29d0 <pin_function+0x38>)
    29b2:	189b      	adds	r3, r3, r2
    29b4:	227c      	movs	r2, #124	; 0x7c
    29b6:	031b      	lsls	r3, r3, #12
    29b8:	4010      	ands	r0, r2
    29ba:	1818      	adds	r0, r3, r0
    29bc:	6803      	ldr	r3, [r0, #0]
    29be:	4a05      	ldr	r2, [pc, #20]	; (29d4 <pin_function+0x3c>)
    29c0:	4013      	ands	r3, r2
    29c2:	4319      	orrs	r1, r3
    29c4:	6001      	str	r1, [r0, #0]
    29c6:	bdf0      	pop	{r4, r5, r6, r7, pc}
    29c8:	40047000 	.word	0x40047000
    29cc:	00001038 	.word	0x00001038
    29d0:	00040049 	.word	0x00040049
    29d4:	fffff8ff 	.word	0xfffff8ff

000029d8 <pin_mode>:
    29d8:	2203      	movs	r2, #3
    29da:	4b03      	ldr	r3, [pc, #12]	; (29e8 <pin_mode+0x10>)
    29dc:	18c0      	adds	r0, r0, r3
    29de:	6803      	ldr	r3, [r0, #0]
    29e0:	4393      	bics	r3, r2
    29e2:	4319      	orrs	r1, r3
    29e4:	6001      	str	r1, [r0, #0]
    29e6:	4770      	bx	lr
    29e8:	40049000 	.word	0x40049000

000029ec <mcgpllfll_frequency>:
    29ec:	213f      	movs	r1, #63	; 0x3f
    29ee:	2000      	movs	r0, #0
    29f0:	4a0e      	ldr	r2, [pc, #56]	; (2a2c <mcgpllfll_frequency+0x40>)
    29f2:	b510      	push	{r4, lr}
    29f4:	7813      	ldrb	r3, [r2, #0]
    29f6:	438b      	bics	r3, r1
    29f8:	4283      	cmp	r3, r0
    29fa:	d10f      	bne.n	2a1c <mcgpllfll_frequency+0x30>
    29fc:	490c      	ldr	r1, [pc, #48]	; (2a30 <mcgpllfll_frequency+0x44>)
    29fe:	4b0d      	ldr	r3, [pc, #52]	; (2a34 <mcgpllfll_frequency+0x48>)
    2a00:	5858      	ldr	r0, [r3, r1]
    2a02:	490d      	ldr	r1, [pc, #52]	; (2a38 <mcgpllfll_frequency+0x4c>)
    2a04:	0f00      	lsrs	r0, r0, #28
    2a06:	6809      	ldr	r1, [r1, #0]
    2a08:	3001      	adds	r0, #1
    2a0a:	4348      	muls	r0, r1
    2a0c:	7951      	ldrb	r1, [r2, #5]
    2a0e:	4a0b      	ldr	r2, [pc, #44]	; (2a3c <mcgpllfll_frequency+0x50>)
    2a10:	0649      	lsls	r1, r1, #25
    2a12:	d404      	bmi.n	2a1e <mcgpllfll_frequency+0x32>
    2a14:	5899      	ldr	r1, [r3, r2]
    2a16:	4c0a      	ldr	r4, [pc, #40]	; (2a40 <mcgpllfll_frequency+0x54>)
    2a18:	4021      	ands	r1, r4
    2a1a:	5099      	str	r1, [r3, r2]
    2a1c:	bd10      	pop	{r4, pc}
    2a1e:	2180      	movs	r1, #128	; 0x80
    2a20:	589c      	ldr	r4, [r3, r2]
    2a22:	0249      	lsls	r1, r1, #9
    2a24:	4321      	orrs	r1, r4
    2a26:	5099      	str	r1, [r3, r2]
    2a28:	0840      	lsrs	r0, r0, #1
    2a2a:	e7f7      	b.n	2a1c <mcgpllfll_frequency+0x30>
    2a2c:	40064000 	.word	0x40064000
    2a30:	00001044 	.word	0x00001044
    2a34:	40047000 	.word	0x40047000
    2a38:	1ffff0e0 	.word	0x1ffff0e0
    2a3c:	00001004 	.word	0x00001004
    2a40:	fffeffff 	.word	0xfffeffff

00002a44 <uart_irq>:
    2a44:	b570      	push	{r4, r5, r6, lr}
    2a46:	4d0a      	ldr	r5, [pc, #40]	; (2a70 <uart_irq+0x2c>)
    2a48:	008c      	lsls	r4, r1, #2
    2a4a:	0006      	movs	r6, r0
    2a4c:	5960      	ldr	r0, [r4, r5]
    2a4e:	2800      	cmp	r0, #0
    2a50:	d00d      	beq.n	2a6e <uart_irq+0x2a>
    2a52:	b273      	sxtb	r3, r6
    2a54:	2b00      	cmp	r3, #0
    2a56:	da03      	bge.n	2a60 <uart_irq+0x1c>
    2a58:	4b06      	ldr	r3, [pc, #24]	; (2a74 <uart_irq+0x30>)
    2a5a:	2101      	movs	r1, #1
    2a5c:	681b      	ldr	r3, [r3, #0]
    2a5e:	4798      	blx	r3
    2a60:	06b3      	lsls	r3, r6, #26
    2a62:	d504      	bpl.n	2a6e <uart_irq+0x2a>
    2a64:	4b03      	ldr	r3, [pc, #12]	; (2a74 <uart_irq+0x30>)
    2a66:	2100      	movs	r1, #0
    2a68:	681b      	ldr	r3, [r3, #0]
    2a6a:	5928      	ldr	r0, [r5, r4]
    2a6c:	4798      	blx	r3
    2a6e:	bd70      	pop	{r4, r5, r6, pc}
    2a70:	200004b8 	.word	0x200004b8
    2a74:	200004b4 	.word	0x200004b4

00002a78 <uart1_irq>:
    2a78:	b510      	push	{r4, lr}
    2a7a:	4b03      	ldr	r3, [pc, #12]	; (2a88 <uart1_irq+0x10>)
    2a7c:	2101      	movs	r1, #1
    2a7e:	7918      	ldrb	r0, [r3, #4]
    2a80:	b2c0      	uxtb	r0, r0
    2a82:	f7ff ffdf 	bl	2a44 <uart_irq>
    2a86:	bd10      	pop	{r4, pc}
    2a88:	4006b000 	.word	0x4006b000

00002a8c <uart2_irq>:
    2a8c:	b510      	push	{r4, lr}
    2a8e:	4b03      	ldr	r3, [pc, #12]	; (2a9c <uart2_irq+0x10>)
    2a90:	2102      	movs	r1, #2
    2a92:	7918      	ldrb	r0, [r3, #4]
    2a94:	b2c0      	uxtb	r0, r0
    2a96:	f7ff ffd5 	bl	2a44 <uart_irq>
    2a9a:	bd10      	pop	{r4, pc}
    2a9c:	4006c000 	.word	0x4006c000

00002aa0 <uart0_irq>:
    2aa0:	b510      	push	{r4, lr}
    2aa2:	4c07      	ldr	r4, [pc, #28]	; (2ac0 <uart0_irq+0x20>)
    2aa4:	2100      	movs	r1, #0
    2aa6:	7920      	ldrb	r0, [r4, #4]
    2aa8:	b2c0      	uxtb	r0, r0
    2aaa:	f7ff ffcb 	bl	2a44 <uart_irq>
    2aae:	2308      	movs	r3, #8
    2ab0:	7922      	ldrb	r2, [r4, #4]
    2ab2:	421a      	tst	r2, r3
    2ab4:	d002      	beq.n	2abc <uart0_irq+0x1c>
    2ab6:	7922      	ldrb	r2, [r4, #4]
    2ab8:	4313      	orrs	r3, r2
    2aba:	7123      	strb	r3, [r4, #4]
    2abc:	bd10      	pop	{r4, pc}
    2abe:	46c0      	nop			; (mov r8, r8)
    2ac0:	4006a000 	.word	0x4006a000

00002ac4 <serial_baud>:
    2ac4:	b5f7      	push	{r0, r1, r2, r4, r5, r6, r7, lr}
    2ac6:	000d      	movs	r5, r1
    2ac8:	210c      	movs	r1, #12
    2aca:	6803      	ldr	r3, [r0, #0]
    2acc:	0006      	movs	r6, r0
    2ace:	78dc      	ldrb	r4, [r3, #3]
    2ad0:	400c      	ands	r4, r1
    2ad2:	9401      	str	r4, [sp, #4]
    2ad4:	78da      	ldrb	r2, [r3, #3]
    2ad6:	438a      	bics	r2, r1
    2ad8:	70da      	strb	r2, [r3, #3]
    2ada:	4a41      	ldr	r2, [pc, #260]	; (2be0 <serial_baud+0x11c>)
    2adc:	4293      	cmp	r3, r2
    2ade:	d000      	beq.n	2ae2 <serial_baud+0x1e>
    2ae0:	e073      	b.n	2bca <serial_baud+0x106>
    2ae2:	f7ff ff83 	bl	29ec <mcgpllfll_frequency>
    2ae6:	2800      	cmp	r0, #0
    2ae8:	d014      	beq.n	2b14 <serial_baud+0x50>
    2aea:	f7ff ff7f 	bl	29ec <mcgpllfll_frequency>
    2aee:	0129      	lsls	r1, r5, #4
    2af0:	f001 fa12 	bl	3f18 <__udivsi3>
    2af4:	251f      	movs	r5, #31
    2af6:	6832      	ldr	r2, [r6, #0]
    2af8:	0a03      	lsrs	r3, r0, #8
    2afa:	7811      	ldrb	r1, [r2, #0]
    2afc:	402b      	ands	r3, r5
    2afe:	43a9      	bics	r1, r5
    2b00:	430b      	orrs	r3, r1
    2b02:	7013      	strb	r3, [r2, #0]
    2b04:	b2c0      	uxtb	r0, r0
    2b06:	7853      	ldrb	r3, [r2, #1]
    2b08:	7050      	strb	r0, [r2, #1]
    2b0a:	78d3      	ldrb	r3, [r2, #3]
    2b0c:	9c01      	ldr	r4, [sp, #4]
    2b0e:	431c      	orrs	r4, r3
    2b10:	70d4      	strb	r4, [r2, #3]
    2b12:	bdf7      	pop	{r0, r1, r2, r4, r5, r6, r7, pc}
    2b14:	4b33      	ldr	r3, [pc, #204]	; (2be4 <serial_baud+0x120>)
    2b16:	4a34      	ldr	r2, [pc, #208]	; (2be8 <serial_baud+0x124>)
    2b18:	58d7      	ldr	r7, [r2, r3]
    2b1a:	4b34      	ldr	r3, [pc, #208]	; (2bec <serial_baud+0x128>)
    2b1c:	0f3f      	lsrs	r7, r7, #28
    2b1e:	681a      	ldr	r2, [r3, #0]
    2b20:	233f      	movs	r3, #63	; 0x3f
    2b22:	3701      	adds	r7, #1
    2b24:	4357      	muls	r7, r2
    2b26:	4a32      	ldr	r2, [pc, #200]	; (2bf0 <serial_baud+0x12c>)
    2b28:	469c      	mov	r12, r3
    2b2a:	7811      	ldrb	r1, [r2, #0]
    2b2c:	4399      	bics	r1, r3
    2b2e:	0013      	movs	r3, r2
    2b30:	2980      	cmp	r1, #128	; 0x80
    2b32:	d053      	beq.n	2bdc <serial_baud+0x118>
    2b34:	4664      	mov	r4, r12
    2b36:	7811      	ldrb	r1, [r2, #0]
    2b38:	43a1      	bics	r1, r4
    2b3a:	d1d8      	bne.n	2aee <serial_baud+0x2a>
    2b3c:	7951      	ldrb	r1, [r2, #5]
    2b3e:	0649      	lsls	r1, r1, #25
    2b40:	d43a      	bmi.n	2bb8 <serial_baud+0xf4>
    2b42:	7992      	ldrb	r2, [r2, #6]
    2b44:	06d2      	lsls	r2, r2, #27
    2b46:	d4d2      	bmi.n	2aee <serial_baud+0x2a>
    2b48:	7819      	ldrb	r1, [r3, #0]
    2b4a:	785a      	ldrb	r2, [r3, #1]
    2b4c:	0689      	lsls	r1, r1, #26
    2b4e:	4694      	mov	r12, r2
    2b50:	2201      	movs	r2, #1
    2b52:	0f49      	lsrs	r1, r1, #29
    2b54:	408a      	lsls	r2, r1
    2b56:	2030      	movs	r0, #48	; 0x30
    2b58:	4661      	mov	r1, r12
    2b5a:	4201      	tst	r1, r0
    2b5c:	d003      	beq.n	2b66 <serial_baud+0xa2>
    2b5e:	21ff      	movs	r1, #255	; 0xff
    2b60:	0152      	lsls	r2, r2, #5
    2b62:	0149      	lsls	r1, r1, #5
    2b64:	400a      	ands	r2, r1
    2b66:	211f      	movs	r1, #31
    2b68:	78db      	ldrb	r3, [r3, #3]
    2b6a:	438b      	bics	r3, r1
    2b6c:	2b60      	cmp	r3, #96	; 0x60
    2b6e:	d01a      	beq.n	2ba6 <serial_baud+0xe2>
    2b70:	d807      	bhi.n	2b82 <serial_baud+0xbe>
    2b72:	2b20      	cmp	r3, #32
    2b74:	d00e      	beq.n	2b94 <serial_baud+0xd0>
    2b76:	2b40      	cmp	r3, #64	; 0x40
    2b78:	d013      	beq.n	2ba2 <serial_baud+0xde>
    2b7a:	2b00      	cmp	r3, #0
    2b7c:	d11a      	bne.n	2bb4 <serial_baud+0xf0>
    2b7e:	21a0      	movs	r1, #160	; 0xa0
    2b80:	e006      	b.n	2b90 <serial_baud+0xcc>
    2b82:	2ba0      	cmp	r3, #160	; 0xa0
    2b84:	d012      	beq.n	2bac <serial_baud+0xe8>
    2b86:	2bc0      	cmp	r3, #192	; 0xc0
    2b88:	d012      	beq.n	2bb0 <serial_baud+0xec>
    2b8a:	2b80      	cmp	r3, #128	; 0x80
    2b8c:	d112      	bne.n	2bb4 <serial_baud+0xf0>
    2b8e:	21b7      	movs	r1, #183	; 0xb7
    2b90:	0089      	lsls	r1, r1, #2
    2b92:	e001      	b.n	2b98 <serial_baud+0xd4>
    2b94:	21a0      	movs	r1, #160	; 0xa0
    2b96:	00c9      	lsls	r1, r1, #3
    2b98:	437a      	muls	r2, r7
    2b9a:	0010      	movs	r0, r2
    2b9c:	f001 f9bc 	bl	3f18 <__udivsi3>
    2ba0:	e7a5      	b.n	2aee <serial_baud+0x2a>
    2ba2:	21f0      	movs	r1, #240	; 0xf0
    2ba4:	e7f7      	b.n	2b96 <serial_baud+0xd2>
    2ba6:	21a0      	movs	r1, #160	; 0xa0
    2ba8:	0109      	lsls	r1, r1, #4
    2baa:	e7f5      	b.n	2b98 <serial_baud+0xd4>
    2bac:	21b7      	movs	r1, #183	; 0xb7
    2bae:	e7f2      	b.n	2b96 <serial_baud+0xd2>
    2bb0:	4910      	ldr	r1, [pc, #64]	; (2bf4 <serial_baud+0x130>)
    2bb2:	e7f1      	b.n	2b98 <serial_baud+0xd4>
    2bb4:	4910      	ldr	r1, [pc, #64]	; (2bf8 <serial_baud+0x134>)
    2bb6:	e7ef      	b.n	2b98 <serial_baud+0xd4>
    2bb8:	231f      	movs	r3, #31
    2bba:	7910      	ldrb	r0, [r2, #4]
    2bbc:	7951      	ldrb	r1, [r2, #5]
    2bbe:	4018      	ands	r0, r3
    2bc0:	3001      	adds	r0, #1
    2bc2:	4019      	ands	r1, r3
    2bc4:	4378      	muls	r0, r7
    2bc6:	3118      	adds	r1, #24
    2bc8:	e7e8      	b.n	2b9c <serial_baud+0xd8>
    2bca:	4b06      	ldr	r3, [pc, #24]	; (2be4 <serial_baud+0x120>)
    2bcc:	4a06      	ldr	r2, [pc, #24]	; (2be8 <serial_baud+0x124>)
    2bce:	58d1      	ldr	r1, [r2, r3]
    2bd0:	4b06      	ldr	r3, [pc, #24]	; (2bec <serial_baud+0x128>)
    2bd2:	0349      	lsls	r1, r1, #13
    2bd4:	0f49      	lsrs	r1, r1, #29
    2bd6:	3101      	adds	r1, #1
    2bd8:	6818      	ldr	r0, [r3, #0]
    2bda:	e7df      	b.n	2b9c <serial_baud+0xd8>
    2bdc:	0038      	movs	r0, r7
    2bde:	e786      	b.n	2aee <serial_baud+0x2a>
    2be0:	4006a000 	.word	0x4006a000
    2be4:	00001044 	.word	0x00001044
    2be8:	40047000 	.word	0x40047000
    2bec:	1ffff0e0 	.word	0x1ffff0e0
    2bf0:	40064000 	.word	0x40064000
    2bf4:	00000895 	.word	0x00000895
    2bf8:	00000b71 	.word	0x00000b71

00002bfc <serial_format>:
    2bfc:	b5f0      	push	{r4, r5, r6, r7, lr}
    2bfe:	270c      	movs	r7, #12
    2c00:	6801      	ldr	r1, [r0, #0]
    2c02:	78c8      	ldrb	r0, [r1, #3]
    2c04:	78ce      	ldrb	r6, [r1, #3]
    2c06:	4038      	ands	r0, r7
    2c08:	43be      	bics	r6, r7
    2c0a:	70ce      	strb	r6, [r1, #3]
    2c0c:	2a01      	cmp	r2, #1
    2c0e:	d015      	beq.n	2c3c <serial_format+0x40>
    2c10:	2a00      	cmp	r2, #0
    2c12:	d013      	beq.n	2c3c <serial_format+0x40>
    2c14:	2a02      	cmp	r2, #2
    2c16:	d014      	beq.n	2c42 <serial_format+0x46>
    2c18:	0064      	lsls	r4, r4, #1
    2c1a:	432c      	orrs	r4, r5
    2c1c:	b2e4      	uxtb	r4, r4
    2c1e:	708c      	strb	r4, [r1, #2]
    2c20:	2420      	movs	r4, #32
    2c22:	780a      	ldrb	r2, [r1, #0]
    2c24:	3b01      	subs	r3, #1
    2c26:	43a2      	bics	r2, r4
    2c28:	700a      	strb	r2, [r1, #0]
    2c2a:	780a      	ldrb	r2, [r1, #0]
    2c2c:	015b      	lsls	r3, r3, #5
    2c2e:	4313      	orrs	r3, r2
    2c30:	b2db      	uxtb	r3, r3
    2c32:	700b      	strb	r3, [r1, #0]
    2c34:	78cb      	ldrb	r3, [r1, #3]
    2c36:	4318      	orrs	r0, r3
    2c38:	70c8      	strb	r0, [r1, #3]
    2c3a:	bdf0      	pop	{r4, r5, r6, r7, pc}
    2c3c:	0015      	movs	r5, r2
    2c3e:	0014      	movs	r4, r2
    2c40:	e7ea      	b.n	2c18 <serial_format+0x1c>
    2c42:	2500      	movs	r5, #0
    2c44:	2401      	movs	r4, #1
    2c46:	e7e7      	b.n	2c18 <serial_format+0x1c>

00002c48 <serial_init>:
    2c48:	b5f8      	push	{r3, r4, r5, r6, r7, lr}
    2c4a:	000e      	movs	r6, r1
    2c4c:	0004      	movs	r4, r0
    2c4e:	4949      	ldr	r1, [pc, #292]	; (2d74 <serial_init+0x12c>)
    2c50:	0030      	movs	r0, r6
    2c52:	0017      	movs	r7, r2
    2c54:	f7fd ffc6 	bl	be4 <pinmap_peripheral>
    2c58:	4947      	ldr	r1, [pc, #284]	; (2d78 <serial_init+0x130>)
    2c5a:	0005      	movs	r5, r0
    2c5c:	0038      	movs	r0, r7
    2c5e:	f7fd ffc1 	bl	be4 <pinmap_peripheral>
    2c62:	0001      	movs	r1, r0
    2c64:	0028      	movs	r0, r5
    2c66:	f7fd ff9f 	bl	ba8 <pinmap_merge>
    2c6a:	4b44      	ldr	r3, [pc, #272]	; (2d7c <serial_init+0x134>)
    2c6c:	0005      	movs	r5, r0
    2c6e:	6020      	str	r0, [r4, #0]
    2c70:	4298      	cmp	r0, r3
    2c72:	d100      	bne.n	2c76 <serial_init+0x2e>
    2c74:	e06c      	b.n	2d50 <serial_init+0x108>
    2c76:	4b42      	ldr	r3, [pc, #264]	; (2d80 <serial_init+0x138>)
    2c78:	4298      	cmp	r0, r3
    2c7a:	d100      	bne.n	2c7e <serial_init+0x36>
    2c7c:	e070      	b.n	2d60 <serial_init+0x118>
    2c7e:	4b41      	ldr	r3, [pc, #260]	; (2d84 <serial_init+0x13c>)
    2c80:	4298      	cmp	r0, r3
    2c82:	d110      	bne.n	2ca6 <serial_init+0x5e>
    2c84:	f7ff feb2 	bl	29ec <mcgpllfll_frequency>
    2c88:	4b3f      	ldr	r3, [pc, #252]	; (2d88 <serial_init+0x140>)
    2c8a:	4a40      	ldr	r2, [pc, #256]	; (2d8c <serial_init+0x144>)
    2c8c:	2800      	cmp	r0, #0
    2c8e:	d05b      	beq.n	2d48 <serial_init+0x100>
    2c90:	2180      	movs	r1, #128	; 0x80
    2c92:	5898      	ldr	r0, [r3, r2]
    2c94:	04c9      	lsls	r1, r1, #19
    2c96:	4301      	orrs	r1, r0
    2c98:	5099      	str	r1, [r3, r2]
    2c9a:	2280      	movs	r2, #128	; 0x80
    2c9c:	493c      	ldr	r1, [pc, #240]	; (2d90 <serial_init+0x148>)
    2c9e:	00d2      	lsls	r2, r2, #3
    2ca0:	5858      	ldr	r0, [r3, r1]
    2ca2:	4302      	orrs	r2, r0
    2ca4:	505a      	str	r2, [r3, r1]
    2ca6:	210c      	movs	r1, #12
    2ca8:	6823      	ldr	r3, [r4, #0]
    2caa:	78da      	ldrb	r2, [r3, #3]
    2cac:	438a      	bics	r2, r1
    2cae:	70da      	strb	r2, [r3, #3]
    2cb0:	2208      	movs	r2, #8
    2cb2:	78d9      	ldrb	r1, [r3, #3]
    2cb4:	430a      	orrs	r2, r1
    2cb6:	70da      	strb	r2, [r3, #3]
    2cb8:	2240      	movs	r2, #64	; 0x40
    2cba:	7919      	ldrb	r1, [r3, #4]
    2cbc:	4211      	tst	r1, r2
    2cbe:	d0fc      	beq.n	2cba <serial_init+0x72>
    2cc0:	210c      	movs	r1, #12
    2cc2:	78da      	ldrb	r2, [r3, #3]
    2cc4:	438a      	bics	r2, r1
    2cc6:	70da      	strb	r2, [r3, #3]
    2cc8:	4b2c      	ldr	r3, [pc, #176]	; (2d7c <serial_init+0x134>)
    2cca:	429d      	cmp	r5, r3
    2ccc:	d04e      	beq.n	2d6c <serial_init+0x124>
    2cce:	4b2c      	ldr	r3, [pc, #176]	; (2d80 <serial_init+0x138>)
    2cd0:	429d      	cmp	r5, r3
    2cd2:	d04d      	beq.n	2d70 <serial_init+0x128>
    2cd4:	4b2b      	ldr	r3, [pc, #172]	; (2d84 <serial_init+0x13c>)
    2cd6:	429d      	cmp	r5, r3
    2cd8:	d101      	bne.n	2cde <serial_init+0x96>
    2cda:	2300      	movs	r3, #0
    2cdc:	6063      	str	r3, [r4, #4]
    2cde:	2196      	movs	r1, #150	; 0x96
    2ce0:	0020      	movs	r0, r4
    2ce2:	0189      	lsls	r1, r1, #6
    2ce4:	f7ff feee 	bl	2ac4 <serial_baud>
    2ce8:	2301      	movs	r3, #1
    2cea:	2200      	movs	r2, #0
    2cec:	2108      	movs	r1, #8
    2cee:	0020      	movs	r0, r4
    2cf0:	f7ff ff84 	bl	2bfc <serial_format>
    2cf4:	491f      	ldr	r1, [pc, #124]	; (2d74 <serial_init+0x12c>)
    2cf6:	0030      	movs	r0, r6
    2cf8:	f7fd ff3a 	bl	b70 <pinmap_pinout>
    2cfc:	491e      	ldr	r1, [pc, #120]	; (2d78 <serial_init+0x130>)
    2cfe:	0038      	movs	r0, r7
    2d00:	f7fd ff36 	bl	b70 <pinmap_pinout>
    2d04:	1c73      	adds	r3, r6, #1
    2d06:	d008      	beq.n	2d1a <serial_init+0xd2>
    2d08:	2308      	movs	r3, #8
    2d0a:	6822      	ldr	r2, [r4, #0]
    2d0c:	0030      	movs	r0, r6
    2d0e:	78d1      	ldrb	r1, [r2, #3]
    2d10:	430b      	orrs	r3, r1
    2d12:	70d3      	strb	r3, [r2, #3]
    2d14:	2102      	movs	r1, #2
    2d16:	f7ff fe5f 	bl	29d8 <pin_mode>
    2d1a:	1c7b      	adds	r3, r7, #1
    2d1c:	d008      	beq.n	2d30 <serial_init+0xe8>
    2d1e:	2304      	movs	r3, #4
    2d20:	6822      	ldr	r2, [r4, #0]
    2d22:	0038      	movs	r0, r7
    2d24:	78d1      	ldrb	r1, [r2, #3]
    2d26:	430b      	orrs	r3, r1
    2d28:	70d3      	strb	r3, [r2, #3]
    2d2a:	2102      	movs	r1, #2
    2d2c:	f7ff fe54 	bl	29d8 <pin_mode>
    2d30:	4b14      	ldr	r3, [pc, #80]	; (2d84 <serial_init+0x13c>)
    2d32:	429d      	cmp	r5, r3
    2d34:	d107      	bne.n	2d46 <serial_init+0xfe>
    2d36:	2201      	movs	r2, #1
    2d38:	4b16      	ldr	r3, [pc, #88]	; (2d94 <serial_init+0x14c>)
    2d3a:	0021      	movs	r1, r4
    2d3c:	601a      	str	r2, [r3, #0]
    2d3e:	4816      	ldr	r0, [pc, #88]	; (2d98 <serial_init+0x150>)
    2d40:	3207      	adds	r2, #7
    2d42:	f002 fc22 	bl	558a <memcpy>
    2d46:	bdf8      	pop	{r3, r4, r5, r6, r7, pc}
    2d48:	2180      	movs	r1, #128	; 0x80
    2d4a:	5898      	ldr	r0, [r3, r2]
    2d4c:	0509      	lsls	r1, r1, #20
    2d4e:	e7a2      	b.n	2c96 <serial_init+0x4e>
    2d50:	2380      	movs	r3, #128	; 0x80
    2d52:	490d      	ldr	r1, [pc, #52]	; (2d88 <serial_init+0x140>)
    2d54:	4a0e      	ldr	r2, [pc, #56]	; (2d90 <serial_init+0x148>)
    2d56:	011b      	lsls	r3, r3, #4
    2d58:	5888      	ldr	r0, [r1, r2]
    2d5a:	4303      	orrs	r3, r0
    2d5c:	508b      	str	r3, [r1, r2]
    2d5e:	e7a2      	b.n	2ca6 <serial_init+0x5e>
    2d60:	2380      	movs	r3, #128	; 0x80
    2d62:	4909      	ldr	r1, [pc, #36]	; (2d88 <serial_init+0x140>)
    2d64:	4a0a      	ldr	r2, [pc, #40]	; (2d90 <serial_init+0x148>)
    2d66:	015b      	lsls	r3, r3, #5
    2d68:	5888      	ldr	r0, [r1, r2]
    2d6a:	e7f6      	b.n	2d5a <serial_init+0x112>
    2d6c:	2301      	movs	r3, #1
    2d6e:	e7b5      	b.n	2cdc <serial_init+0x94>
    2d70:	2302      	movs	r3, #2
    2d72:	e7b3      	b.n	2cdc <serial_init+0x94>
    2d74:	00007550 	.word	0x00007550
    2d78:	000074e4 	.word	0x000074e4
    2d7c:	4006b000 	.word	0x4006b000
    2d80:	4006c000 	.word	0x4006c000
    2d84:	4006a000 	.word	0x4006a000
    2d88:	40047000 	.word	0x40047000
    2d8c:	00001004 	.word	0x00001004
    2d90:	00001034 	.word	0x00001034
    2d94:	200004c4 	.word	0x200004c4
    2d98:	20000e58 	.word	0x20000e58

00002d9c <serial_irq_handler>:
    2d9c:	4b03      	ldr	r3, [pc, #12]	; (2dac <serial_irq_handler+0x10>)
    2d9e:	6019      	str	r1, [r3, #0]
    2da0:	6843      	ldr	r3, [r0, #4]
    2da2:	4903      	ldr	r1, [pc, #12]	; (2db0 <serial_irq_handler+0x14>)
    2da4:	009b      	lsls	r3, r3, #2
    2da6:	505a      	str	r2, [r3, r1]
    2da8:	4770      	bx	lr
    2daa:	46c0      	nop			; (mov r8, r8)
    2dac:	200004b4 	.word	0x200004b4
    2db0:	200004b8 	.word	0x200004b8

00002db4 <serial_irq_set>:
    2db4:	6803      	ldr	r3, [r0, #0]
    2db6:	4827      	ldr	r0, [pc, #156]	; (2e54 <serial_irq_set+0xa0>)
    2db8:	b510      	push	{r4, lr}
    2dba:	4283      	cmp	r3, r0
    2dbc:	d016      	beq.n	2dec <serial_irq_set+0x38>
    2dbe:	4826      	ldr	r0, [pc, #152]	; (2e58 <serial_irq_set+0xa4>)
    2dc0:	4283      	cmp	r3, r0
    2dc2:	d016      	beq.n	2df2 <serial_irq_set+0x3e>
    2dc4:	4825      	ldr	r0, [pc, #148]	; (2e5c <serial_irq_set+0xa8>)
    2dc6:	4283      	cmp	r3, r0
    2dc8:	d116      	bne.n	2df8 <serial_irq_set+0x44>
    2dca:	240c      	movs	r4, #12
    2dcc:	4824      	ldr	r0, [pc, #144]	; (2e60 <serial_irq_set+0xac>)
    2dce:	2a00      	cmp	r2, #0
    2dd0:	d01d      	beq.n	2e0e <serial_irq_set+0x5a>
    2dd2:	2900      	cmp	r1, #0
    2dd4:	d013      	beq.n	2dfe <serial_irq_set+0x4a>
    2dd6:	2901      	cmp	r1, #1
    2dd8:	d016      	beq.n	2e08 <serial_irq_set+0x54>
    2dda:	0001      	movs	r1, r0
    2ddc:	0020      	movs	r0, r4
    2dde:	f000 f8d1 	bl	2f84 <NVIC_SetVector>
    2de2:	2301      	movs	r3, #1
    2de4:	40a3      	lsls	r3, r4
    2de6:	4a1f      	ldr	r2, [pc, #124]	; (2e64 <serial_irq_set+0xb0>)
    2de8:	6013      	str	r3, [r2, #0]
    2dea:	bd10      	pop	{r4, pc}
    2dec:	481e      	ldr	r0, [pc, #120]	; (2e68 <serial_irq_set+0xb4>)
    2dee:	240d      	movs	r4, #13
    2df0:	e7ed      	b.n	2dce <serial_irq_set+0x1a>
    2df2:	481e      	ldr	r0, [pc, #120]	; (2e6c <serial_irq_set+0xb8>)
    2df4:	240e      	movs	r4, #14
    2df6:	e7ea      	b.n	2dce <serial_irq_set+0x1a>
    2df8:	2000      	movs	r0, #0
    2dfa:	0004      	movs	r4, r0
    2dfc:	e7e7      	b.n	2dce <serial_irq_set+0x1a>
    2dfe:	2220      	movs	r2, #32
    2e00:	78d9      	ldrb	r1, [r3, #3]
    2e02:	430a      	orrs	r2, r1
    2e04:	70da      	strb	r2, [r3, #3]
    2e06:	e7e8      	b.n	2dda <serial_irq_set+0x26>
    2e08:	78da      	ldrb	r2, [r3, #3]
    2e0a:	2180      	movs	r1, #128	; 0x80
    2e0c:	e7f9      	b.n	2e02 <serial_irq_set+0x4e>
    2e0e:	2900      	cmp	r1, #0
    2e10:	d004      	beq.n	2e1c <serial_irq_set+0x68>
    2e12:	2901      	cmp	r1, #1
    2e14:	d00b      	beq.n	2e2e <serial_irq_set+0x7a>
    2e16:	2900      	cmp	r1, #0
    2e18:	d004      	beq.n	2e24 <serial_irq_set+0x70>
    2e1a:	e00c      	b.n	2e36 <serial_irq_set+0x82>
    2e1c:	2120      	movs	r1, #32
    2e1e:	78da      	ldrb	r2, [r3, #3]
    2e20:	438a      	bics	r2, r1
    2e22:	70da      	strb	r2, [r3, #3]
    2e24:	78db      	ldrb	r3, [r3, #3]
    2e26:	b25b      	sxtb	r3, r3
    2e28:	43db      	mvns	r3, r3
    2e2a:	0fdb      	lsrs	r3, r3, #31
    2e2c:	e007      	b.n	2e3e <serial_irq_set+0x8a>
    2e2e:	217f      	movs	r1, #127	; 0x7f
    2e30:	78da      	ldrb	r2, [r3, #3]
    2e32:	400a      	ands	r2, r1
    2e34:	70da      	strb	r2, [r3, #3]
    2e36:	78da      	ldrb	r2, [r3, #3]
    2e38:	2301      	movs	r3, #1
    2e3a:	0952      	lsrs	r2, r2, #5
    2e3c:	4393      	bics	r3, r2
    2e3e:	2b00      	cmp	r3, #0
    2e40:	d0d3      	beq.n	2dea <serial_irq_set+0x36>
    2e42:	2301      	movs	r3, #1
    2e44:	40a3      	lsls	r3, r4
    2e46:	4a0a      	ldr	r2, [pc, #40]	; (2e70 <serial_irq_set+0xbc>)
    2e48:	67d3      	str	r3, [r2, #124]	; 0x7c
    2e4a:	f3bf 8f4f 	dsb	sy
    2e4e:	f3bf 8f6f 	isb	sy
    2e52:	e7ca      	b.n	2dea <serial_irq_set+0x36>
    2e54:	4006b000 	.word	0x4006b000
    2e58:	4006c000 	.word	0x4006c000
    2e5c:	4006a000 	.word	0x4006a000
    2e60:	00002aa1 	.word	0x00002aa1
    2e64:	e000e100 	.word	0xe000e100
    2e68:	00002a79 	.word	0x00002a79
    2e6c:	00002a8d 	.word	0x00002a8d
    2e70:	e000e104 	.word	0xe000e104

00002e74 <serial_readable>:
    2e74:	2208      	movs	r2, #8
    2e76:	6803      	ldr	r3, [r0, #0]
    2e78:	7919      	ldrb	r1, [r3, #4]
    2e7a:	4211      	tst	r1, r2
    2e7c:	d002      	beq.n	2e84 <serial_readable+0x10>
    2e7e:	7919      	ldrb	r1, [r3, #4]
    2e80:	430a      	orrs	r2, r1
    2e82:	711a      	strb	r2, [r3, #4]
    2e84:	7918      	ldrb	r0, [r3, #4]
    2e86:	2320      	movs	r3, #32
    2e88:	4018      	ands	r0, r3
    2e8a:	4770      	bx	lr

00002e8c <serial_getc>:
    2e8c:	b510      	push	{r4, lr}
    2e8e:	0004      	movs	r4, r0
    2e90:	0020      	movs	r0, r4
    2e92:	f7ff ffef 	bl	2e74 <serial_readable>
    2e96:	2800      	cmp	r0, #0
    2e98:	d0fa      	beq.n	2e90 <serial_getc+0x4>
    2e9a:	6823      	ldr	r3, [r4, #0]
    2e9c:	79d8      	ldrb	r0, [r3, #7]
    2e9e:	b2c0      	uxtb	r0, r0
    2ea0:	bd10      	pop	{r4, pc}

00002ea2 <serial_writable>:
    2ea2:	2208      	movs	r2, #8
    2ea4:	6803      	ldr	r3, [r0, #0]
    2ea6:	7919      	ldrb	r1, [r3, #4]
    2ea8:	4211      	tst	r1, r2
    2eaa:	d002      	beq.n	2eb2 <serial_writable+0x10>
    2eac:	7919      	ldrb	r1, [r3, #4]
    2eae:	430a      	orrs	r2, r1
    2eb0:	711a      	strb	r2, [r3, #4]
    2eb2:	7918      	ldrb	r0, [r3, #4]
    2eb4:	237f      	movs	r3, #127	; 0x7f
    2eb6:	4398      	bics	r0, r3
    2eb8:	4770      	bx	lr

00002eba <serial_putc>:
    2eba:	b570      	push	{r4, r5, r6, lr}
    2ebc:	0005      	movs	r5, r0
    2ebe:	000c      	movs	r4, r1
    2ec0:	0028      	movs	r0, r5
    2ec2:	f7ff ffee 	bl	2ea2 <serial_writable>
    2ec6:	2800      	cmp	r0, #0
    2ec8:	d0fa      	beq.n	2ec0 <serial_putc+0x6>
    2eca:	682b      	ldr	r3, [r5, #0]
    2ecc:	b2e4      	uxtb	r4, r4
    2ece:	71dc      	strb	r4, [r3, #7]
    2ed0:	bd70      	pop	{r4, r5, r6, pc}

00002ed2 <NMI_Handler>:
    2ed2:	b57f      	push	{r0, r1, r2, r3, r4, r5, r6, lr}
    2ed4:	2110      	movs	r1, #16
    2ed6:	4668      	mov	r0, sp
    2ed8:	f7fd fe08 	bl	aec <gpio_init_in>
    2edc:	b007      	add	sp, #28
    2ede:	bd00      	pop	{pc}

00002ee0 <SystemInit>:
    2ee0:	2288      	movs	r2, #136	; 0x88
    2ee2:	2000      	movs	r0, #0
    2ee4:	4b1f      	ldr	r3, [pc, #124]	; (2f64 <SystemInit+0x84>)
    2ee6:	0152      	lsls	r2, r2, #5
    2ee8:	b510      	push	{r4, lr}
    2eea:	5098      	str	r0, [r3, r2]
    2eec:	2280      	movs	r2, #128	; 0x80
    2eee:	491e      	ldr	r1, [pc, #120]	; (2f68 <SystemInit+0x88>)
    2ef0:	0092      	lsls	r2, r2, #2
    2ef2:	585c      	ldr	r4, [r3, r1]
    2ef4:	4322      	orrs	r2, r4
    2ef6:	505a      	str	r2, [r3, r1]
    2ef8:	491c      	ldr	r1, [pc, #112]	; (2f6c <SystemInit+0x8c>)
    2efa:	4a1d      	ldr	r2, [pc, #116]	; (2f70 <SystemInit+0x90>)
    2efc:	4c1d      	ldr	r4, [pc, #116]	; (2f74 <SystemInit+0x94>)
    2efe:	5099      	str	r1, [r3, r2]
    2f00:	4b1d      	ldr	r3, [pc, #116]	; (2f78 <SystemInit+0x98>)
    2f02:	6c99      	ldr	r1, [r3, #72]	; 0x48
    2f04:	4021      	ands	r1, r4
    2f06:	6499      	str	r1, [r3, #72]	; 0x48
    2f08:	6cda      	ldr	r2, [r3, #76]	; 0x4c
    2f0a:	211f      	movs	r1, #31
    2f0c:	4022      	ands	r2, r4
    2f0e:	64da      	str	r2, [r3, #76]	; 0x4c
    2f10:	2289      	movs	r2, #137	; 0x89
    2f12:	4b1a      	ldr	r3, [pc, #104]	; (2f7c <SystemInit+0x9c>)
    2f14:	701a      	strb	r2, [r3, #0]
    2f16:	4b1a      	ldr	r3, [pc, #104]	; (2f80 <SystemInit+0xa0>)
    2f18:	3a65      	subs	r2, #101	; 0x65
    2f1a:	705a      	strb	r2, [r3, #1]
    2f1c:	3276      	adds	r2, #118	; 0x76
    2f1e:	701a      	strb	r2, [r3, #0]
    2f20:	78da      	ldrb	r2, [r3, #3]
    2f22:	400a      	ands	r2, r1
    2f24:	70da      	strb	r2, [r3, #3]
    2f26:	2201      	movs	r2, #1
    2f28:	711a      	strb	r2, [r3, #4]
    2f2a:	7158      	strb	r0, [r3, #5]
    2f2c:	320f      	adds	r2, #15
    2f2e:	7999      	ldrb	r1, [r3, #6]
    2f30:	4211      	tst	r1, r2
    2f32:	d1fc      	bne.n	2f2e <SystemInit+0x4e>
    2f34:	210c      	movs	r1, #12
    2f36:	799a      	ldrb	r2, [r3, #6]
    2f38:	400a      	ands	r2, r1
    2f3a:	2a08      	cmp	r2, #8
    2f3c:	d1fb      	bne.n	2f36 <SystemInit+0x56>
    2f3e:	210c      	movs	r1, #12
    2f40:	3238      	adds	r2, #56	; 0x38
    2f42:	715a      	strb	r2, [r3, #5]
    2f44:	799a      	ldrb	r2, [r3, #6]
    2f46:	400a      	ands	r2, r1
    2f48:	2a08      	cmp	r2, #8
    2f4a:	d1fb      	bne.n	2f44 <SystemInit+0x64>
    2f4c:	3238      	adds	r2, #56	; 0x38
    2f4e:	7999      	ldrb	r1, [r3, #6]
    2f50:	4211      	tst	r1, r2
    2f52:	d0fc      	beq.n	2f4e <SystemInit+0x6e>
    2f54:	221a      	movs	r2, #26
    2f56:	210c      	movs	r1, #12
    2f58:	701a      	strb	r2, [r3, #0]
    2f5a:	799a      	ldrb	r2, [r3, #6]
    2f5c:	400a      	ands	r2, r1
    2f5e:	2a0c      	cmp	r2, #12
    2f60:	d1fb      	bne.n	2f5a <SystemInit+0x7a>
    2f62:	bd10      	pop	{r4, pc}
    2f64:	40047000 	.word	0x40047000
    2f68:	00001038 	.word	0x00001038
    2f6c:	10010000 	.word	0x10010000
    2f70:	00001044 	.word	0x00001044
    2f74:	fefff8ff 	.word	0xfefff8ff
    2f78:	40049000 	.word	0x40049000
    2f7c:	40065000 	.word	0x40065000
    2f80:	40064000 	.word	0x40064000

00002f84 <NVIC_SetVector>:
    2f84:	4a0a      	ldr	r2, [pc, #40]	; (2fb0 <NVIC_SetVector+0x2c>)
    2f86:	b5f0      	push	{r4, r5, r6, r7, lr}
    2f88:	6893      	ldr	r3, [r2, #8]
    2f8a:	6895      	ldr	r5, [r2, #8]
    2f8c:	001c      	movs	r4, r3
    2f8e:	2d00      	cmp	r5, #0
    2f90:	d10a      	bne.n	2fa8 <NVIC_SetVector+0x24>
    2f92:	001d      	movs	r5, r3
    2f94:	4c07      	ldr	r4, [pc, #28]	; (2fb4 <NVIC_SetVector+0x30>)
    2f96:	35c0      	adds	r5, #192	; 0xc0
    2f98:	1ae6      	subs	r6, r4, r3
    2f9a:	681f      	ldr	r7, [r3, #0]
    2f9c:	50f7      	str	r7, [r6, r3]
    2f9e:	3304      	adds	r3, #4
    2fa0:	42ab      	cmp	r3, r5
    2fa2:	d1fa      	bne.n	2f9a <NVIC_SetVector+0x16>
    2fa4:	6094      	str	r4, [r2, #8]
    2fa6:	4c03      	ldr	r4, [pc, #12]	; (2fb4 <NVIC_SetVector+0x30>)
    2fa8:	3010      	adds	r0, #16
    2faa:	0080      	lsls	r0, r0, #2
    2fac:	5101      	str	r1, [r0, r4]
    2fae:	bdf0      	pop	{r4, r5, r6, r7, pc}
    2fb0:	e000ed00 	.word	0xe000ed00
    2fb4:	1ffff000 	.word	0x1ffff000

00002fb8 <mbed::Serial::_getc()>:
    2fb8:	b510      	push	{r4, lr}
    2fba:	f000 fb0c 	bl	35d6 <mbed::SerialBase::_base_getc()>
    2fbe:	bd10      	pop	{r4, pc}

00002fc0 <non-virtual thunk to mbed::Serial::_getc()>:
    2fc0:	b408      	push	{r3}
    2fc2:	4b02      	ldr	r3, [pc, #8]	; (2fcc <non-virtual thunk to mbed::Serial::_getc()+0xc>)
    2fc4:	469c      	mov	r12, r3
    2fc6:	3830      	subs	r0, #48	; 0x30
    2fc8:	bc08      	pop	{r3}
    2fca:	4760      	bx	r12
    2fcc:	00002fb9 	.word	0x00002fb9

00002fd0 <mbed::Serial::_putc(int)>:
    2fd0:	b510      	push	{r4, lr}
    2fd2:	f000 fb05 	bl	35e0 <mbed::SerialBase::_base_putc(int)>
    2fd6:	bd10      	pop	{r4, pc}

00002fd8 <non-virtual thunk to mbed::Serial::_putc(int)>:
    2fd8:	b408      	push	{r3}
    2fda:	4b02      	ldr	r3, [pc, #8]	; (2fe4 <non-virtual thunk to mbed::Serial::_putc(int)+0xc>)
    2fdc:	469c      	mov	r12, r3
    2fde:	3830      	subs	r0, #48	; 0x30
    2fe0:	bc08      	pop	{r3}
    2fe2:	4760      	bx	r12
    2fe4:	00002fd1 	.word	0x00002fd1

00002fe8 <mbed::Serial::lock()>:
    2fe8:	2101      	movs	r1, #1
    2fea:	b510      	push	{r4, lr}
    2fec:	3044      	adds	r0, #68	; 0x44
    2fee:	4249      	negs	r1, r1
    2ff0:	f000 fec6 	bl	3d80 <rtos::Mutex::lock(unsigned long)>
    2ff4:	bd10      	pop	{r4, pc}
	...

00002ff8 <non-virtual thunk to mbed::Serial::lock()>:
    2ff8:	b408      	push	{r3}
    2ffa:	4b02      	ldr	r3, [pc, #8]	; (3004 <non-virtual thunk to mbed::Serial::lock()+0xc>)
    2ffc:	469c      	mov	r12, r3
    2ffe:	3830      	subs	r0, #48	; 0x30
    3000:	bc08      	pop	{r3}
    3002:	4760      	bx	r12
    3004:	00002fe9 	.word	0x00002fe9

00003008 <mbed::Serial::unlock()>:
    3008:	b510      	push	{r4, lr}
    300a:	3044      	adds	r0, #68	; 0x44
    300c:	f000 febd 	bl	3d8a <rtos::Mutex::unlock()>
    3010:	bd10      	pop	{r4, pc}
	...

00003014 <non-virtual thunk to mbed::Serial::unlock()>:
    3014:	b408      	push	{r3}
    3016:	4b02      	ldr	r3, [pc, #8]	; (3020 <non-virtual thunk to mbed::Serial::unlock()+0xc>)
    3018:	469c      	mov	r12, r3
    301a:	3830      	subs	r0, #48	; 0x30
    301c:	bc08      	pop	{r3}
    301e:	4760      	bx	r12
    3020:	00003009 	.word	0x00003009

00003024 <mbed::Serial::Serial(PinName, PinName, char const*, int)>:
    3024:	b570      	push	{r4, r5, r6, lr}
    3026:	0004      	movs	r4, r0
    3028:	001d      	movs	r5, r3
    302a:	9b04      	ldr	r3, [sp, #16]
    302c:	f000 fae0 	bl	35f0 <mbed::SerialBase::SerialBase(PinName, PinName, int)>
    3030:	0020      	movs	r0, r4
    3032:	0029      	movs	r1, r5
    3034:	3030      	adds	r0, #48	; 0x30
    3036:	f000 f931 	bl	329c <mbed::Stream::Stream(char const*)>
    303a:	4b06      	ldr	r3, [pc, #24]	; (3054 <mbed::Serial::Serial(PinName, PinName, char const*, int)+0x30>)
    303c:	0020      	movs	r0, r4
    303e:	001a      	movs	r2, r3
    3040:	3328      	adds	r3, #40	; 0x28
    3042:	3208      	adds	r2, #8
    3044:	6022      	str	r2, [r4, #0]
    3046:	6323      	str	r3, [r4, #48]	; 0x30
    3048:	3044      	adds	r0, #68	; 0x44
    304a:	f000 fe81 	bl	3d50 <rtos::Mutex::Mutex()>
    304e:	0020      	movs	r0, r4
    3050:	bd70      	pop	{r4, r5, r6, pc}
    3052:	46c0      	nop			; (mov r8, r8)
    3054:	000075bc 	.word	0x000075bc

00003058 <mbed::BusOut::~BusOut()>:
    3058:	b570      	push	{r4, r5, r6, lr}
    305a:	0004      	movs	r4, r0
    305c:	0006      	movs	r6, r0
    305e:	0005      	movs	r5, r0
    3060:	4b08      	ldr	r3, [pc, #32]	; (3084 <mbed::BusOut::~BusOut()+0x2c>)
    3062:	3644      	adds	r6, #68	; 0x44
    3064:	3308      	adds	r3, #8
    3066:	c408      	stmia	r4!, {r3}
    3068:	6820      	ldr	r0, [r4, #0]
    306a:	2800      	cmp	r0, #0
    306c:	d001      	beq.n	3072 <mbed::BusOut::~BusOut()+0x1a>
    306e:	f000 fd70 	bl	3b52 <operator delete(void*)>
    3072:	3404      	adds	r4, #4
    3074:	42b4      	cmp	r4, r6
    3076:	d1f7      	bne.n	3068 <mbed::BusOut::~BusOut()+0x10>
    3078:	0028      	movs	r0, r5
    307a:	3048      	adds	r0, #72	; 0x48
    307c:	f000 fe8a 	bl	3d94 <rtos::Mutex::~Mutex()>
    3080:	0028      	movs	r0, r5
    3082:	bd70      	pop	{r4, r5, r6, pc}
    3084:	0000762c 	.word	0x0000762c

00003088 <mbed::BusOut::~BusOut()>:
    3088:	b510      	push	{r4, lr}
    308a:	0004      	movs	r4, r0
    308c:	f7ff ffe4 	bl	3058 <mbed::BusOut::~BusOut()>
    3090:	0020      	movs	r0, r4
    3092:	f000 fd5e 	bl	3b52 <operator delete(void*)>
    3096:	0020      	movs	r0, r4
    3098:	bd10      	pop	{r4, pc}

0000309a <mbed::BusOut::lock()>:
    309a:	2101      	movs	r1, #1
    309c:	b510      	push	{r4, lr}
    309e:	3048      	adds	r0, #72	; 0x48
    30a0:	4249      	negs	r1, r1
    30a2:	f000 fe6d 	bl	3d80 <rtos::Mutex::lock(unsigned long)>
    30a6:	bd10      	pop	{r4, pc}

000030a8 <mbed::BusOut::unlock()>:
    30a8:	b510      	push	{r4, lr}
    30aa:	3048      	adds	r0, #72	; 0x48
    30ac:	f000 fe6d 	bl	3d8a <rtos::Mutex::unlock()>
    30b0:	bd10      	pop	{r4, pc}
	...

000030b4 <mbed::BusOut::BusOut(PinName, PinName, PinName, PinName, PinName, PinName, PinName, PinName, PinName, PinName, PinName, PinName, PinName, PinName, PinName, PinName)>:
    30b4:	b5f0      	push	{r4, r5, r6, r7, lr}
    30b6:	b097      	sub	sp, #92	; 0x5c
    30b8:	9303      	str	r3, [sp, #12]
    30ba:	ab1c      	add	r3, sp, #112	; 0x70
    30bc:	9202      	str	r2, [sp, #8]
    30be:	2200      	movs	r2, #0
    30c0:	5e9b      	ldrsh	r3, [r3, r2]
    30c2:	0005      	movs	r5, r0
    30c4:	9304      	str	r3, [sp, #16]
    30c6:	ab1d      	add	r3, sp, #116	; 0x74
    30c8:	2200      	movs	r2, #0
    30ca:	5e9b      	ldrsh	r3, [r3, r2]
    30cc:	9101      	str	r1, [sp, #4]
    30ce:	9305      	str	r3, [sp, #20]
    30d0:	ab1e      	add	r3, sp, #120	; 0x78
    30d2:	2200      	movs	r2, #0
    30d4:	5e9b      	ldrsh	r3, [r3, r2]
    30d6:	9306      	str	r3, [sp, #24]
    30d8:	ab1f      	add	r3, sp, #124	; 0x7c
    30da:	2200      	movs	r2, #0
    30dc:	5e9b      	ldrsh	r3, [r3, r2]
    30de:	9307      	str	r3, [sp, #28]
    30e0:	ab20      	add	r3, sp, #128	; 0x80
    30e2:	2200      	movs	r2, #0
    30e4:	5e9b      	ldrsh	r3, [r3, r2]
    30e6:	9308      	str	r3, [sp, #32]
    30e8:	ab21      	add	r3, sp, #132	; 0x84
    30ea:	2200      	movs	r2, #0
    30ec:	5e9b      	ldrsh	r3, [r3, r2]
    30ee:	9309      	str	r3, [sp, #36]	; 0x24
    30f0:	ab22      	add	r3, sp, #136	; 0x88
    30f2:	2200      	movs	r2, #0
    30f4:	5e9b      	ldrsh	r3, [r3, r2]
    30f6:	930a      	str	r3, [sp, #40]	; 0x28
    30f8:	ab23      	add	r3, sp, #140	; 0x8c
    30fa:	2200      	movs	r2, #0
    30fc:	5e9b      	ldrsh	r3, [r3, r2]
    30fe:	930b      	str	r3, [sp, #44]	; 0x2c
    3100:	ab24      	add	r3, sp, #144	; 0x90
    3102:	2200      	movs	r2, #0
    3104:	5e9b      	ldrsh	r3, [r3, r2]
    3106:	930c      	str	r3, [sp, #48]	; 0x30
    3108:	ab25      	add	r3, sp, #148	; 0x94
    310a:	2700      	movs	r7, #0
    310c:	5fdf      	ldrsh	r7, [r3, r7]
    310e:	ab26      	add	r3, sp, #152	; 0x98
    3110:	2600      	movs	r6, #0
    3112:	5f9e      	ldrsh	r6, [r3, r6]
    3114:	ab27      	add	r3, sp, #156	; 0x9c
    3116:	2200      	movs	r2, #0
    3118:	5e9b      	ldrsh	r3, [r3, r2]
    311a:	930d      	str	r3, [sp, #52]	; 0x34
    311c:	ab28      	add	r3, sp, #160	; 0xa0
    311e:	2400      	movs	r4, #0
    3120:	5f1c      	ldrsh	r4, [r3, r4]
    3122:	4b2c      	ldr	r3, [pc, #176]	; (31d4 <mbed::BusOut::BusOut(PinName, PinName, PinName, PinName, PinName, PinName, PinName, PinName, PinName, PinName, PinName, PinName, PinName, PinName, PinName, PinName)+0x120>)
    3124:	3308      	adds	r3, #8
    3126:	6003      	str	r3, [r0, #0]
    3128:	3048      	adds	r0, #72	; 0x48
    312a:	f000 fe11 	bl	3d50 <rtos::Mutex::Mutex()>
    312e:	466a      	mov	r2, sp
    3130:	8892      	ldrh	r2, [r2, #4]
    3132:	ab0e      	add	r3, sp, #56	; 0x38
    3134:	801a      	strh	r2, [r3, #0]
    3136:	466a      	mov	r2, sp
    3138:	8912      	ldrh	r2, [r2, #8]
    313a:	83dc      	strh	r4, [r3, #30]
    313c:	805a      	strh	r2, [r3, #2]
    313e:	466a      	mov	r2, sp
    3140:	8992      	ldrh	r2, [r2, #12]
    3142:	2400      	movs	r4, #0
    3144:	809a      	strh	r2, [r3, #4]
    3146:	466a      	mov	r2, sp
    3148:	8a12      	ldrh	r2, [r2, #16]
    314a:	831f      	strh	r7, [r3, #24]
    314c:	80da      	strh	r2, [r3, #6]
    314e:	466a      	mov	r2, sp
    3150:	8a92      	ldrh	r2, [r2, #20]
    3152:	835e      	strh	r6, [r3, #26]
    3154:	811a      	strh	r2, [r3, #8]
    3156:	466a      	mov	r2, sp
    3158:	8b12      	ldrh	r2, [r2, #24]
    315a:	646c      	str	r4, [r5, #68]	; 0x44
    315c:	815a      	strh	r2, [r3, #10]
    315e:	466a      	mov	r2, sp
    3160:	8b92      	ldrh	r2, [r2, #28]
    3162:	819a      	strh	r2, [r3, #12]
    3164:	466a      	mov	r2, sp
    3166:	8c12      	ldrh	r2, [r2, #32]
    3168:	81da      	strh	r2, [r3, #14]
    316a:	466a      	mov	r2, sp
    316c:	8c92      	ldrh	r2, [r2, #36]	; 0x24
    316e:	821a      	strh	r2, [r3, #16]
    3170:	466a      	mov	r2, sp
    3172:	8d12      	ldrh	r2, [r2, #40]	; 0x28
    3174:	825a      	strh	r2, [r3, #18]
    3176:	466a      	mov	r2, sp
    3178:	8d92      	ldrh	r2, [r2, #44]	; 0x2c
    317a:	829a      	strh	r2, [r3, #20]
    317c:	466a      	mov	r2, sp
    317e:	8e12      	ldrh	r2, [r2, #48]	; 0x30
    3180:	82da      	strh	r2, [r3, #22]
    3182:	466a      	mov	r2, sp
    3184:	8e92      	ldrh	r2, [r2, #52]	; 0x34
    3186:	839a      	strh	r2, [r3, #28]
    3188:	0063      	lsls	r3, r4, #1
    318a:	aa0e      	add	r2, sp, #56	; 0x38
    318c:	5ed3      	ldrsh	r3, [r2, r3]
    318e:	2600      	movs	r6, #0
    3190:	9301      	str	r3, [sp, #4]
    3192:	3301      	adds	r3, #1
    3194:	d00c      	beq.n	31b0 <mbed::BusOut::BusOut(PinName, PinName, PinName, PinName, PinName, PinName, PinName, PinName, PinName, PinName, PinName, PinName, PinName, PinName, PinName, PinName)+0xfc>
    3196:	2018      	movs	r0, #24
    3198:	f000 fcc0 	bl	3b1c <operator new(unsigned int)>
    319c:	0007      	movs	r7, r0
    319e:	0031      	movs	r1, r6
    31a0:	2218      	movs	r2, #24
    31a2:	f002 fa0d 	bl	55c0 <memset>
    31a6:	9901      	ldr	r1, [sp, #4]
    31a8:	0038      	movs	r0, r7
    31aa:	f7fd fcb2 	bl	b12 <gpio_init_out>
    31ae:	003e      	movs	r6, r7
    31b0:	00a3      	lsls	r3, r4, #2
    31b2:	18eb      	adds	r3, r5, r3
    31b4:	605e      	str	r6, [r3, #4]
    31b6:	9b01      	ldr	r3, [sp, #4]
    31b8:	3301      	adds	r3, #1
    31ba:	d004      	beq.n	31c6 <mbed::BusOut::BusOut(PinName, PinName, PinName, PinName, PinName, PinName, PinName, PinName, PinName, PinName, PinName, PinName, PinName, PinName, PinName, PinName)+0x112>
    31bc:	2301      	movs	r3, #1
    31be:	40a3      	lsls	r3, r4
    31c0:	6c6a      	ldr	r2, [r5, #68]	; 0x44
    31c2:	4313      	orrs	r3, r2
    31c4:	646b      	str	r3, [r5, #68]	; 0x44
    31c6:	3401      	adds	r4, #1
    31c8:	2c10      	cmp	r4, #16
    31ca:	d1dd      	bne.n	3188 <mbed::BusOut::BusOut(PinName, PinName, PinName, PinName, PinName, PinName, PinName, PinName, PinName, PinName, PinName, PinName, PinName, PinName, PinName, PinName)+0xd4>
    31cc:	0028      	movs	r0, r5
    31ce:	b017      	add	sp, #92	; 0x5c
    31d0:	bdf0      	pop	{r4, r5, r6, r7, pc}
    31d2:	46c0      	nop			; (mov r8, r8)
    31d4:	0000762c 	.word	0x0000762c

000031d8 <mbed::BusOut::write(int)>:
    31d8:	6803      	ldr	r3, [r0, #0]
    31da:	b570      	push	{r4, r5, r6, lr}
    31dc:	689b      	ldr	r3, [r3, #8]
    31de:	0004      	movs	r4, r0
    31e0:	000d      	movs	r5, r1
    31e2:	2601      	movs	r6, #1
    31e4:	4798      	blx	r3
    31e6:	2300      	movs	r3, #0
    31e8:	009a      	lsls	r2, r3, #2
    31ea:	18a2      	adds	r2, r4, r2
    31ec:	6852      	ldr	r2, [r2, #4]
    31ee:	2a00      	cmp	r2, #0
    31f0:	d006      	beq.n	3200 <mbed::BusOut::write(int)+0x28>
    31f2:	0029      	movs	r1, r5
    31f4:	4119      	asrs	r1, r3
    31f6:	6850      	ldr	r0, [r2, #4]
    31f8:	4231      	tst	r1, r6
    31fa:	d009      	beq.n	3210 <mbed::BusOut::write(int)+0x38>
    31fc:	68d2      	ldr	r2, [r2, #12]
    31fe:	6010      	str	r0, [r2, #0]
    3200:	3301      	adds	r3, #1
    3202:	2b10      	cmp	r3, #16
    3204:	d1f0      	bne.n	31e8 <mbed::BusOut::write(int)+0x10>
    3206:	6823      	ldr	r3, [r4, #0]
    3208:	0020      	movs	r0, r4
    320a:	68db      	ldr	r3, [r3, #12]
    320c:	4798      	blx	r3
    320e:	bd70      	pop	{r4, r5, r6, pc}
    3210:	6912      	ldr	r2, [r2, #16]
    3212:	e7f4      	b.n	31fe <mbed::BusOut::write(int)+0x26>

00003214 <mbed::BusOut::operator=(int)>:
    3214:	b510      	push	{r4, lr}
    3216:	0004      	movs	r4, r0
    3218:	f7ff ffde 	bl	31d8 <mbed::BusOut::write(int)>
    321c:	0020      	movs	r0, r4
    321e:	bd10      	pop	{r4, pc}

00003220 <mbed::Stream::write(void const*, unsigned int)>:
    3220:	b5f8      	push	{r3, r4, r5, r6, r7, lr}
    3222:	000e      	movs	r6, r1
    3224:	6803      	ldr	r3, [r0, #0]
    3226:	0005      	movs	r5, r0
    3228:	6b9b      	ldr	r3, [r3, #56]	; 0x38
    322a:	188c      	adds	r4, r1, r2
    322c:	4798      	blx	r3
    322e:	0033      	movs	r3, r6
    3230:	42a3      	cmp	r3, r4
    3232:	d008      	beq.n	3246 <mbed::Stream::write(void const*, unsigned int)+0x26>
    3234:	1c5f      	adds	r7, r3, #1
    3236:	7819      	ldrb	r1, [r3, #0]
    3238:	682b      	ldr	r3, [r5, #0]
    323a:	0028      	movs	r0, r5
    323c:	6c1b      	ldr	r3, [r3, #64]	; 0x40
    323e:	4798      	blx	r3
    3240:	1c43      	adds	r3, r0, #1
    3242:	d106      	bne.n	3252 <mbed::Stream::write(void const*, unsigned int)+0x32>
    3244:	003c      	movs	r4, r7
    3246:	682b      	ldr	r3, [r5, #0]
    3248:	0028      	movs	r0, r5
    324a:	6bdb      	ldr	r3, [r3, #60]	; 0x3c
    324c:	4798      	blx	r3
    324e:	1ba0      	subs	r0, r4, r6
    3250:	bdf8      	pop	{r3, r4, r5, r6, r7, pc}
    3252:	003b      	movs	r3, r7
    3254:	e7ec      	b.n	3230 <mbed::Stream::write(void const*, unsigned int)+0x10>

00003256 <mbed::Stream::read(void*, unsigned int)>:
    3256:	b5f8      	push	{r3, r4, r5, r6, r7, lr}
    3258:	000e      	movs	r6, r1
    325a:	6803      	ldr	r3, [r0, #0]
    325c:	0005      	movs	r5, r0
    325e:	6b9b      	ldr	r3, [r3, #56]	; 0x38
    3260:	188f      	adds	r7, r1, r2
    3262:	0034      	movs	r4, r6
    3264:	4798      	blx	r3
    3266:	42a7      	cmp	r7, r4
    3268:	d008      	beq.n	327c <mbed::Stream::read(void*, unsigned int)+0x26>
    326a:	682b      	ldr	r3, [r5, #0]
    326c:	0028      	movs	r0, r5
    326e:	6c5b      	ldr	r3, [r3, #68]	; 0x44
    3270:	4798      	blx	r3
    3272:	1c43      	adds	r3, r0, #1
    3274:	d002      	beq.n	327c <mbed::Stream::read(void*, unsigned int)+0x26>
    3276:	7020      	strb	r0, [r4, #0]
    3278:	3401      	adds	r4, #1
    327a:	e7f4      	b.n	3266 <mbed::Stream::read(void*, unsigned int)+0x10>
    327c:	682b      	ldr	r3, [r5, #0]
    327e:	0028      	movs	r0, r5
    3280:	6bdb      	ldr	r3, [r3, #60]	; 0x3c
    3282:	4798      	blx	r3
    3284:	1ba0      	subs	r0, r4, r6
    3286:	bdf8      	pop	{r3, r4, r5, r6, r7, pc}

00003288 <mbed::Stream::seek(long, int)>:
    3288:	2000      	movs	r0, #0
    328a:	4770      	bx	lr

0000328c <mbed::Stream::tell()>:
    328c:	2000      	movs	r0, #0
    328e:	4770      	bx	lr

00003290 <mbed::Stream::rewind()>:
    3290:	4770      	bx	lr

00003292 <mbed::Stream::sync()>:
    3292:	2000      	movs	r0, #0
    3294:	4770      	bx	lr

00003296 <mbed::Stream::size()>:
    3296:	2000      	movs	r0, #0
    3298:	4770      	bx	lr
	...

0000329c <mbed::Stream::Stream(char const*)>:
    329c:	b51f      	push	{r0, r1, r2, r3, r4, lr}
    329e:	0004      	movs	r4, r0
    32a0:	2200      	movs	r2, #0
    32a2:	f000 f87b 	bl	339c <mbed::FileBase::FileBase(char const*, mbed::PathType)>
    32a6:	4b0a      	ldr	r3, [pc, #40]	; (32d0 <mbed::Stream::Stream(char const*)+0x34>)
    32a8:	0022      	movs	r2, r4
    32aa:	3308      	adds	r3, #8
    32ac:	6023      	str	r3, [r4, #0]
    32ae:	2300      	movs	r3, #0
    32b0:	4908      	ldr	r1, [pc, #32]	; (32d4 <mbed::Stream::Stream(char const*)+0x38>)
    32b2:	6123      	str	r3, [r4, #16]
    32b4:	a801      	add	r0, sp, #4
    32b6:	f003 f86d 	bl	6394 <siprintf>
    32ba:	4907      	ldr	r1, [pc, #28]	; (32d8 <mbed::Stream::Stream(char const*)+0x3c>)
    32bc:	a801      	add	r0, sp, #4
    32be:	f001 ffd3 	bl	5268 <fopen>
    32c2:	6120      	str	r0, [r4, #16]
    32c4:	f000 fc19 	bl	3afa <mbed::mbed_set_unbuffered_stream(__sFILE*)>
    32c8:	0020      	movs	r0, r4
    32ca:	b004      	add	sp, #16
    32cc:	bd10      	pop	{r4, pc}
    32ce:	46c0      	nop			; (mov r8, r8)
    32d0:	00007694 	.word	0x00007694
    32d4:	0000768c 	.word	0x0000768c
    32d8:	00007690 	.word	0x00007690

000032dc <mbed::Stream::~Stream()>:
    32dc:	b510      	push	{r4, lr}
    32de:	0004      	movs	r4, r0
    32e0:	4b06      	ldr	r3, [pc, #24]	; (32fc <mbed::Stream::~Stream()+0x20>)
    32e2:	3308      	adds	r3, #8
    32e4:	6003      	str	r3, [r0, #0]
    32e6:	6900      	ldr	r0, [r0, #16]
    32e8:	f001 fdbc 	bl	4e64 <fclose>
    32ec:	4b04      	ldr	r3, [pc, #16]	; (3300 <mbed::Stream::~Stream()+0x24>)
    32ee:	0020      	movs	r0, r4
    32f0:	6023      	str	r3, [r4, #0]
    32f2:	f000 f87b 	bl	33ec <mbed::FileBase::~FileBase()>
    32f6:	0020      	movs	r0, r4
    32f8:	bd10      	pop	{r4, pc}
    32fa:	46c0      	nop			; (mov r8, r8)
    32fc:	00007694 	.word	0x00007694
    3300:	0000764c 	.word	0x0000764c

00003304 <mbed::Stream::getc()>:
    3304:	b570      	push	{r4, r5, r6, lr}
    3306:	0004      	movs	r4, r0
    3308:	6803      	ldr	r3, [r0, #0]
    330a:	6b9b      	ldr	r3, [r3, #56]	; 0x38
    330c:	4798      	blx	r3
    330e:	6920      	ldr	r0, [r4, #16]
    3310:	f001 fe68 	bl	4fe4 <fflush>
    3314:	6920      	ldr	r0, [r4, #16]
    3316:	f000 fbf5 	bl	3b04 <mbed::mbed_getc(__sFILE*)>
    331a:	0005      	movs	r5, r0
    331c:	6823      	ldr	r3, [r4, #0]
    331e:	0020      	movs	r0, r4
    3320:	6bdb      	ldr	r3, [r3, #60]	; 0x3c
    3322:	4798      	blx	r3
    3324:	0028      	movs	r0, r5
    3326:	bd70      	pop	{r4, r5, r6, pc}

00003328 <mbed::Stream::printf(char const*, ...)>:
    3328:	b40e      	push	{r1, r2, r3}
    332a:	b577      	push	{r0, r1, r2, r4, r5, r6, lr}
    332c:	0004      	movs	r4, r0
    332e:	6803      	ldr	r3, [r0, #0]
    3330:	ad07      	add	r5, sp, #28
    3332:	cd40      	ldmia	r5!, {r6}
    3334:	6b9b      	ldr	r3, [r3, #56]	; 0x38
    3336:	4798      	blx	r3
    3338:	6920      	ldr	r0, [r4, #16]
    333a:	9501      	str	r5, [sp, #4]
    333c:	f001 fe52 	bl	4fe4 <fflush>
    3340:	0031      	movs	r1, r6
    3342:	9a01      	ldr	r2, [sp, #4]
    3344:	6920      	ldr	r0, [r4, #16]
    3346:	f002 fb55 	bl	59f4 <vfiprintf>
    334a:	0005      	movs	r5, r0
    334c:	6823      	ldr	r3, [r4, #0]
    334e:	0020      	movs	r0, r4
    3350:	6bdb      	ldr	r3, [r3, #60]	; 0x3c
    3352:	4798      	blx	r3
    3354:	0028      	movs	r0, r5
    3356:	bc7e      	pop	{r1, r2, r3, r4, r5, r6}
    3358:	bc08      	pop	{r3}
    335a:	b003      	add	sp, #12
    335c:	4718      	bx	r3

0000335e <mbed::FileBase::getPathType()>:
    335e:	7b00      	ldrb	r0, [r0, #12]
    3360:	4770      	bx	lr
	...

00003364 <SingletonPtr<rtos::Mutex>::get()>:
    3364:	6803      	ldr	r3, [r0, #0]
    3366:	b570      	push	{r4, r5, r6, lr}
    3368:	0004      	movs	r4, r0
    336a:	2b00      	cmp	r3, #0
    336c:	d112      	bne.n	3394 <SingletonPtr<rtos::Mutex>::get()+0x30>
    336e:	2101      	movs	r1, #1
    3370:	4e09      	ldr	r6, [pc, #36]	; (3398 <SingletonPtr<rtos::Mutex>::get()+0x34>)
    3372:	4249      	negs	r1, r1
    3374:	6830      	ldr	r0, [r6, #0]
    3376:	f7fe fac5 	bl	1904 <osMutexWait>
    337a:	6823      	ldr	r3, [r4, #0]
    337c:	2b00      	cmp	r3, #0
    337e:	d106      	bne.n	338e <SingletonPtr<rtos::Mutex>::get()+0x2a>
    3380:	1d25      	adds	r5, r4, #4
    3382:	2d00      	cmp	r5, #0
    3384:	d002      	beq.n	338c <SingletonPtr<rtos::Mutex>::get()+0x28>
    3386:	0028      	movs	r0, r5
    3388:	f000 fce2 	bl	3d50 <rtos::Mutex::Mutex()>
    338c:	6025      	str	r5, [r4, #0]
    338e:	6830      	ldr	r0, [r6, #0]
    3390:	f7fe fae2 	bl	1958 <osMutexRelease>
    3394:	6820      	ldr	r0, [r4, #0]
    3396:	bd70      	pop	{r4, r5, r6, pc}
    3398:	200008cc 	.word	0x200008cc

0000339c <mbed::FileBase::FileBase(char const*, mbed::PathType)>:
    339c:	4b10      	ldr	r3, [pc, #64]	; (33e0 <mbed::FileBase::FileBase(char const*, mbed::PathType)+0x44>)
    339e:	b570      	push	{r4, r5, r6, lr}
    33a0:	3308      	adds	r3, #8
    33a2:	6003      	str	r3, [r0, #0]
    33a4:	0004      	movs	r4, r0
    33a6:	2300      	movs	r3, #0
    33a8:	4e0e      	ldr	r6, [pc, #56]	; (33e4 <mbed::FileBase::FileBase(char const*, mbed::PathType)+0x48>)
    33aa:	6043      	str	r3, [r0, #4]
    33ac:	60a1      	str	r1, [r4, #8]
    33ae:	7302      	strb	r2, [r0, #12]
    33b0:	0030      	movs	r0, r6
    33b2:	000d      	movs	r5, r1
    33b4:	f7ff ffd6 	bl	3364 <SingletonPtr<rtos::Mutex>::get()>
    33b8:	2101      	movs	r1, #1
    33ba:	4249      	negs	r1, r1
    33bc:	f000 fce0 	bl	3d80 <rtos::Mutex::lock(unsigned long)>
    33c0:	2d00      	cmp	r5, #0
    33c2:	d00a      	beq.n	33da <mbed::FileBase::FileBase(char const*, mbed::PathType)+0x3e>
    33c4:	4b08      	ldr	r3, [pc, #32]	; (33e8 <mbed::FileBase::FileBase(char const*, mbed::PathType)+0x4c>)
    33c6:	681a      	ldr	r2, [r3, #0]
    33c8:	601c      	str	r4, [r3, #0]
    33ca:	6062      	str	r2, [r4, #4]
    33cc:	0030      	movs	r0, r6
    33ce:	f7ff ffc9 	bl	3364 <SingletonPtr<rtos::Mutex>::get()>
    33d2:	f000 fcda 	bl	3d8a <rtos::Mutex::unlock()>
    33d6:	0020      	movs	r0, r4
    33d8:	bd70      	pop	{r4, r5, r6, pc}
    33da:	6065      	str	r5, [r4, #4]
    33dc:	e7f6      	b.n	33cc <mbed::FileBase::FileBase(char const*, mbed::PathType)+0x30>
    33de:	46c0      	nop			; (mov r8, r8)
    33e0:	000076e4 	.word	0x000076e4
    33e4:	200004cc 	.word	0x200004cc
    33e8:	200004c8 	.word	0x200004c8

000033ec <mbed::FileBase::~FileBase()>:
    33ec:	4b14      	ldr	r3, [pc, #80]	; (3440 <mbed::FileBase::~FileBase()+0x54>)
    33ee:	b570      	push	{r4, r5, r6, lr}
    33f0:	4d14      	ldr	r5, [pc, #80]	; (3444 <mbed::FileBase::~FileBase()+0x58>)
    33f2:	3308      	adds	r3, #8
    33f4:	6003      	str	r3, [r0, #0]
    33f6:	0004      	movs	r4, r0
    33f8:	0028      	movs	r0, r5
    33fa:	f7ff ffb3 	bl	3364 <SingletonPtr<rtos::Mutex>::get()>
    33fe:	2101      	movs	r1, #1
    3400:	4249      	negs	r1, r1
    3402:	f000 fcbd 	bl	3d80 <rtos::Mutex::lock(unsigned long)>
    3406:	68a3      	ldr	r3, [r4, #8]
    3408:	2b00      	cmp	r3, #0
    340a:	d005      	beq.n	3418 <mbed::FileBase::~FileBase()+0x2c>
    340c:	4a0e      	ldr	r2, [pc, #56]	; (3448 <mbed::FileBase::~FileBase()+0x5c>)
    340e:	6813      	ldr	r3, [r2, #0]
    3410:	429c      	cmp	r4, r3
    3412:	d10f      	bne.n	3434 <mbed::FileBase::~FileBase()+0x48>
    3414:	6863      	ldr	r3, [r4, #4]
    3416:	6013      	str	r3, [r2, #0]
    3418:	0028      	movs	r0, r5
    341a:	f7ff ffa3 	bl	3364 <SingletonPtr<rtos::Mutex>::get()>
    341e:	f000 fcb4 	bl	3d8a <rtos::Mutex::unlock()>
    3422:	7b23      	ldrb	r3, [r4, #12]
    3424:	2b00      	cmp	r3, #0
    3426:	d102      	bne.n	342e <mbed::FileBase::~FileBase()+0x42>
    3428:	0020      	movs	r0, r4
    342a:	f000 fb97 	bl	3b5c <mbed::remove_filehandle(mbed::FileLike*)>
    342e:	0020      	movs	r0, r4
    3430:	bd70      	pop	{r4, r5, r6, pc}
    3432:	0013      	movs	r3, r2
    3434:	685a      	ldr	r2, [r3, #4]
    3436:	4294      	cmp	r4, r2
    3438:	d1fb      	bne.n	3432 <mbed::FileBase::~FileBase()+0x46>
    343a:	6862      	ldr	r2, [r4, #4]
    343c:	605a      	str	r2, [r3, #4]
    343e:	e7eb      	b.n	3418 <mbed::FileBase::~FileBase()+0x2c>
    3440:	000076e4 	.word	0x000076e4
    3444:	200004cc 	.word	0x200004cc
    3448:	200004c8 	.word	0x200004c8

0000344c <mbed::FileBase::~FileBase()>:
    344c:	b510      	push	{r4, lr}
    344e:	0004      	movs	r4, r0
    3450:	f7ff ffcc 	bl	33ec <mbed::FileBase::~FileBase()>
    3454:	0020      	movs	r0, r4
    3456:	f000 fb7c 	bl	3b52 <operator delete(void*)>
    345a:	0020      	movs	r0, r4
    345c:	bd10      	pop	{r4, pc}
	...

00003460 <mbed::FileBase::lookup(char const*, unsigned int)>:
    3460:	b5f7      	push	{r0, r1, r2, r4, r5, r6, r7, lr}
    3462:	4d13      	ldr	r5, [pc, #76]	; (34b0 <mbed::FileBase::lookup(char const*, unsigned int)+0x50>)
    3464:	9001      	str	r0, [sp, #4]
    3466:	0028      	movs	r0, r5
    3468:	000f      	movs	r7, r1
    346a:	f7ff ff7b 	bl	3364 <SingletonPtr<rtos::Mutex>::get()>
    346e:	2101      	movs	r1, #1
    3470:	4249      	negs	r1, r1
    3472:	f000 fc85 	bl	3d80 <rtos::Mutex::lock(unsigned long)>
    3476:	4b0f      	ldr	r3, [pc, #60]	; (34b4 <mbed::FileBase::lookup(char const*, unsigned int)+0x54>)
    3478:	681c      	ldr	r4, [r3, #0]
    347a:	2c00      	cmp	r4, #0
    347c:	d00e      	beq.n	349c <mbed::FileBase::lookup(char const*, unsigned int)+0x3c>
    347e:	68a6      	ldr	r6, [r4, #8]
    3480:	2e00      	cmp	r6, #0
    3482:	d012      	beq.n	34aa <mbed::FileBase::lookup(char const*, unsigned int)+0x4a>
    3484:	003a      	movs	r2, r7
    3486:	9901      	ldr	r1, [sp, #4]
    3488:	0030      	movs	r0, r6
    348a:	f003 f82c 	bl	64e6 <strncmp>
    348e:	2800      	cmp	r0, #0
    3490:	d10b      	bne.n	34aa <mbed::FileBase::lookup(char const*, unsigned int)+0x4a>
    3492:	0030      	movs	r0, r6
    3494:	f003 f820 	bl	64d8 <strlen>
    3498:	4287      	cmp	r7, r0
    349a:	d106      	bne.n	34aa <mbed::FileBase::lookup(char const*, unsigned int)+0x4a>
    349c:	0028      	movs	r0, r5
    349e:	f7ff ff61 	bl	3364 <SingletonPtr<rtos::Mutex>::get()>
    34a2:	f000 fc72 	bl	3d8a <rtos::Mutex::unlock()>
    34a6:	0020      	movs	r0, r4
    34a8:	bdfe      	pop	{r1, r2, r3, r4, r5, r6, r7, pc}
    34aa:	6864      	ldr	r4, [r4, #4]
    34ac:	e7e5      	b.n	347a <mbed::FileBase::lookup(char const*, unsigned int)+0x1a>
    34ae:	46c0      	nop			; (mov r8, r8)
    34b0:	200004cc 	.word	0x200004cc
    34b4:	200004c8 	.word	0x200004c8

000034b8 <mbed::Callback<void ()>::operator=(mbed::Callback<void ()> const&)>:
    34b8:	b570      	push	{r4, r5, r6, lr}
    34ba:	0004      	movs	r4, r0
    34bc:	000d      	movs	r5, r1
    34be:	4288      	cmp	r0, r1
    34c0:	d00c      	beq.n	34dc <mbed::Callback<void ()>::operator=(mbed::Callback<void ()> const&)+0x24>
    34c2:	f7fd f875 	bl	5b0 <mbed::Callback<void ()>::~Callback()>
    34c6:	2c00      	cmp	r4, #0
    34c8:	d008      	beq.n	34dc <mbed::Callback<void ()>::operator=(mbed::Callback<void ()> const&)+0x24>
    34ca:	68eb      	ldr	r3, [r5, #12]
    34cc:	2b00      	cmp	r3, #0
    34ce:	d003      	beq.n	34d8 <mbed::Callback<void ()>::operator=(mbed::Callback<void ()> const&)+0x20>
    34d0:	685b      	ldr	r3, [r3, #4]
    34d2:	0029      	movs	r1, r5
    34d4:	0020      	movs	r0, r4
    34d6:	4798      	blx	r3
    34d8:	68eb      	ldr	r3, [r5, #12]
    34da:	60e3      	str	r3, [r4, #12]
    34dc:	0020      	movs	r0, r4
    34de:	bd70      	pop	{r4, r5, r6, pc}

000034e0 <mbed::FilePath::FilePath(char const*)>:
    34e0:	2300      	movs	r3, #0
    34e2:	b510      	push	{r4, lr}
    34e4:	6003      	str	r3, [r0, #0]
    34e6:	6043      	str	r3, [r0, #4]
    34e8:	780a      	ldrb	r2, [r1, #0]
    34ea:	0004      	movs	r4, r0
    34ec:	2a2f      	cmp	r2, #47	; 0x2f
    34ee:	d10e      	bne.n	350e <mbed::FilePath::FilePath(char const*)+0x2e>
    34f0:	784a      	ldrb	r2, [r1, #1]
    34f2:	429a      	cmp	r2, r3
    34f4:	d00b      	beq.n	350e <mbed::FilePath::FilePath(char const*)+0x2e>
    34f6:	1c48      	adds	r0, r1, #1
    34f8:	0019      	movs	r1, r3
    34fa:	6020      	str	r0, [r4, #0]
    34fc:	6823      	ldr	r3, [r4, #0]
    34fe:	781a      	ldrb	r2, [r3, #0]
    3500:	2a2f      	cmp	r2, #47	; 0x2f
    3502:	d106      	bne.n	3512 <mbed::FilePath::FilePath(char const*)+0x32>
    3504:	3301      	adds	r3, #1
    3506:	6023      	str	r3, [r4, #0]
    3508:	f7ff ffaa 	bl	3460 <mbed::FileBase::lookup(char const*, unsigned int)>
    350c:	6060      	str	r0, [r4, #4]
    350e:	0020      	movs	r0, r4
    3510:	bd10      	pop	{r4, pc}
    3512:	2a00      	cmp	r2, #0
    3514:	d0f8      	beq.n	3508 <mbed::FilePath::FilePath(char const*)+0x28>
    3516:	3301      	adds	r3, #1
    3518:	3101      	adds	r1, #1
    351a:	6023      	str	r3, [r4, #0]
    351c:	e7ee      	b.n	34fc <mbed::FilePath::FilePath(char const*)+0x1c>

0000351e <mbed::FilePath::fileName()>:
    351e:	6800      	ldr	r0, [r0, #0]
    3520:	4770      	bx	lr

00003522 <mbed::FilePath::isFileSystem()>:
    3522:	6843      	ldr	r3, [r0, #4]
    3524:	b510      	push	{r4, lr}
    3526:	1e18      	subs	r0, r3, #0
    3528:	d005      	beq.n	3536 <mbed::FilePath::isFileSystem()+0x14>
    352a:	f7ff ff18 	bl	335e <mbed::FileBase::getPathType()>
    352e:	3801      	subs	r0, #1
    3530:	4243      	negs	r3, r0
    3532:	4158      	adcs	r0, r3
    3534:	b2c0      	uxtb	r0, r0
    3536:	bd10      	pop	{r4, pc}

00003538 <mbed::FilePath::fileSystem()>:
    3538:	b510      	push	{r4, lr}
    353a:	0004      	movs	r4, r0
    353c:	f7ff fff1 	bl	3522 <mbed::FilePath::isFileSystem()>
    3540:	1e03      	subs	r3, r0, #0
    3542:	d000      	beq.n	3546 <mbed::FilePath::fileSystem()+0xe>
    3544:	6863      	ldr	r3, [r4, #4]
    3546:	0018      	movs	r0, r3
    3548:	bd10      	pop	{r4, pc}

0000354a <mbed::FilePath::isFile()>:
    354a:	6843      	ldr	r3, [r0, #4]
    354c:	b510      	push	{r4, lr}
    354e:	1e18      	subs	r0, r3, #0
    3550:	d004      	beq.n	355c <mbed::FilePath::isFile()+0x12>
    3552:	f7ff ff04 	bl	335e <mbed::FileBase::getPathType()>
    3556:	4243      	negs	r3, r0
    3558:	4158      	adcs	r0, r3
    355a:	b2c0      	uxtb	r0, r0
    355c:	bd10      	pop	{r4, pc}

0000355e <mbed::FilePath::file()>:
    355e:	b510      	push	{r4, lr}
    3560:	0004      	movs	r4, r0
    3562:	f7ff fff2 	bl	354a <mbed::FilePath::isFile()>
    3566:	1e03      	subs	r3, r0, #0
    3568:	d000      	beq.n	356c <mbed::FilePath::file()+0xe>
    356a:	6863      	ldr	r3, [r4, #4]
    356c:	0018      	movs	r0, r3
    356e:	bd10      	pop	{r4, pc}

00003570 <mbed::FilePath::exists()>:
    3570:	6840      	ldr	r0, [r0, #4]
    3572:	1e43      	subs	r3, r0, #1
    3574:	4198      	sbcs	r0, r3
    3576:	b2c0      	uxtb	r0, r0
    3578:	4770      	bx	lr

0000357a <mbed::donothing()>:
    357a:	4770      	bx	lr

0000357c <mbed::SerialBase::lock()>:
    357c:	4770      	bx	lr

0000357e <mbed::SerialBase::unlock()>:
    357e:	4770      	bx	lr

00003580 <mbed::SerialBase::_irq_handler(unsigned long, SerialIrq)>:
    3580:	010b      	lsls	r3, r1, #4
    3582:	3101      	adds	r1, #1
    3584:	b510      	push	{r4, lr}
    3586:	0109      	lsls	r1, r1, #4
    3588:	1841      	adds	r1, r0, r1
    358a:	688a      	ldr	r2, [r1, #8]
    358c:	330c      	adds	r3, #12
    358e:	18c3      	adds	r3, r0, r3
    3590:	6812      	ldr	r2, [r2, #0]
    3592:	0018      	movs	r0, r3
    3594:	4790      	blx	r2
    3596:	bd10      	pop	{r4, pc}

00003598 <mbed::SerialBase::baud(int)>:
    3598:	b570      	push	{r4, r5, r6, lr}
    359a:	0004      	movs	r4, r0
    359c:	000d      	movs	r5, r1
    359e:	6803      	ldr	r3, [r0, #0]
    35a0:	681b      	ldr	r3, [r3, #0]
    35a2:	4798      	blx	r3
    35a4:	0029      	movs	r1, r5
    35a6:	1d20      	adds	r0, r4, #4
    35a8:	f7ff fa8c 	bl	2ac4 <serial_baud>
    35ac:	6823      	ldr	r3, [r4, #0]
    35ae:	62e5      	str	r5, [r4, #44]	; 0x2c
    35b0:	685b      	ldr	r3, [r3, #4]
    35b2:	0020      	movs	r0, r4
    35b4:	4798      	blx	r3
    35b6:	bd70      	pop	{r4, r5, r6, pc}

000035b8 <mbed::SerialBase::readable()>:
    35b8:	b570      	push	{r4, r5, r6, lr}
    35ba:	0004      	movs	r4, r0
    35bc:	6803      	ldr	r3, [r0, #0]
    35be:	681b      	ldr	r3, [r3, #0]
    35c0:	4798      	blx	r3
    35c2:	1d20      	adds	r0, r4, #4
    35c4:	f7ff fc56 	bl	2e74 <serial_readable>
    35c8:	0005      	movs	r5, r0
    35ca:	6823      	ldr	r3, [r4, #0]
    35cc:	0020      	movs	r0, r4
    35ce:	685b      	ldr	r3, [r3, #4]
    35d0:	4798      	blx	r3
    35d2:	0028      	movs	r0, r5
    35d4:	bd70      	pop	{r4, r5, r6, pc}

000035d6 <mbed::SerialBase::_base_getc()>:
    35d6:	b510      	push	{r4, lr}
    35d8:	3004      	adds	r0, #4
    35da:	f7ff fc57 	bl	2e8c <serial_getc>
    35de:	bd10      	pop	{r4, pc}

000035e0 <mbed::SerialBase::_base_putc(int)>:
    35e0:	b510      	push	{r4, lr}
    35e2:	000c      	movs	r4, r1
    35e4:	3004      	adds	r0, #4
    35e6:	f7ff fc68 	bl	2eba <serial_putc>
    35ea:	0020      	movs	r0, r4
    35ec:	bd10      	pop	{r4, pc}
	...

000035f0 <mbed::SerialBase::SerialBase(PinName, PinName, int)>:
    35f0:	b5f0      	push	{r4, r5, r6, r7, lr}
    35f2:	b087      	sub	sp, #28
    35f4:	9201      	str	r2, [sp, #4]
    35f6:	4a19      	ldr	r2, [pc, #100]	; (365c <mbed::SerialBase::SerialBase(PinName, PinName, int)+0x6c>)
    35f8:	0004      	movs	r4, r0
    35fa:	3208      	adds	r2, #8
    35fc:	6002      	str	r2, [r0, #0]
    35fe:	2200      	movs	r2, #0
    3600:	4e17      	ldr	r6, [pc, #92]	; (3660 <mbed::SerialBase::SerialBase(PinName, PinName, int)+0x70>)
    3602:	4d18      	ldr	r5, [pc, #96]	; (3664 <mbed::SerialBase::SerialBase(PinName, PinName, int)+0x74>)
    3604:	62c3      	str	r3, [r0, #44]	; 0x2c
    3606:	6042      	str	r2, [r0, #4]
    3608:	6082      	str	r2, [r0, #8]
    360a:	6182      	str	r2, [r0, #24]
    360c:	6282      	str	r2, [r0, #40]	; 0x28
    360e:	000f      	movs	r7, r1
    3610:	300c      	adds	r0, #12
    3612:	a902      	add	r1, sp, #8
    3614:	9505      	str	r5, [sp, #20]
    3616:	9602      	str	r6, [sp, #8]
    3618:	f7ff ff4e 	bl	34b8 <mbed::Callback<void ()>::operator=(mbed::Callback<void ()> const&)>
    361c:	a802      	add	r0, sp, #8
    361e:	f7fc ffc7 	bl	5b0 <mbed::Callback<void ()>::~Callback()>
    3622:	0020      	movs	r0, r4
    3624:	a902      	add	r1, sp, #8
    3626:	301c      	adds	r0, #28
    3628:	9505      	str	r5, [sp, #20]
    362a:	9602      	str	r6, [sp, #8]
    362c:	1d25      	adds	r5, r4, #4
    362e:	f7ff ff43 	bl	34b8 <mbed::Callback<void ()>::operator=(mbed::Callback<void ()> const&)>
    3632:	a802      	add	r0, sp, #8
    3634:	f7fc ffbc 	bl	5b0 <mbed::Callback<void ()>::~Callback()>
    3638:	9a01      	ldr	r2, [sp, #4]
    363a:	0039      	movs	r1, r7
    363c:	0028      	movs	r0, r5
    363e:	f7ff fb03 	bl	2c48 <serial_init>
    3642:	6ae1      	ldr	r1, [r4, #44]	; 0x2c
    3644:	0028      	movs	r0, r5
    3646:	f7ff fa3d 	bl	2ac4 <serial_baud>
    364a:	0028      	movs	r0, r5
    364c:	0022      	movs	r2, r4
    364e:	4906      	ldr	r1, [pc, #24]	; (3668 <mbed::SerialBase::SerialBase(PinName, PinName, int)+0x78>)
    3650:	f7ff fba4 	bl	2d9c <serial_irq_handler>
    3654:	0020      	movs	r0, r4
    3656:	b007      	add	sp, #28
    3658:	bdf0      	pop	{r4, r5, r6, r7, pc}
    365a:	46c0      	nop			; (mov r8, r8)
    365c:	000076f4 	.word	0x000076f4
    3660:	0000357b 	.word	0x0000357b
    3664:	000071e8 	.word	0x000071e8
    3668:	00003581 	.word	0x00003581

0000366c <mbed::SerialBase::attach(mbed::Callback<void ()>, mbed::SerialBase::IrqType)>:
    366c:	b5f0      	push	{r4, r5, r6, r7, lr}
    366e:	000f      	movs	r7, r1
    3670:	0004      	movs	r4, r0
    3672:	0015      	movs	r5, r2
    3674:	6803      	ldr	r3, [r0, #0]
    3676:	b087      	sub	sp, #28
    3678:	681b      	ldr	r3, [r3, #0]
    367a:	4798      	blx	r3
    367c:	f7fd facc 	bl	c18 <core_util_critical_section_enter>
    3680:	68fb      	ldr	r3, [r7, #12]
    3682:	0128      	lsls	r0, r5, #4
    3684:	9301      	str	r3, [sp, #4]
    3686:	1d26      	adds	r6, r4, #4
    3688:	2b00      	cmp	r3, #0
    368a:	d011      	beq.n	36b0 <mbed::SerialBase::attach(mbed::Callback<void ()>, mbed::SerialBase::IrqType)+0x44>
    368c:	300c      	adds	r0, #12
    368e:	1820      	adds	r0, r4, r0
    3690:	0039      	movs	r1, r7
    3692:	f7ff ff11 	bl	34b8 <mbed::Callback<void ()>::operator=(mbed::Callback<void ()> const&)>
    3696:	2201      	movs	r2, #1
    3698:	0029      	movs	r1, r5
    369a:	0030      	movs	r0, r6
    369c:	f7ff fb8a 	bl	2db4 <serial_irq_set>
    36a0:	f7fd fad0 	bl	c44 <core_util_critical_section_exit>
    36a4:	6823      	ldr	r3, [r4, #0]
    36a6:	0020      	movs	r0, r4
    36a8:	685b      	ldr	r3, [r3, #4]
    36aa:	4798      	blx	r3
    36ac:	b007      	add	sp, #28
    36ae:	bdf0      	pop	{r4, r5, r6, r7, pc}
    36b0:	4b06      	ldr	r3, [pc, #24]	; (36cc <mbed::SerialBase::attach(mbed::Callback<void ()>, mbed::SerialBase::IrqType)+0x60>)
    36b2:	300c      	adds	r0, #12
    36b4:	9302      	str	r3, [sp, #8]
    36b6:	4b06      	ldr	r3, [pc, #24]	; (36d0 <mbed::SerialBase::attach(mbed::Callback<void ()>, mbed::SerialBase::IrqType)+0x64>)
    36b8:	a902      	add	r1, sp, #8
    36ba:	1820      	adds	r0, r4, r0
    36bc:	9305      	str	r3, [sp, #20]
    36be:	f7ff fefb 	bl	34b8 <mbed::Callback<void ()>::operator=(mbed::Callback<void ()> const&)>
    36c2:	a802      	add	r0, sp, #8
    36c4:	f7fc ff74 	bl	5b0 <mbed::Callback<void ()>::~Callback()>
    36c8:	9a01      	ldr	r2, [sp, #4]
    36ca:	e7e5      	b.n	3698 <mbed::SerialBase::attach(mbed::Callback<void ()>, mbed::SerialBase::IrqType)+0x2c>
    36cc:	0000357b 	.word	0x0000357b
    36d0:	000071e8 	.word	0x000071e8

000036d4 <mbed::File::close()>:
    36d4:	b510      	push	{r4, lr}
    36d6:	0004      	movs	r4, r0
    36d8:	6900      	ldr	r0, [r0, #16]
    36da:	2800      	cmp	r0, #0
    36dc:	d006      	beq.n	36ec <mbed::File::close()+0x18>
    36de:	6803      	ldr	r3, [r0, #0]
    36e0:	6961      	ldr	r1, [r4, #20]
    36e2:	6a5b      	ldr	r3, [r3, #36]	; 0x24
    36e4:	4798      	blx	r3
    36e6:	2300      	movs	r3, #0
    36e8:	6123      	str	r3, [r4, #16]
    36ea:	bd10      	pop	{r4, pc}
    36ec:	2016      	movs	r0, #22
    36ee:	4240      	negs	r0, r0
    36f0:	e7fb      	b.n	36ea <mbed::File::close()+0x16>

000036f2 <mbed::File::read(void*, unsigned int)>:
    36f2:	b570      	push	{r4, r5, r6, lr}
    36f4:	0004      	movs	r4, r0
    36f6:	6900      	ldr	r0, [r0, #16]
    36f8:	0013      	movs	r3, r2
    36fa:	6802      	ldr	r2, [r0, #0]
    36fc:	6a95      	ldr	r5, [r2, #40]	; 0x28
    36fe:	000a      	movs	r2, r1
    3700:	6961      	ldr	r1, [r4, #20]
    3702:	47a8      	blx	r5
    3704:	bd70      	pop	{r4, r5, r6, pc}

00003706 <mbed::File::write(void const*, unsigned int)>:
    3706:	b570      	push	{r4, r5, r6, lr}
    3708:	0004      	movs	r4, r0
    370a:	6900      	ldr	r0, [r0, #16]
    370c:	0013      	movs	r3, r2
    370e:	6802      	ldr	r2, [r0, #0]
    3710:	6ad5      	ldr	r5, [r2, #44]	; 0x2c
    3712:	000a      	movs	r2, r1
    3714:	6961      	ldr	r1, [r4, #20]
    3716:	47a8      	blx	r5
    3718:	bd70      	pop	{r4, r5, r6, pc}

0000371a <mbed::File::sync()>:
    371a:	6903      	ldr	r3, [r0, #16]
    371c:	b510      	push	{r4, lr}
    371e:	681a      	ldr	r2, [r3, #0]
    3720:	6941      	ldr	r1, [r0, #20]
    3722:	6b12      	ldr	r2, [r2, #48]	; 0x30
    3724:	0018      	movs	r0, r3
    3726:	4790      	blx	r2
    3728:	bd10      	pop	{r4, pc}

0000372a <mbed::File::isatty()>:
    372a:	6903      	ldr	r3, [r0, #16]
    372c:	b510      	push	{r4, lr}
    372e:	681a      	ldr	r2, [r3, #0]
    3730:	6941      	ldr	r1, [r0, #20]
    3732:	6b52      	ldr	r2, [r2, #52]	; 0x34
    3734:	0018      	movs	r0, r3
    3736:	4790      	blx	r2
    3738:	bd10      	pop	{r4, pc}

0000373a <mbed::File::seek(long, int)>:
    373a:	b570      	push	{r4, r5, r6, lr}
    373c:	0004      	movs	r4, r0
    373e:	6900      	ldr	r0, [r0, #16]
    3740:	0013      	movs	r3, r2
    3742:	6802      	ldr	r2, [r0, #0]
    3744:	6b95      	ldr	r5, [r2, #56]	; 0x38
    3746:	000a      	movs	r2, r1
    3748:	6961      	ldr	r1, [r4, #20]
    374a:	47a8      	blx	r5
    374c:	bd70      	pop	{r4, r5, r6, pc}

0000374e <mbed::File::tell()>:
    374e:	6903      	ldr	r3, [r0, #16]
    3750:	b510      	push	{r4, lr}
    3752:	681a      	ldr	r2, [r3, #0]
    3754:	6941      	ldr	r1, [r0, #20]
    3756:	6bd2      	ldr	r2, [r2, #60]	; 0x3c
    3758:	0018      	movs	r0, r3
    375a:	4790      	blx	r2
    375c:	bd10      	pop	{r4, pc}

0000375e <mbed::File::rewind()>:
    375e:	6903      	ldr	r3, [r0, #16]
    3760:	b510      	push	{r4, lr}
    3762:	681a      	ldr	r2, [r3, #0]
    3764:	6941      	ldr	r1, [r0, #20]
    3766:	6c12      	ldr	r2, [r2, #64]	; 0x40
    3768:	0018      	movs	r0, r3
    376a:	4790      	blx	r2
    376c:	bd10      	pop	{r4, pc}

0000376e <mbed::File::size()>:
    376e:	6903      	ldr	r3, [r0, #16]
    3770:	b510      	push	{r4, lr}
    3772:	681a      	ldr	r2, [r3, #0]
    3774:	6941      	ldr	r1, [r0, #20]
    3776:	6c52      	ldr	r2, [r2, #68]	; 0x44
    3778:	0018      	movs	r0, r3
    377a:	4790      	blx	r2
    377c:	bd10      	pop	{r4, pc}

0000377e <mbed::File::open(mbed::FileSystem*, char const*, int)>:
    377e:	b570      	push	{r4, r5, r6, lr}
    3780:	000d      	movs	r5, r1
    3782:	6901      	ldr	r1, [r0, #16]
    3784:	0004      	movs	r4, r0
    3786:	2900      	cmp	r1, #0
    3788:	d109      	bne.n	379e <mbed::File::open(mbed::FileSystem*, char const*, int)+0x20>
    378a:	6829      	ldr	r1, [r5, #0]
    378c:	6a0e      	ldr	r6, [r1, #32]
    378e:	0001      	movs	r1, r0
    3790:	0028      	movs	r0, r5
    3792:	3114      	adds	r1, #20
    3794:	47b0      	blx	r6
    3796:	2800      	cmp	r0, #0
    3798:	d100      	bne.n	379c <mbed::File::open(mbed::FileSystem*, char const*, int)+0x1e>
    379a:	6125      	str	r5, [r4, #16]
    379c:	bd70      	pop	{r4, r5, r6, pc}
    379e:	2016      	movs	r0, #22
    37a0:	4240      	negs	r0, r0
    37a2:	e7fb      	b.n	379c <mbed::File::open(mbed::FileSystem*, char const*, int)+0x1e>

000037a4 <mbed::File::~File()>:
    37a4:	4b08      	ldr	r3, [pc, #32]	; (37c8 <mbed::File::~File()+0x24>)
    37a6:	b510      	push	{r4, lr}
    37a8:	3308      	adds	r3, #8
    37aa:	6003      	str	r3, [r0, #0]
    37ac:	6903      	ldr	r3, [r0, #16]
    37ae:	0004      	movs	r4, r0
    37b0:	2b00      	cmp	r3, #0
    37b2:	d001      	beq.n	37b8 <mbed::File::~File()+0x14>
    37b4:	f7ff ff8e 	bl	36d4 <mbed::File::close()>
    37b8:	4b04      	ldr	r3, [pc, #16]	; (37cc <mbed::File::~File()+0x28>)
    37ba:	0020      	movs	r0, r4
    37bc:	6023      	str	r3, [r4, #0]
    37be:	f7ff fe15 	bl	33ec <mbed::FileBase::~FileBase()>
    37c2:	0020      	movs	r0, r4
    37c4:	bd10      	pop	{r4, pc}
    37c6:	46c0      	nop			; (mov r8, r8)
    37c8:	0000770c 	.word	0x0000770c
    37cc:	0000764c 	.word	0x0000764c

000037d0 <mbed::File::~File()>:
    37d0:	b510      	push	{r4, lr}
    37d2:	0004      	movs	r4, r0
    37d4:	f7ff ffe6 	bl	37a4 <mbed::File::~File()>
    37d8:	0020      	movs	r0, r4
    37da:	f000 f9ba 	bl	3b52 <operator delete(void*)>
    37de:	0020      	movs	r0, r4
    37e0:	bd10      	pop	{r4, pc}
	...

000037e4 <mbed::File::File()>:
    37e4:	2200      	movs	r2, #0
    37e6:	b510      	push	{r4, lr}
    37e8:	0004      	movs	r4, r0
    37ea:	0011      	movs	r1, r2
    37ec:	f7ff fdd6 	bl	339c <mbed::FileBase::FileBase(char const*, mbed::PathType)>
    37f0:	4b03      	ldr	r3, [pc, #12]	; (3800 <mbed::File::File()+0x1c>)
    37f2:	0020      	movs	r0, r4
    37f4:	3308      	adds	r3, #8
    37f6:	6023      	str	r3, [r4, #0]
    37f8:	2300      	movs	r3, #0
    37fa:	6123      	str	r3, [r4, #16]
    37fc:	6163      	str	r3, [r4, #20]
    37fe:	bd10      	pop	{r4, pc}
    3800:	0000770c 	.word	0x0000770c

00003804 <__wrap__malloc_r>:
    3804:	b510      	push	{r4, lr}
    3806:	f001 ff2d 	bl	5664 <_malloc_r>
    380a:	bd10      	pop	{r4, pc}

0000380c <__wrap__realloc_r>:
    380c:	b510      	push	{r4, lr}
    380e:	f001 ff87 	bl	5720 <_realloc_r>
    3812:	bd10      	pop	{r4, pc}

00003814 <__wrap__free_r>:
    3814:	b510      	push	{r4, lr}
    3816:	f001 fedb 	bl	55d0 <_free_r>
    381a:	bd10      	pop	{r4, pc}

0000381c <wait_us>:
    381c:	b570      	push	{r4, r5, r6, lr}
    381e:	0004      	movs	r4, r0
    3820:	f7fe fefa 	bl	2618 <us_ticker_read>
    3824:	21fa      	movs	r1, #250	; 0xfa
    3826:	0005      	movs	r5, r0
    3828:	0089      	lsls	r1, r1, #2
    382a:	0020      	movs	r0, r4
    382c:	f000 fbfe 	bl	402c <__divsi3>
    3830:	1e06      	subs	r6, r0, #0
    3832:	dd03      	ble.n	383c <wait_us+0x20>
    3834:	f7fd f9ea 	bl	c0c <core_util_are_interrupts_enabled>
    3838:	2800      	cmp	r0, #0
    383a:	d105      	bne.n	3848 <wait_us+0x2c>
    383c:	f7fe feec 	bl	2618 <us_ticker_read>
    3840:	1b40      	subs	r0, r0, r5
    3842:	42a0      	cmp	r0, r4
    3844:	d3fa      	bcc.n	383c <wait_us+0x20>
    3846:	bd70      	pop	{r4, r5, r6, pc}
    3848:	0030      	movs	r0, r6
    384a:	f000 fa7d 	bl	3d48 <rtos::Thread::wait(unsigned long)>
    384e:	e7f5      	b.n	383c <wait_us+0x20>

00003850 <wait>:
    3850:	b510      	push	{r4, lr}
    3852:	4904      	ldr	r1, [pc, #16]	; (3864 <wait+0x14>)
    3854:	f000 ff18 	bl	4688 <__aeabi_fmul>
    3858:	f001 f9d2 	bl	4c00 <__aeabi_f2iz>
    385c:	f7ff ffde 	bl	381c <wait_us>
    3860:	bd10      	pop	{r4, pc}
    3862:	46c0      	nop			; (mov r8, r8)
    3864:	49742400 	.word	0x49742400

00003868 <wait_ms>:
    3868:	23fa      	movs	r3, #250	; 0xfa
    386a:	b510      	push	{r4, lr}
    386c:	009b      	lsls	r3, r3, #2
    386e:	4358      	muls	r0, r3
    3870:	f7ff ffd4 	bl	381c <wait_us>
    3874:	bd10      	pop	{r4, pc}
	...

00003878 <ManagedFile::~ManagedFile()>:
    3878:	4b03      	ldr	r3, [pc, #12]	; (3888 <ManagedFile::~ManagedFile()+0x10>)
    387a:	b510      	push	{r4, lr}
    387c:	6003      	str	r3, [r0, #0]
    387e:	0004      	movs	r4, r0
    3880:	f7ff ff90 	bl	37a4 <mbed::File::~File()>
    3884:	0020      	movs	r0, r4
    3886:	bd10      	pop	{r4, pc}
    3888:	00007760 	.word	0x00007760

0000388c <init_serial()>:
    388c:	4b08      	ldr	r3, [pc, #32]	; (38b0 <init_serial()+0x24>)
    388e:	b510      	push	{r4, lr}
    3890:	681b      	ldr	r3, [r3, #0]
    3892:	2b00      	cmp	r3, #0
    3894:	d10a      	bne.n	38ac <init_serial()+0x20>
    3896:	4c07      	ldr	r4, [pc, #28]	; (38b4 <init_serial()+0x28>)
    3898:	2108      	movs	r1, #8
    389a:	0020      	movs	r0, r4
    389c:	2204      	movs	r2, #4
    389e:	f7ff f9d3 	bl	2c48 <serial_init>
    38a2:	2196      	movs	r1, #150	; 0x96
    38a4:	0020      	movs	r0, r4
    38a6:	0189      	lsls	r1, r1, #6
    38a8:	f7ff f90c 	bl	2ac4 <serial_baud>
    38ac:	bd10      	pop	{r4, pc}
    38ae:	46c0      	nop			; (mov r8, r8)
    38b0:	200004c4 	.word	0x200004c4
    38b4:	20000e58 	.word	0x20000e58

000038b8 <mbed_sdk_init>:
    38b8:	4770      	bx	lr
	...

000038bc <_close>:
    38bc:	b510      	push	{r4, lr}
    38be:	0004      	movs	r4, r0
    38c0:	2802      	cmp	r0, #2
    38c2:	dc01      	bgt.n	38c8 <_close+0xc>
    38c4:	2000      	movs	r0, #0
    38c6:	bd10      	pop	{r4, pc}
    38c8:	f001 fa6e 	bl	4da8 <__errno>
    38cc:	2309      	movs	r3, #9
    38ce:	2200      	movs	r2, #0
    38d0:	6003      	str	r3, [r0, #0]
    38d2:	3c03      	subs	r4, #3
    38d4:	4b08      	ldr	r3, [pc, #32]	; (38f8 <_close+0x3c>)
    38d6:	00a4      	lsls	r4, r4, #2
    38d8:	58e0      	ldr	r0, [r4, r3]
    38da:	50e2      	str	r2, [r4, r3]
    38dc:	4290      	cmp	r0, r2
    38de:	d008      	beq.n	38f2 <_close+0x36>
    38e0:	6803      	ldr	r3, [r0, #0]
    38e2:	691b      	ldr	r3, [r3, #16]
    38e4:	4798      	blx	r3
    38e6:	1e04      	subs	r4, r0, #0
    38e8:	daec      	bge.n	38c4 <_close+0x8>
    38ea:	f001 fa5d 	bl	4da8 <__errno>
    38ee:	4264      	negs	r4, r4
    38f0:	6004      	str	r4, [r0, #0]
    38f2:	2001      	movs	r0, #1
    38f4:	4240      	negs	r0, r0
    38f6:	e7e6      	b.n	38c6 <_close+0xa>
    38f8:	200004e8 	.word	0x200004e8

000038fc <_write>:
    38fc:	b570      	push	{r4, r5, r6, lr}
    38fe:	0006      	movs	r6, r0
    3900:	000d      	movs	r5, r1
    3902:	0014      	movs	r4, r2
    3904:	f001 fa50 	bl	4da8 <__errno>
    3908:	2309      	movs	r3, #9
    390a:	6003      	str	r3, [r0, #0]
    390c:	2e02      	cmp	r6, #2
    390e:	dc0e      	bgt.n	392e <_write+0x32>
    3910:	4b12      	ldr	r3, [pc, #72]	; (395c <_write+0x60>)
    3912:	681b      	ldr	r3, [r3, #0]
    3914:	2b00      	cmp	r3, #0
    3916:	d101      	bne.n	391c <_write+0x20>
    3918:	f7ff ffb8 	bl	388c <init_serial()>
    391c:	192e      	adds	r6, r5, r4
    391e:	42b5      	cmp	r5, r6
    3920:	d016      	beq.n	3950 <_write+0x54>
    3922:	7829      	ldrb	r1, [r5, #0]
    3924:	480e      	ldr	r0, [pc, #56]	; (3960 <_write+0x64>)
    3926:	f7ff fac8 	bl	2eba <serial_putc>
    392a:	3501      	adds	r5, #1
    392c:	e7f7      	b.n	391e <_write+0x22>
    392e:	3e03      	subs	r6, #3
    3930:	4b0c      	ldr	r3, [pc, #48]	; (3964 <_write+0x68>)
    3932:	00b6      	lsls	r6, r6, #2
    3934:	58f0      	ldr	r0, [r6, r3]
    3936:	2800      	cmp	r0, #0
    3938:	d00c      	beq.n	3954 <_write+0x58>
    393a:	6803      	ldr	r3, [r0, #0]
    393c:	0022      	movs	r2, r4
    393e:	68db      	ldr	r3, [r3, #12]
    3940:	0029      	movs	r1, r5
    3942:	4798      	blx	r3
    3944:	1e04      	subs	r4, r0, #0
    3946:	da03      	bge.n	3950 <_write+0x54>
    3948:	f001 fa2e 	bl	4da8 <__errno>
    394c:	4263      	negs	r3, r4
    394e:	6003      	str	r3, [r0, #0]
    3950:	0020      	movs	r0, r4
    3952:	bd70      	pop	{r4, r5, r6, pc}
    3954:	2401      	movs	r4, #1
    3956:	4264      	negs	r4, r4
    3958:	e7fa      	b.n	3950 <_write+0x54>
    395a:	46c0      	nop			; (mov r8, r8)
    395c:	200004c4 	.word	0x200004c4
    3960:	20000e58 	.word	0x20000e58
    3964:	200004e8 	.word	0x200004e8

00003968 <_read>:
    3968:	b570      	push	{r4, r5, r6, lr}
    396a:	0004      	movs	r4, r0
    396c:	000d      	movs	r5, r1
    396e:	0016      	movs	r6, r2
    3970:	f001 fa1a 	bl	4da8 <__errno>
    3974:	2309      	movs	r3, #9
    3976:	6003      	str	r3, [r0, #0]
    3978:	2c02      	cmp	r4, #2
    397a:	dc0c      	bgt.n	3996 <_read+0x2e>
    397c:	4b10      	ldr	r3, [pc, #64]	; (39c0 <_read+0x58>)
    397e:	681b      	ldr	r3, [r3, #0]
    3980:	2b00      	cmp	r3, #0
    3982:	d101      	bne.n	3988 <_read+0x20>
    3984:	f7ff ff82 	bl	388c <init_serial()>
    3988:	480e      	ldr	r0, [pc, #56]	; (39c4 <_read+0x5c>)
    398a:	f7ff fa7f 	bl	2e8c <serial_getc>
    398e:	2401      	movs	r4, #1
    3990:	7028      	strb	r0, [r5, #0]
    3992:	0020      	movs	r0, r4
    3994:	bd70      	pop	{r4, r5, r6, pc}
    3996:	3c03      	subs	r4, #3
    3998:	4b0b      	ldr	r3, [pc, #44]	; (39c8 <_read+0x60>)
    399a:	00a4      	lsls	r4, r4, #2
    399c:	58e0      	ldr	r0, [r4, r3]
    399e:	2800      	cmp	r0, #0
    39a0:	d00b      	beq.n	39ba <_read+0x52>
    39a2:	6803      	ldr	r3, [r0, #0]
    39a4:	0032      	movs	r2, r6
    39a6:	689b      	ldr	r3, [r3, #8]
    39a8:	0029      	movs	r1, r5
    39aa:	4798      	blx	r3
    39ac:	1e04      	subs	r4, r0, #0
    39ae:	daf0      	bge.n	3992 <_read+0x2a>
    39b0:	f001 f9fa 	bl	4da8 <__errno>
    39b4:	4263      	negs	r3, r4
    39b6:	6003      	str	r3, [r0, #0]
    39b8:	e7eb      	b.n	3992 <_read+0x2a>
    39ba:	2401      	movs	r4, #1
    39bc:	4264      	negs	r4, r4
    39be:	e7e8      	b.n	3992 <_read+0x2a>
    39c0:	200004c4 	.word	0x200004c4
    39c4:	20000e58 	.word	0x20000e58
    39c8:	200004e8 	.word	0x200004e8

000039cc <_isatty>:
    39cc:	b510      	push	{r4, lr}
    39ce:	0004      	movs	r4, r0
    39d0:	f001 f9ea 	bl	4da8 <__errno>
    39d4:	2309      	movs	r3, #9
    39d6:	6003      	str	r3, [r0, #0]
    39d8:	2001      	movs	r0, #1
    39da:	2c02      	cmp	r4, #2
    39dc:	dd12      	ble.n	3a04 <_isatty+0x38>
    39de:	3c03      	subs	r4, #3
    39e0:	4b09      	ldr	r3, [pc, #36]	; (3a08 <_isatty+0x3c>)
    39e2:	00a4      	lsls	r4, r4, #2
    39e4:	58e0      	ldr	r0, [r4, r3]
    39e6:	2800      	cmp	r0, #0
    39e8:	d00a      	beq.n	3a00 <_isatty+0x34>
    39ea:	6803      	ldr	r3, [r0, #0]
    39ec:	699b      	ldr	r3, [r3, #24]
    39ee:	4798      	blx	r3
    39f0:	0004      	movs	r4, r0
    39f2:	2000      	movs	r0, #0
    39f4:	4284      	cmp	r4, r0
    39f6:	da05      	bge.n	3a04 <_isatty+0x38>
    39f8:	f001 f9d6 	bl	4da8 <__errno>
    39fc:	4264      	negs	r4, r4
    39fe:	6004      	str	r4, [r0, #0]
    3a00:	2001      	movs	r0, #1
    3a02:	4240      	negs	r0, r0
    3a04:	bd10      	pop	{r4, pc}
    3a06:	46c0      	nop			; (mov r8, r8)
    3a08:	200004e8 	.word	0x200004e8

00003a0c <_lseek>:
    3a0c:	b570      	push	{r4, r5, r6, lr}
    3a0e:	0004      	movs	r4, r0
    3a10:	000d      	movs	r5, r1
    3a12:	0016      	movs	r6, r2
    3a14:	f001 f9c8 	bl	4da8 <__errno>
    3a18:	2309      	movs	r3, #9
    3a1a:	6003      	str	r3, [r0, #0]
    3a1c:	2000      	movs	r0, #0
    3a1e:	2c02      	cmp	r4, #2
    3a20:	dd0a      	ble.n	3a38 <_lseek+0x2c>
    3a22:	3c03      	subs	r4, #3
    3a24:	4b06      	ldr	r3, [pc, #24]	; (3a40 <_lseek+0x34>)
    3a26:	00a4      	lsls	r4, r4, #2
    3a28:	58e0      	ldr	r0, [r4, r3]
    3a2a:	2800      	cmp	r0, #0
    3a2c:	d005      	beq.n	3a3a <_lseek+0x2e>
    3a2e:	6803      	ldr	r3, [r0, #0]
    3a30:	0032      	movs	r2, r6
    3a32:	69db      	ldr	r3, [r3, #28]
    3a34:	0029      	movs	r1, r5
    3a36:	4798      	blx	r3
    3a38:	bd70      	pop	{r4, r5, r6, pc}
    3a3a:	2001      	movs	r0, #1
    3a3c:	4240      	negs	r0, r0
    3a3e:	e7fb      	b.n	3a38 <_lseek+0x2c>
    3a40:	200004e8 	.word	0x200004e8

00003a44 <_fstat>:
    3a44:	b510      	push	{r4, lr}
    3a46:	2802      	cmp	r0, #2
    3a48:	dc04      	bgt.n	3a54 <_fstat+0x10>
    3a4a:	2380      	movs	r3, #128	; 0x80
    3a4c:	2000      	movs	r0, #0
    3a4e:	019b      	lsls	r3, r3, #6
    3a50:	604b      	str	r3, [r1, #4]
    3a52:	bd10      	pop	{r4, pc}
    3a54:	f001 f9a8 	bl	4da8 <__errno>
    3a58:	2309      	movs	r3, #9
    3a5a:	6003      	str	r3, [r0, #0]
    3a5c:	2001      	movs	r0, #1
    3a5e:	4240      	negs	r0, r0
    3a60:	e7f7      	b.n	3a52 <_fstat+0xe>

00003a62 <software_init_hook>:
    3a62:	b510      	push	{r4, lr}
    3a64:	f7ff ff28 	bl	38b8 <mbed_sdk_init>
    3a68:	f7fd f99e 	bl	da8 <software_init_hook_rtos>
    3a6c:	bd10      	pop	{r4, pc}

00003a6e <mbed_main>:
    3a6e:	4770      	bx	lr

00003a70 <__wrap_main>:
    3a70:	b510      	push	{r4, lr}
    3a72:	f7ff fffc 	bl	3a6e <mbed_main>
    3a76:	f7fc fde3 	bl	640 <main>
    3a7a:	bd10      	pop	{r4, pc}

00003a7c <_sbrk>:
    3a7c:	490c      	ldr	r1, [pc, #48]	; (3ab0 <_sbrk+0x34>)
    3a7e:	b510      	push	{r4, lr}
    3a80:	680b      	ldr	r3, [r1, #0]
    3a82:	1818      	adds	r0, r3, r0
    3a84:	f3ef 8208 	mrs	r2, MSP
    3a88:	4290      	cmp	r0, r2
    3a8a:	d305      	bcc.n	3a98 <_sbrk+0x1c>
    3a8c:	220c      	movs	r2, #12
    3a8e:	2001      	movs	r0, #1
    3a90:	4b08      	ldr	r3, [pc, #32]	; (3ab4 <_sbrk+0x38>)
    3a92:	4240      	negs	r0, r0
    3a94:	601a      	str	r2, [r3, #0]
    3a96:	bd10      	pop	{r4, pc}
    3a98:	4a07      	ldr	r2, [pc, #28]	; (3ab8 <_sbrk+0x3c>)
    3a9a:	6814      	ldr	r4, [r2, #0]
    3a9c:	2c00      	cmp	r4, #0
    3a9e:	d004      	beq.n	3aaa <_sbrk+0x2e>
    3aa0:	4a06      	ldr	r2, [pc, #24]	; (3abc <_sbrk+0x40>)
    3aa2:	6812      	ldr	r2, [r2, #0]
    3aa4:	1912      	adds	r2, r2, r4
    3aa6:	4290      	cmp	r0, r2
    3aa8:	d2f0      	bcs.n	3a8c <_sbrk+0x10>
    3aaa:	6008      	str	r0, [r1, #0]
    3aac:	0018      	movs	r0, r3
    3aae:	e7f2      	b.n	3a96 <_sbrk+0x1a>
    3ab0:	1ffff0e4 	.word	0x1ffff0e4
    3ab4:	20000e60 	.word	0x20000e60
    3ab8:	20000604 	.word	0x20000604
    3abc:	20000608 	.word	0x20000608

00003ac0 <_exit>:
    3ac0:	b570      	push	{r4, r5, r6, lr}
    3ac2:	4c0a      	ldr	r4, [pc, #40]	; (3aec <_exit+0x2c>)
    3ac4:	0005      	movs	r5, r0
    3ac6:	6823      	ldr	r3, [r4, #0]
    3ac8:	6898      	ldr	r0, [r3, #8]
    3aca:	f001 fa8b 	bl	4fe4 <fflush>
    3ace:	6823      	ldr	r3, [r4, #0]
    3ad0:	68d8      	ldr	r0, [r3, #12]
    3ad2:	f001 fa87 	bl	4fe4 <fflush>
    3ad6:	f7fd f895 	bl	c04 <mbed_interface_connected>
    3ada:	2800      	cmp	r0, #0
    3adc:	d001      	beq.n	3ae2 <_exit+0x22>
    3ade:	f7fd f8c9 	bl	c74 <semihost_exit>
    3ae2:	2d00      	cmp	r5, #0
    3ae4:	d001      	beq.n	3aea <_exit+0x2a>
    3ae6:	f7fd f8d7 	bl	c98 <mbed_die>
    3aea:	e7fe      	b.n	3aea <_exit+0x2a>
    3aec:	1ffff0e8 	.word	0x1ffff0e8

00003af0 <__aeabi_atexit>:
    3af0:	2001      	movs	r0, #1
    3af2:	4770      	bx	lr

00003af4 <__wrap_exit>:
    3af4:	b510      	push	{r4, lr}
    3af6:	f7ff ffe3 	bl	3ac0 <_exit>

00003afa <mbed::mbed_set_unbuffered_stream(__sFILE*)>:
    3afa:	b510      	push	{r4, lr}
    3afc:	2100      	movs	r1, #0
    3afe:	f002 fb94 	bl	622a <setbuf>
    3b02:	bd10      	pop	{r4, pc}

00003b04 <mbed::mbed_getc(__sFILE*)>:
    3b04:	b510      	push	{r4, lr}
    3b06:	f001 faaf 	bl	5068 <fgetc>
    3b0a:	bd10      	pop	{r4, pc}

00003b0c <__malloc_lock>:
    3b0c:	b510      	push	{r4, lr}
    3b0e:	f7fd f959 	bl	dc4 <__rtos_malloc_lock>
    3b12:	bd10      	pop	{r4, pc}

00003b14 <__malloc_unlock>:
    3b14:	b510      	push	{r4, lr}
    3b16:	f7fd f95f 	bl	dd8 <__rtos_malloc_unlock>
    3b1a:	bd10      	pop	{r4, pc}

00003b1c <operator new(unsigned int)>:
    3b1c:	b510      	push	{r4, lr}
    3b1e:	f001 fd15 	bl	554c <malloc>
    3b22:	1e04      	subs	r4, r0, #0
    3b24:	d102      	bne.n	3b2c <operator new(unsigned int)+0x10>
    3b26:	4802      	ldr	r0, [pc, #8]	; (3b30 <operator new(unsigned int)+0x14>)
    3b28:	f7fd f8d0 	bl	ccc <error>
    3b2c:	0020      	movs	r0, r4
    3b2e:	bd10      	pop	{r4, pc}
    3b30:	000077a4 	.word	0x000077a4

00003b34 <operator delete[](void*)>:
    3b34:	b510      	push	{r4, lr}
    3b36:	2800      	cmp	r0, #0
    3b38:	d001      	beq.n	3b3e <operator delete[](void*)+0xa>
    3b3a:	f001 fd11 	bl	5560 <free>
    3b3e:	bd10      	pop	{r4, pc}

00003b40 <ManagedFile::~ManagedFile()>:
    3b40:	b510      	push	{r4, lr}
    3b42:	0004      	movs	r4, r0
    3b44:	f7ff fe98 	bl	3878 <ManagedFile::~ManagedFile()>
    3b48:	0020      	movs	r0, r4
    3b4a:	f7ff fff3 	bl	3b34 <operator delete[](void*)>
    3b4e:	0020      	movs	r0, r4
    3b50:	bd10      	pop	{r4, pc}

00003b52 <operator delete(void*)>:
    3b52:	b510      	push	{r4, lr}
    3b54:	f7ff ffee 	bl	3b34 <operator delete[](void*)>
    3b58:	bd10      	pop	{r4, pc}
	...

00003b5c <mbed::remove_filehandle(mbed::FileLike*)>:
    3b5c:	b570      	push	{r4, r5, r6, lr}
    3b5e:	4c0d      	ldr	r4, [pc, #52]	; (3b94 <mbed::remove_filehandle(mbed::FileLike*)+0x38>)
    3b60:	0005      	movs	r5, r0
    3b62:	0020      	movs	r0, r4
    3b64:	f7ff fbfe 	bl	3364 <SingletonPtr<rtos::Mutex>::get()>
    3b68:	2101      	movs	r1, #1
    3b6a:	4249      	negs	r1, r1
    3b6c:	f000 f908 	bl	3d80 <rtos::Mutex::lock(unsigned long)>
    3b70:	2300      	movs	r3, #0
    3b72:	2180      	movs	r1, #128	; 0x80
    3b74:	0018      	movs	r0, r3
    3b76:	4a08      	ldr	r2, [pc, #32]	; (3b98 <mbed::remove_filehandle(mbed::FileLike*)+0x3c>)
    3b78:	0049      	lsls	r1, r1, #1
    3b7a:	589e      	ldr	r6, [r3, r2]
    3b7c:	42ae      	cmp	r6, r5
    3b7e:	d100      	bne.n	3b82 <mbed::remove_filehandle(mbed::FileLike*)+0x26>
    3b80:	5098      	str	r0, [r3, r2]
    3b82:	3304      	adds	r3, #4
    3b84:	428b      	cmp	r3, r1
    3b86:	d1f8      	bne.n	3b7a <mbed::remove_filehandle(mbed::FileLike*)+0x1e>
    3b88:	0020      	movs	r0, r4
    3b8a:	f7ff fbeb 	bl	3364 <SingletonPtr<rtos::Mutex>::get()>
    3b8e:	f000 f8fc 	bl	3d8a <rtos::Mutex::unlock()>
    3b92:	bd70      	pop	{r4, r5, r6, pc}
    3b94:	200005e8 	.word	0x200005e8
    3b98:	200004e8 	.word	0x200004e8

00003b9c <_open>:
    3b9c:	b5f0      	push	{r4, r5, r6, r7, lr}
    3b9e:	b085      	sub	sp, #20
    3ba0:	9101      	str	r1, [sp, #4]
    3ba2:	4955      	ldr	r1, [pc, #340]	; (3cf8 <_open+0x15c>)
    3ba4:	0006      	movs	r6, r0
    3ba6:	f002 fc8d 	bl	64c4 <strcmp>
    3baa:	1e04      	subs	r4, r0, #0
    3bac:	d104      	bne.n	3bb8 <_open+0x1c>
    3bae:	f7ff fe6d 	bl	388c <init_serial()>
    3bb2:	0020      	movs	r0, r4
    3bb4:	b005      	add	sp, #20
    3bb6:	bdf0      	pop	{r4, r5, r6, r7, pc}
    3bb8:	4950      	ldr	r1, [pc, #320]	; (3cfc <_open+0x160>)
    3bba:	0030      	movs	r0, r6
    3bbc:	f002 fc82 	bl	64c4 <strcmp>
    3bc0:	2800      	cmp	r0, #0
    3bc2:	d103      	bne.n	3bcc <_open+0x30>
    3bc4:	f7ff fe62 	bl	388c <init_serial()>
    3bc8:	2401      	movs	r4, #1
    3bca:	e7f2      	b.n	3bb2 <_open+0x16>
    3bcc:	494c      	ldr	r1, [pc, #304]	; (3d00 <_open+0x164>)
    3bce:	0030      	movs	r0, r6
    3bd0:	f002 fc78 	bl	64c4 <strcmp>
    3bd4:	2800      	cmp	r0, #0
    3bd6:	d103      	bne.n	3be0 <_open+0x44>
    3bd8:	f7ff fe58 	bl	388c <init_serial()>
    3bdc:	2402      	movs	r4, #2
    3bde:	e7e8      	b.n	3bb2 <_open+0x16>
    3be0:	f001 f8e2 	bl	4da8 <__errno>
    3be4:	2309      	movs	r3, #9
    3be6:	4f47      	ldr	r7, [pc, #284]	; (3d04 <_open+0x168>)
    3be8:	6003      	str	r3, [r0, #0]
    3bea:	0038      	movs	r0, r7
    3bec:	f7ff fbba 	bl	3364 <SingletonPtr<rtos::Mutex>::get()>
    3bf0:	2101      	movs	r1, #1
    3bf2:	4249      	negs	r1, r1
    3bf4:	f000 f8c4 	bl	3d80 <rtos::Mutex::lock(unsigned long)>
    3bf8:	2400      	movs	r4, #0
    3bfa:	00a3      	lsls	r3, r4, #2
    3bfc:	9300      	str	r3, [sp, #0]
    3bfe:	4b42      	ldr	r3, [pc, #264]	; (3d08 <_open+0x16c>)
    3c00:	00a2      	lsls	r2, r4, #2
    3c02:	58d5      	ldr	r5, [r2, r3]
    3c04:	2d00      	cmp	r5, #0
    3c06:	d05c      	beq.n	3cc2 <_open+0x126>
    3c08:	3401      	adds	r4, #1
    3c0a:	2c40      	cmp	r4, #64	; 0x40
    3c0c:	d1f5      	bne.n	3bfa <_open+0x5e>
    3c0e:	f001 f8cb 	bl	4da8 <__errno>
    3c12:	2318      	movs	r3, #24
    3c14:	6003      	str	r3, [r0, #0]
    3c16:	0038      	movs	r0, r7
    3c18:	f7ff fba4 	bl	3364 <SingletonPtr<rtos::Mutex>::get()>
    3c1c:	f000 f8b5 	bl	3d8a <rtos::Mutex::unlock()>
    3c20:	e00f      	b.n	3c42 <_open+0xa6>
    3c22:	0031      	movs	r1, r6
    3c24:	a802      	add	r0, sp, #8
    3c26:	f7ff fc5b 	bl	34e0 <mbed::FilePath::FilePath(char const*)>
    3c2a:	a802      	add	r0, sp, #8
    3c2c:	f7ff fca0 	bl	3570 <mbed::FilePath::exists()>
    3c30:	2800      	cmp	r0, #0
    3c32:	d109      	bne.n	3c48 <_open+0xac>
    3c34:	4b34      	ldr	r3, [pc, #208]	; (3d08 <_open+0x16c>)
    3c36:	9a00      	ldr	r2, [sp, #0]
    3c38:	50d0      	str	r0, [r2, r3]
    3c3a:	f001 f8b5 	bl	4da8 <__errno>
    3c3e:	2302      	movs	r3, #2
    3c40:	6003      	str	r3, [r0, #0]
    3c42:	2401      	movs	r4, #1
    3c44:	4264      	negs	r4, r4
    3c46:	e7b4      	b.n	3bb2 <_open+0x16>
    3c48:	a802      	add	r0, sp, #8
    3c4a:	f7ff fc7e 	bl	354a <mbed::FilePath::isFile()>
    3c4e:	2800      	cmp	r0, #0
    3c50:	d004      	beq.n	3c5c <_open+0xc0>
    3c52:	a802      	add	r0, sp, #8
    3c54:	f7ff fc83 	bl	355e <mbed::FilePath::file()>
    3c58:	0005      	movs	r5, r0
    3c5a:	e045      	b.n	3ce8 <_open+0x14c>
    3c5c:	a802      	add	r0, sp, #8
    3c5e:	f7ff fc6b 	bl	3538 <mbed::FilePath::fileSystem()>
    3c62:	1e07      	subs	r7, r0, #0
    3c64:	d107      	bne.n	3c76 <_open+0xda>
    3c66:	f001 f89f 	bl	4da8 <__errno>
    3c6a:	2302      	movs	r3, #2
    3c6c:	9a00      	ldr	r2, [sp, #0]
    3c6e:	6003      	str	r3, [r0, #0]
    3c70:	4b25      	ldr	r3, [pc, #148]	; (3d08 <_open+0x16c>)
    3c72:	50d7      	str	r7, [r2, r3]
    3c74:	e7e5      	b.n	3c42 <_open+0xa6>
    3c76:	2018      	movs	r0, #24
    3c78:	f7ff ff50 	bl	3b1c <operator new(unsigned int)>
    3c7c:	0006      	movs	r6, r0
    3c7e:	f7ff fdb1 	bl	37e4 <mbed::File::File()>
    3c82:	4b22      	ldr	r3, [pc, #136]	; (3d0c <_open+0x170>)
    3c84:	a802      	add	r0, sp, #8
    3c86:	6033      	str	r3, [r6, #0]
    3c88:	f7ff fc49 	bl	351e <mbed::FilePath::fileName()>
    3c8c:	4b20      	ldr	r3, [pc, #128]	; (3d10 <_open+0x174>)
    3c8e:	9901      	ldr	r1, [sp, #4]
    3c90:	0002      	movs	r2, r0
    3c92:	4019      	ands	r1, r3
    3c94:	000b      	movs	r3, r1
    3c96:	0030      	movs	r0, r6
    3c98:	0039      	movs	r1, r7
    3c9a:	f7ff fd70 	bl	377e <mbed::File::open(mbed::FileSystem*, char const*, int)>
    3c9e:	1e07      	subs	r7, r0, #0
    3ca0:	da0d      	bge.n	3cbe <_open+0x122>
    3ca2:	f001 f881 	bl	4da8 <__errno>
    3ca6:	427f      	negs	r7, r7
    3ca8:	6007      	str	r7, [r0, #0]
    3caa:	2e00      	cmp	r6, #0
    3cac:	d003      	beq.n	3cb6 <_open+0x11a>
    3cae:	6833      	ldr	r3, [r6, #0]
    3cb0:	0030      	movs	r0, r6
    3cb2:	685b      	ldr	r3, [r3, #4]
    3cb4:	4798      	blx	r3
    3cb6:	4b14      	ldr	r3, [pc, #80]	; (3d08 <_open+0x16c>)
    3cb8:	00a4      	lsls	r4, r4, #2
    3cba:	511d      	str	r5, [r3, r4]
    3cbc:	e7c1      	b.n	3c42 <_open+0xa6>
    3cbe:	0035      	movs	r5, r6
    3cc0:	e012      	b.n	3ce8 <_open+0x14c>
    3cc2:	2301      	movs	r3, #1
    3cc4:	4a10      	ldr	r2, [pc, #64]	; (3d08 <_open+0x16c>)
    3cc6:	425b      	negs	r3, r3
    3cc8:	00a1      	lsls	r1, r4, #2
    3cca:	0038      	movs	r0, r7
    3ccc:	508b      	str	r3, [r1, r2]
    3cce:	f7ff fb49 	bl	3364 <SingletonPtr<rtos::Mutex>::get()>
    3cd2:	f000 f85a 	bl	3d8a <rtos::Mutex::unlock()>
    3cd6:	7833      	ldrb	r3, [r6, #0]
    3cd8:	2b3a      	cmp	r3, #58	; 0x3a
    3cda:	d1a2      	bne.n	3c22 <_open+0x86>
    3cdc:	aa02      	add	r2, sp, #8
    3cde:	490d      	ldr	r1, [pc, #52]	; (3d14 <_open+0x178>)
    3ce0:	0030      	movs	r0, r6
    3ce2:	f002 fb79 	bl	63d8 <siscanf>
    3ce6:	9d02      	ldr	r5, [sp, #8]
    3ce8:	2d00      	cmp	r5, #0
    3cea:	d0e4      	beq.n	3cb6 <_open+0x11a>
    3cec:	4a06      	ldr	r2, [pc, #24]	; (3d08 <_open+0x16c>)
    3cee:	00a3      	lsls	r3, r4, #2
    3cf0:	50d5      	str	r5, [r2, r3]
    3cf2:	3403      	adds	r4, #3
    3cf4:	e75d      	b.n	3bb2 <_open+0x16>
    3cf6:	46c0      	nop			; (mov r8, r8)
    3cf8:	000077c9 	.word	0x000077c9
    3cfc:	000077d0 	.word	0x000077d0
    3d00:	000077c1 	.word	0x000077c1
    3d04:	200005e8 	.word	0x200005e8
    3d08:	200004e8 	.word	0x200004e8
    3d0c:	00007760 	.word	0x00007760
    3d10:	fffeffff 	.word	0xfffeffff
    3d14:	0000768c 	.word	0x0000768c

00003d18 <ManagedFile::close()>:
    3d18:	b570      	push	{r4, r5, r6, lr}
    3d1a:	0004      	movs	r4, r0
    3d1c:	f7ff fcda 	bl	36d4 <mbed::File::close()>
    3d20:	0005      	movs	r5, r0
    3d22:	2c00      	cmp	r4, #0
    3d24:	d003      	beq.n	3d2e <ManagedFile::close()+0x16>
    3d26:	6823      	ldr	r3, [r4, #0]
    3d28:	0020      	movs	r0, r4
    3d2a:	685b      	ldr	r3, [r3, #4]
    3d2c:	4798      	blx	r3
    3d2e:	0028      	movs	r0, r5
    3d30:	bd70      	pop	{r4, r5, r6, pc}
	...

00003d34 <thread_terminate_hook>:
    3d34:	4b03      	ldr	r3, [pc, #12]	; (3d44 <thread_terminate_hook+0x10>)
    3d36:	b510      	push	{r4, lr}
    3d38:	681b      	ldr	r3, [r3, #0]
    3d3a:	2b00      	cmp	r3, #0
    3d3c:	d000      	beq.n	3d40 <thread_terminate_hook+0xc>
    3d3e:	4798      	blx	r3
    3d40:	bd10      	pop	{r4, pc}
    3d42:	46c0      	nop			; (mov r8, r8)
    3d44:	2000060c 	.word	0x2000060c

00003d48 <rtos::Thread::wait(unsigned long)>:
    3d48:	b510      	push	{r4, lr}
    3d4a:	f7fd fd3f 	bl	17cc <osDelay>
    3d4e:	bd10      	pop	{r4, pc}

00003d50 <rtos::Mutex::Mutex()>:
    3d50:	b570      	push	{r4, r5, r6, lr}
    3d52:	0005      	movs	r5, r0
    3d54:	0004      	movs	r4, r0
    3d56:	3508      	adds	r5, #8
    3d58:	2210      	movs	r2, #16
    3d5a:	2100      	movs	r1, #0
    3d5c:	0028      	movs	r0, r5
    3d5e:	f001 fc2f 	bl	55c0 <memset>
    3d62:	6065      	str	r5, [r4, #4]
    3d64:	1d20      	adds	r0, r4, #4
    3d66:	f7fd fdab 	bl	18c0 <osMutexCreate>
    3d6a:	6020      	str	r0, [r4, #0]
    3d6c:	2800      	cmp	r0, #0
    3d6e:	d102      	bne.n	3d76 <rtos::Mutex::Mutex()+0x26>
    3d70:	4802      	ldr	r0, [pc, #8]	; (3d7c <rtos::Mutex::Mutex()+0x2c>)
    3d72:	f7fc ffab 	bl	ccc <error>
    3d76:	0020      	movs	r0, r4
    3d78:	bd70      	pop	{r4, r5, r6, pc}
    3d7a:	46c0      	nop			; (mov r8, r8)
    3d7c:	000077d8 	.word	0x000077d8

00003d80 <rtos::Mutex::lock(unsigned long)>:
    3d80:	b510      	push	{r4, lr}
    3d82:	6800      	ldr	r0, [r0, #0]
    3d84:	f7fd fdbe 	bl	1904 <osMutexWait>
    3d88:	bd10      	pop	{r4, pc}

00003d8a <rtos::Mutex::unlock()>:
    3d8a:	b510      	push	{r4, lr}
    3d8c:	6800      	ldr	r0, [r0, #0]
    3d8e:	f7fd fde3 	bl	1958 <osMutexRelease>
    3d92:	bd10      	pop	{r4, pc}

00003d94 <rtos::Mutex::~Mutex()>:
    3d94:	b510      	push	{r4, lr}
    3d96:	0004      	movs	r4, r0
    3d98:	6800      	ldr	r0, [r0, #0]
    3d9a:	f7fd fe29 	bl	19f0 <osMutexDelete>
    3d9e:	0020      	movs	r0, r4
    3da0:	bd10      	pop	{r4, pc}
	...

00003da4 <rt_set_PSP>:
    3da4:	f380 8809 	msr	PSP, r0
    3da8:	4770      	bx	lr

00003daa <rt_get_PSP>:
    3daa:	f3ef 8009 	mrs	r0, PSP
    3dae:	4770      	bx	lr

00003db0 <os_set_env>:
    3db0:	4668      	mov	r0, sp
    3db2:	f380 8809 	msr	PSP, r0
    3db6:	484a      	ldr	r0, [pc, #296]	; (3ee0 <OS_Tick_Handler+0xa>)
    3db8:	7800      	ldrb	r0, [r0, #0]
    3dba:	07c0      	lsls	r0, r0, #31
    3dbc:	d103      	bne.n	3dc6 <PrivilegedE>
    3dbe:	2003      	movs	r0, #3
    3dc0:	f380 8814 	msr	CONTROL, r0
    3dc4:	4770      	bx	lr

00003dc6 <PrivilegedE>:
    3dc6:	2002      	movs	r0, #2
    3dc8:	f380 8814 	msr	CONTROL, r0
    3dcc:	4770      	bx	lr

00003dce <_alloc_box>:
    3dce:	4b45      	ldr	r3, [pc, #276]	; (3ee4 <OS_Tick_Handler+0xe>)
    3dd0:	469c      	mov	r12, r3
    3dd2:	f3ef 8305 	mrs	r3, IPSR
    3dd6:	061b      	lsls	r3, r3, #24
    3dd8:	d105      	bne.n	3de6 <PrivilegedA>
    3dda:	f3ef 8314 	mrs	r3, CONTROL
    3dde:	07db      	lsls	r3, r3, #31
    3de0:	d001      	beq.n	3de6 <PrivilegedA>
    3de2:	df00      	svc	0
    3de4:	4770      	bx	lr

00003de6 <PrivilegedA>:
    3de6:	4760      	bx	r12

00003de8 <_free_box>:
    3de8:	4b3f      	ldr	r3, [pc, #252]	; (3ee8 <OS_Tick_Handler+0x12>)
    3dea:	469c      	mov	r12, r3
    3dec:	f3ef 8305 	mrs	r3, IPSR
    3df0:	061b      	lsls	r3, r3, #24
    3df2:	d105      	bne.n	3e00 <PrivilegedF>
    3df4:	f3ef 8314 	mrs	r3, CONTROL
    3df8:	07db      	lsls	r3, r3, #31
    3dfa:	d001      	beq.n	3e00 <PrivilegedF>
    3dfc:	df00      	svc	0
    3dfe:	4770      	bx	lr

00003e00 <PrivilegedF>:
    3e00:	4760      	bx	r12

00003e02 <SVC_Handler>:
    3e02:	f3ef 8009 	mrs	r0, PSP
    3e06:	6981      	ldr	r1, [r0, #24]
    3e08:	3902      	subs	r1, #2
    3e0a:	7809      	ldrb	r1, [r1, #0]
    3e0c:	2900      	cmp	r1, #0
    3e0e:	d12b      	bne.n	3e68 <SVC_User>
    3e10:	46a6      	mov	lr, r4
    3e12:	c81f      	ldmia	r0, {r0, r1, r2, r3, r4}
    3e14:	46a4      	mov	r12, r4
    3e16:	4674      	mov	r4, lr
    3e18:	47e0      	blx	r12
    3e1a:	f3ef 8309 	mrs	r3, PSP
    3e1e:	c307      	stmia	r3!, {r0, r1, r2}
    3e20:	4b32      	ldr	r3, [pc, #200]	; (3eec <OS_Tick_Handler+0x16>)
    3e22:	cb06      	ldmia	r3!, {r1, r2}
    3e24:	4291      	cmp	r1, r2
    3e26:	d01c      	beq.n	3e62 <SVC_Exit>
    3e28:	3b08      	subs	r3, #8
    3e2a:	2900      	cmp	r1, #0
    3e2c:	d00d      	beq.n	3e4a <SVC_Next>
    3e2e:	f3ef 8009 	mrs	r0, PSP
    3e32:	3820      	subs	r0, #32
    3e34:	62c8      	str	r0, [r1, #44]	; 0x2c
    3e36:	c0f0      	stmia	r0!, {r4, r5, r6, r7}
    3e38:	4644      	mov	r4, r8
    3e3a:	464d      	mov	r5, r9
    3e3c:	4656      	mov	r6, r10
    3e3e:	465f      	mov	r7, r11
    3e40:	c0f0      	stmia	r0!, {r4, r5, r6, r7}
    3e42:	b40c      	push	{r2, r3}
    3e44:	f7fd f9b6 	bl	11b4 <rt_stk_check>
    3e48:	bc0c      	pop	{r2, r3}

00003e4a <SVC_Next>:
    3e4a:	601a      	str	r2, [r3, #0]
    3e4c:	6ad0      	ldr	r0, [r2, #44]	; 0x2c
    3e4e:	3010      	adds	r0, #16
    3e50:	c8f0      	ldmia	r0!, {r4, r5, r6, r7}
    3e52:	46a0      	mov	r8, r4
    3e54:	46a9      	mov	r9, r5
    3e56:	46b2      	mov	r10, r6
    3e58:	46bb      	mov	r11, r7
    3e5a:	f380 8809 	msr	PSP, r0
    3e5e:	3820      	subs	r0, #32
    3e60:	c8f0      	ldmia	r0!, {r4, r5, r6, r7}

00003e62 <SVC_Exit>:
    3e62:	2002      	movs	r0, #2
    3e64:	43c0      	mvns	r0, r0
    3e66:	4700      	bx	r0

00003e68 <SVC_User>:
    3e68:	b510      	push	{r4, lr}
    3e6a:	4a21      	ldr	r2, [pc, #132]	; (3ef0 <OS_Tick_Handler+0x1a>)
    3e6c:	6812      	ldr	r2, [r2, #0]
    3e6e:	4291      	cmp	r1, r2
    3e70:	d809      	bhi.n	3e86 <SVC_Done>
    3e72:	4c20      	ldr	r4, [pc, #128]	; (3ef4 <OS_Tick_Handler+0x1e>)
    3e74:	0089      	lsls	r1, r1, #2
    3e76:	5864      	ldr	r4, [r4, r1]
    3e78:	46a6      	mov	lr, r4
    3e7a:	c81f      	ldmia	r0, {r0, r1, r2, r3, r4}
    3e7c:	46a4      	mov	r12, r4
    3e7e:	47f0      	blx	lr
    3e80:	f3ef 8409 	mrs	r4, PSP
    3e84:	c40f      	stmia	r4!, {r0, r1, r2, r3}

00003e86 <SVC_Done>:
    3e86:	bd10      	pop	{r4, pc}

00003e88 <PendSV_Handler>:
    3e88:	f7fd f918 	bl	10bc <rt_pop_req>

00003e8c <Sys_Switch>:
    3e8c:	4b17      	ldr	r3, [pc, #92]	; (3eec <OS_Tick_Handler+0x16>)
    3e8e:	cb06      	ldmia	r3!, {r1, r2}
    3e90:	4291      	cmp	r1, r2
    3e92:	d01a      	beq.n	3eca <Sys_Exit>
    3e94:	3b08      	subs	r3, #8
    3e96:	f3ef 8009 	mrs	r0, PSP
    3e9a:	3820      	subs	r0, #32
    3e9c:	62c8      	str	r0, [r1, #44]	; 0x2c
    3e9e:	c0f0      	stmia	r0!, {r4, r5, r6, r7}
    3ea0:	4644      	mov	r4, r8
    3ea2:	464d      	mov	r5, r9
    3ea4:	4656      	mov	r6, r10
    3ea6:	465f      	mov	r7, r11
    3ea8:	c0f0      	stmia	r0!, {r4, r5, r6, r7}
    3eaa:	b40c      	push	{r2, r3}
    3eac:	f7fd f982 	bl	11b4 <rt_stk_check>
    3eb0:	bc0c      	pop	{r2, r3}
    3eb2:	601a      	str	r2, [r3, #0]
    3eb4:	6ad0      	ldr	r0, [r2, #44]	; 0x2c
    3eb6:	3010      	adds	r0, #16
    3eb8:	c8f0      	ldmia	r0!, {r4, r5, r6, r7}
    3eba:	46a0      	mov	r8, r4
    3ebc:	46a9      	mov	r9, r5
    3ebe:	46b2      	mov	r10, r6
    3ec0:	46bb      	mov	r11, r7
    3ec2:	f380 8809 	msr	PSP, r0
    3ec6:	3820      	subs	r0, #32
    3ec8:	c8f0      	ldmia	r0!, {r4, r5, r6, r7}

00003eca <Sys_Exit>:
    3eca:	2002      	movs	r0, #2
    3ecc:	43c0      	mvns	r0, r0
    3ece:	4700      	bx	r0

00003ed0 <SysTick_Handler>:
    3ed0:	f7fd f952 	bl	1178 <rt_systick>
    3ed4:	e7da      	b.n	3e8c <Sys_Switch>

00003ed6 <OS_Tick_Handler>:
    3ed6:	f7fd f94d 	bl	1174 <os_tick_irqack>
    3eda:	f7fd f94d 	bl	1178 <rt_systick>
    3ede:	e7d5      	b.n	3e8c <Sys_Switch>
    3ee0:	000072ea 	.word	0x000072ea
    3ee4:	00001227 	.word	0x00001227
    3ee8:	00001245 	.word	0x00001245
    3eec:	20000e0c 	.word	0x20000e0c
    3ef0:	00000000 	.word	0x00000000
    3ef4:	fffffffc 	.word	0xfffffffc
    3ef8:	e7fe      	b.n	3ef8 <OS_Tick_Handler+0x22>

00003efa <HardFault_Handler>:
    3efa:	e7fe      	b.n	3efa <HardFault_Handler>
    3efc:	e7fe      	b.n	3efc <HardFault_Handler+0x2>
    3efe:	e7fe      	b.n	3efe <HardFault_Handler+0x4>
    3f00:	e7fe      	b.n	3f00 <HardFault_Handler+0x6>

00003f02 <ADC0_IRQHandler>:
    3f02:	e7fe      	b.n	3f02 <ADC0_IRQHandler>

00003f04 <__gnu_thumb1_case_uqi>:
    3f04:	b402      	push	{r1}
    3f06:	4671      	mov	r1, lr
    3f08:	0849      	lsrs	r1, r1, #1
    3f0a:	0049      	lsls	r1, r1, #1
    3f0c:	5c09      	ldrb	r1, [r1, r0]
    3f0e:	0049      	lsls	r1, r1, #1
    3f10:	448e      	add	lr, r1
    3f12:	bc02      	pop	{r1}
    3f14:	4770      	bx	lr
    3f16:	46c0      	nop			; (mov r8, r8)

00003f18 <__udivsi3>:
    3f18:	2200      	movs	r2, #0
    3f1a:	0843      	lsrs	r3, r0, #1
    3f1c:	428b      	cmp	r3, r1
    3f1e:	d374      	bcc.n	400a <__udivsi3+0xf2>
    3f20:	0903      	lsrs	r3, r0, #4
    3f22:	428b      	cmp	r3, r1
    3f24:	d35f      	bcc.n	3fe6 <__udivsi3+0xce>
    3f26:	0a03      	lsrs	r3, r0, #8
    3f28:	428b      	cmp	r3, r1
    3f2a:	d344      	bcc.n	3fb6 <__udivsi3+0x9e>
    3f2c:	0b03      	lsrs	r3, r0, #12
    3f2e:	428b      	cmp	r3, r1
    3f30:	d328      	bcc.n	3f84 <__udivsi3+0x6c>
    3f32:	0c03      	lsrs	r3, r0, #16
    3f34:	428b      	cmp	r3, r1
    3f36:	d30d      	bcc.n	3f54 <__udivsi3+0x3c>
    3f38:	22ff      	movs	r2, #255	; 0xff
    3f3a:	0209      	lsls	r1, r1, #8
    3f3c:	ba12      	rev	r2, r2
    3f3e:	0c03      	lsrs	r3, r0, #16
    3f40:	428b      	cmp	r3, r1
    3f42:	d302      	bcc.n	3f4a <__udivsi3+0x32>
    3f44:	1212      	asrs	r2, r2, #8
    3f46:	0209      	lsls	r1, r1, #8
    3f48:	d065      	beq.n	4016 <__udivsi3+0xfe>
    3f4a:	0b03      	lsrs	r3, r0, #12
    3f4c:	428b      	cmp	r3, r1
    3f4e:	d319      	bcc.n	3f84 <__udivsi3+0x6c>
    3f50:	e000      	b.n	3f54 <__udivsi3+0x3c>
    3f52:	0a09      	lsrs	r1, r1, #8
    3f54:	0bc3      	lsrs	r3, r0, #15
    3f56:	428b      	cmp	r3, r1
    3f58:	d301      	bcc.n	3f5e <__udivsi3+0x46>
    3f5a:	03cb      	lsls	r3, r1, #15
    3f5c:	1ac0      	subs	r0, r0, r3
    3f5e:	4152      	adcs	r2, r2
    3f60:	0b83      	lsrs	r3, r0, #14
    3f62:	428b      	cmp	r3, r1
    3f64:	d301      	bcc.n	3f6a <__udivsi3+0x52>
    3f66:	038b      	lsls	r3, r1, #14
    3f68:	1ac0      	subs	r0, r0, r3
    3f6a:	4152      	adcs	r2, r2
    3f6c:	0b43      	lsrs	r3, r0, #13
    3f6e:	428b      	cmp	r3, r1
    3f70:	d301      	bcc.n	3f76 <__udivsi3+0x5e>
    3f72:	034b      	lsls	r3, r1, #13
    3f74:	1ac0      	subs	r0, r0, r3
    3f76:	4152      	adcs	r2, r2
    3f78:	0b03      	lsrs	r3, r0, #12
    3f7a:	428b      	cmp	r3, r1
    3f7c:	d301      	bcc.n	3f82 <__udivsi3+0x6a>
    3f7e:	030b      	lsls	r3, r1, #12
    3f80:	1ac0      	subs	r0, r0, r3
    3f82:	4152      	adcs	r2, r2
    3f84:	0ac3      	lsrs	r3, r0, #11
    3f86:	428b      	cmp	r3, r1
    3f88:	d301      	bcc.n	3f8e <__udivsi3+0x76>
    3f8a:	02cb      	lsls	r3, r1, #11
    3f8c:	1ac0      	subs	r0, r0, r3
    3f8e:	4152      	adcs	r2, r2
    3f90:	0a83      	lsrs	r3, r0, #10
    3f92:	428b      	cmp	r3, r1
    3f94:	d301      	bcc.n	3f9a <__udivsi3+0x82>
    3f96:	028b      	lsls	r3, r1, #10
    3f98:	1ac0      	subs	r0, r0, r3
    3f9a:	4152      	adcs	r2, r2
    3f9c:	0a43      	lsrs	r3, r0, #9
    3f9e:	428b      	cmp	r3, r1
    3fa0:	d301      	bcc.n	3fa6 <__udivsi3+0x8e>
    3fa2:	024b      	lsls	r3, r1, #9
    3fa4:	1ac0      	subs	r0, r0, r3
    3fa6:	4152      	adcs	r2, r2
    3fa8:	0a03      	lsrs	r3, r0, #8
    3faa:	428b      	cmp	r3, r1
    3fac:	d301      	bcc.n	3fb2 <__udivsi3+0x9a>
    3fae:	020b      	lsls	r3, r1, #8
    3fb0:	1ac0      	subs	r0, r0, r3
    3fb2:	4152      	adcs	r2, r2
    3fb4:	d2cd      	bcs.n	3f52 <__udivsi3+0x3a>
    3fb6:	09c3      	lsrs	r3, r0, #7
    3fb8:	428b      	cmp	r3, r1
    3fba:	d301      	bcc.n	3fc0 <__udivsi3+0xa8>
    3fbc:	01cb      	lsls	r3, r1, #7
    3fbe:	1ac0      	subs	r0, r0, r3
    3fc0:	4152      	adcs	r2, r2
    3fc2:	0983      	lsrs	r3, r0, #6
    3fc4:	428b      	cmp	r3, r1
    3fc6:	d301      	bcc.n	3fcc <__udivsi3+0xb4>
    3fc8:	018b      	lsls	r3, r1, #6
    3fca:	1ac0      	subs	r0, r0, r3
    3fcc:	4152      	adcs	r2, r2
    3fce:	0943      	lsrs	r3, r0, #5
    3fd0:	428b      	cmp	r3, r1
    3fd2:	d301      	bcc.n	3fd8 <__udivsi3+0xc0>
    3fd4:	014b      	lsls	r3, r1, #5
    3fd6:	1ac0      	subs	r0, r0, r3
    3fd8:	4152      	adcs	r2, r2
    3fda:	0903      	lsrs	r3, r0, #4
    3fdc:	428b      	cmp	r3, r1
    3fde:	d301      	bcc.n	3fe4 <__udivsi3+0xcc>
    3fe0:	010b      	lsls	r3, r1, #4
    3fe2:	1ac0      	subs	r0, r0, r3
    3fe4:	4152      	adcs	r2, r2
    3fe6:	08c3      	lsrs	r3, r0, #3
    3fe8:	428b      	cmp	r3, r1
    3fea:	d301      	bcc.n	3ff0 <__udivsi3+0xd8>
    3fec:	00cb      	lsls	r3, r1, #3
    3fee:	1ac0      	subs	r0, r0, r3
    3ff0:	4152      	adcs	r2, r2
    3ff2:	0883      	lsrs	r3, r0, #2
    3ff4:	428b      	cmp	r3, r1
    3ff6:	d301      	bcc.n	3ffc <__udivsi3+0xe4>
    3ff8:	008b      	lsls	r3, r1, #2
    3ffa:	1ac0      	subs	r0, r0, r3
    3ffc:	4152      	adcs	r2, r2
    3ffe:	0843      	lsrs	r3, r0, #1
    4000:	428b      	cmp	r3, r1
    4002:	d301      	bcc.n	4008 <__udivsi3+0xf0>
    4004:	004b      	lsls	r3, r1, #1
    4006:	1ac0      	subs	r0, r0, r3
    4008:	4152      	adcs	r2, r2
    400a:	1a41      	subs	r1, r0, r1
    400c:	d200      	bcs.n	4010 <__udivsi3+0xf8>
    400e:	4601      	mov	r1, r0
    4010:	4152      	adcs	r2, r2
    4012:	4610      	mov	r0, r2
    4014:	4770      	bx	lr
    4016:	e7ff      	b.n	4018 <__udivsi3+0x100>
    4018:	b501      	push	{r0, lr}
    401a:	2000      	movs	r0, #0
    401c:	f000 f8f0 	bl	4200 <__aeabi_idiv0>
    4020:	bd02      	pop	{r1, pc}
    4022:	46c0      	nop			; (mov r8, r8)

00004024 <__aeabi_uidivmod>:
    4024:	2900      	cmp	r1, #0
    4026:	d0f7      	beq.n	4018 <__udivsi3+0x100>
    4028:	e776      	b.n	3f18 <__udivsi3>
    402a:	4770      	bx	lr

0000402c <__divsi3>:
    402c:	4603      	mov	r3, r0
    402e:	430b      	orrs	r3, r1
    4030:	d47f      	bmi.n	4132 <__divsi3+0x106>
    4032:	2200      	movs	r2, #0
    4034:	0843      	lsrs	r3, r0, #1
    4036:	428b      	cmp	r3, r1
    4038:	d374      	bcc.n	4124 <__divsi3+0xf8>
    403a:	0903      	lsrs	r3, r0, #4
    403c:	428b      	cmp	r3, r1
    403e:	d35f      	bcc.n	4100 <__divsi3+0xd4>
    4040:	0a03      	lsrs	r3, r0, #8
    4042:	428b      	cmp	r3, r1
    4044:	d344      	bcc.n	40d0 <__divsi3+0xa4>
    4046:	0b03      	lsrs	r3, r0, #12
    4048:	428b      	cmp	r3, r1
    404a:	d328      	bcc.n	409e <__divsi3+0x72>
    404c:	0c03      	lsrs	r3, r0, #16
    404e:	428b      	cmp	r3, r1
    4050:	d30d      	bcc.n	406e <__divsi3+0x42>
    4052:	22ff      	movs	r2, #255	; 0xff
    4054:	0209      	lsls	r1, r1, #8
    4056:	ba12      	rev	r2, r2
    4058:	0c03      	lsrs	r3, r0, #16
    405a:	428b      	cmp	r3, r1
    405c:	d302      	bcc.n	4064 <__divsi3+0x38>
    405e:	1212      	asrs	r2, r2, #8
    4060:	0209      	lsls	r1, r1, #8
    4062:	d065      	beq.n	4130 <__divsi3+0x104>
    4064:	0b03      	lsrs	r3, r0, #12
    4066:	428b      	cmp	r3, r1
    4068:	d319      	bcc.n	409e <__divsi3+0x72>
    406a:	e000      	b.n	406e <__divsi3+0x42>
    406c:	0a09      	lsrs	r1, r1, #8
    406e:	0bc3      	lsrs	r3, r0, #15
    4070:	428b      	cmp	r3, r1
    4072:	d301      	bcc.n	4078 <__divsi3+0x4c>
    4074:	03cb      	lsls	r3, r1, #15
    4076:	1ac0      	subs	r0, r0, r3
    4078:	4152      	adcs	r2, r2
    407a:	0b83      	lsrs	r3, r0, #14
    407c:	428b      	cmp	r3, r1
    407e:	d301      	bcc.n	4084 <__divsi3+0x58>
    4080:	038b      	lsls	r3, r1, #14
    4082:	1ac0      	subs	r0, r0, r3
    4084:	4152      	adcs	r2, r2
    4086:	0b43      	lsrs	r3, r0, #13
    4088:	428b      	cmp	r3, r1
    408a:	d301      	bcc.n	4090 <__divsi3+0x64>
    408c:	034b      	lsls	r3, r1, #13
    408e:	1ac0      	subs	r0, r0, r3
    4090:	4152      	adcs	r2, r2
    4092:	0b03      	lsrs	r3, r0, #12
    4094:	428b      	cmp	r3, r1
    4096:	d301      	bcc.n	409c <__divsi3+0x70>
    4098:	030b      	lsls	r3, r1, #12
    409a:	1ac0      	subs	r0, r0, r3
    409c:	4152      	adcs	r2, r2
    409e:	0ac3      	lsrs	r3, r0, #11
    40a0:	428b      	cmp	r3, r1
    40a2:	d301      	bcc.n	40a8 <__divsi3+0x7c>
    40a4:	02cb      	lsls	r3, r1, #11
    40a6:	1ac0      	subs	r0, r0, r3
    40a8:	4152      	adcs	r2, r2
    40aa:	0a83      	lsrs	r3, r0, #10
    40ac:	428b      	cmp	r3, r1
    40ae:	d301      	bcc.n	40b4 <__divsi3+0x88>
    40b0:	028b      	lsls	r3, r1, #10
    40b2:	1ac0      	subs	r0, r0, r3
    40b4:	4152      	adcs	r2, r2
    40b6:	0a43      	lsrs	r3, r0, #9
    40b8:	428b      	cmp	r3, r1
    40ba:	d301      	bcc.n	40c0 <__divsi3+0x94>
    40bc:	024b      	lsls	r3, r1, #9
    40be:	1ac0      	subs	r0, r0, r3
    40c0:	4152      	adcs	r2, r2
    40c2:	0a03      	lsrs	r3, r0, #8
    40c4:	428b      	cmp	r3, r1
    40c6:	d301      	bcc.n	40cc <__divsi3+0xa0>
    40c8:	020b      	lsls	r3, r1, #8
    40ca:	1ac0      	subs	r0, r0, r3
    40cc:	4152      	adcs	r2, r2
    40ce:	d2cd      	bcs.n	406c <__divsi3+0x40>
    40d0:	09c3      	lsrs	r3, r0, #7
    40d2:	428b      	cmp	r3, r1
    40d4:	d301      	bcc.n	40da <__divsi3+0xae>
    40d6:	01cb      	lsls	r3, r1, #7
    40d8:	1ac0      	subs	r0, r0, r3
    40da:	4152      	adcs	r2, r2
    40dc:	0983      	lsrs	r3, r0, #6
    40de:	428b      	cmp	r3, r1
    40e0:	d301      	bcc.n	40e6 <__divsi3+0xba>
    40e2:	018b      	lsls	r3, r1, #6
    40e4:	1ac0      	subs	r0, r0, r3
    40e6:	4152      	adcs	r2, r2
    40e8:	0943      	lsrs	r3, r0, #5
    40ea:	428b      	cmp	r3, r1
    40ec:	d301      	bcc.n	40f2 <__divsi3+0xc6>
    40ee:	014b      	lsls	r3, r1, #5
    40f0:	1ac0      	subs	r0, r0, r3
    40f2:	4152      	adcs	r2, r2
    40f4:	0903      	lsrs	r3, r0, #4
    40f6:	428b      	cmp	r3, r1
    40f8:	d301      	bcc.n	40fe <__divsi3+0xd2>
    40fa:	010b      	lsls	r3, r1, #4
    40fc:	1ac0      	subs	r0, r0, r3
    40fe:	4152      	adcs	r2, r2
    4100:	08c3      	lsrs	r3, r0, #3
    4102:	428b      	cmp	r3, r1
    4104:	d301      	bcc.n	410a <__divsi3+0xde>
    4106:	00cb      	lsls	r3, r1, #3
    4108:	1ac0      	subs	r0, r0, r3
    410a:	4152      	adcs	r2, r2
    410c:	0883      	lsrs	r3, r0, #2
    410e:	428b      	cmp	r3, r1
    4110:	d301      	bcc.n	4116 <__divsi3+0xea>
    4112:	008b      	lsls	r3, r1, #2
    4114:	1ac0      	subs	r0, r0, r3
    4116:	4152      	adcs	r2, r2
    4118:	0843      	lsrs	r3, r0, #1
    411a:	428b      	cmp	r3, r1
    411c:	d301      	bcc.n	4122 <__divsi3+0xf6>
    411e:	004b      	lsls	r3, r1, #1
    4120:	1ac0      	subs	r0, r0, r3
    4122:	4152      	adcs	r2, r2
    4124:	1a41      	subs	r1, r0, r1
    4126:	d200      	bcs.n	412a <__divsi3+0xfe>
    4128:	4601      	mov	r1, r0
    412a:	4152      	adcs	r2, r2
    412c:	4610      	mov	r0, r2
    412e:	4770      	bx	lr
    4130:	e05d      	b.n	41ee <__divsi3+0x1c2>
    4132:	0fca      	lsrs	r2, r1, #31
    4134:	d000      	beq.n	4138 <__divsi3+0x10c>
    4136:	4249      	negs	r1, r1
    4138:	1003      	asrs	r3, r0, #32
    413a:	d300      	bcc.n	413e <__divsi3+0x112>
    413c:	4240      	negs	r0, r0
    413e:	4053      	eors	r3, r2
    4140:	2200      	movs	r2, #0
    4142:	469c      	mov	r12, r3
    4144:	0903      	lsrs	r3, r0, #4
    4146:	428b      	cmp	r3, r1
    4148:	d32d      	bcc.n	41a6 <__divsi3+0x17a>
    414a:	0a03      	lsrs	r3, r0, #8
    414c:	428b      	cmp	r3, r1
    414e:	d312      	bcc.n	4176 <__divsi3+0x14a>
    4150:	22fc      	movs	r2, #252	; 0xfc
    4152:	0189      	lsls	r1, r1, #6
    4154:	ba12      	rev	r2, r2
    4156:	0a03      	lsrs	r3, r0, #8
    4158:	428b      	cmp	r3, r1
    415a:	d30c      	bcc.n	4176 <__divsi3+0x14a>
    415c:	0189      	lsls	r1, r1, #6
    415e:	1192      	asrs	r2, r2, #6
    4160:	428b      	cmp	r3, r1
    4162:	d308      	bcc.n	4176 <__divsi3+0x14a>
    4164:	0189      	lsls	r1, r1, #6
    4166:	1192      	asrs	r2, r2, #6
    4168:	428b      	cmp	r3, r1
    416a:	d304      	bcc.n	4176 <__divsi3+0x14a>
    416c:	0189      	lsls	r1, r1, #6
    416e:	d03a      	beq.n	41e6 <__divsi3+0x1ba>
    4170:	1192      	asrs	r2, r2, #6
    4172:	e000      	b.n	4176 <__divsi3+0x14a>
    4174:	0989      	lsrs	r1, r1, #6
    4176:	09c3      	lsrs	r3, r0, #7
    4178:	428b      	cmp	r3, r1
    417a:	d301      	bcc.n	4180 <__divsi3+0x154>
    417c:	01cb      	lsls	r3, r1, #7
    417e:	1ac0      	subs	r0, r0, r3
    4180:	4152      	adcs	r2, r2
    4182:	0983      	lsrs	r3, r0, #6
    4184:	428b      	cmp	r3, r1
    4186:	d301      	bcc.n	418c <__divsi3+0x160>
    4188:	018b      	lsls	r3, r1, #6
    418a:	1ac0      	subs	r0, r0, r3
    418c:	4152      	adcs	r2, r2
    418e:	0943      	lsrs	r3, r0, #5
    4190:	428b      	cmp	r3, r1
    4192:	d301      	bcc.n	4198 <__divsi3+0x16c>
    4194:	014b      	lsls	r3, r1, #5
    4196:	1ac0      	subs	r0, r0, r3
    4198:	4152      	adcs	r2, r2
    419a:	0903      	lsrs	r3, r0, #4
    419c:	428b      	cmp	r3, r1
    419e:	d301      	bcc.n	41a4 <__divsi3+0x178>
    41a0:	010b      	lsls	r3, r1, #4
    41a2:	1ac0      	subs	r0, r0, r3
    41a4:	4152      	adcs	r2, r2
    41a6:	08c3      	lsrs	r3, r0, #3
    41a8:	428b      	cmp	r3, r1
    41aa:	d301      	bcc.n	41b0 <__divsi3+0x184>
    41ac:	00cb      	lsls	r3, r1, #3
    41ae:	1ac0      	subs	r0, r0, r3
    41b0:	4152      	adcs	r2, r2
    41b2:	0883      	lsrs	r3, r0, #2
    41b4:	428b      	cmp	r3, r1
    41b6:	d301      	bcc.n	41bc <__divsi3+0x190>
    41b8:	008b      	lsls	r3, r1, #2
    41ba:	1ac0      	subs	r0, r0, r3
    41bc:	4152      	adcs	r2, r2
    41be:	d2d9      	bcs.n	4174 <__divsi3+0x148>
    41c0:	0843      	lsrs	r3, r0, #1
    41c2:	428b      	cmp	r3, r1
    41c4:	d301      	bcc.n	41ca <__divsi3+0x19e>
    41c6:	004b      	lsls	r3, r1, #1
    41c8:	1ac0      	subs	r0, r0, r3
    41ca:	4152      	adcs	r2, r2
    41cc:	1a41      	subs	r1, r0, r1
    41ce:	d200      	bcs.n	41d2 <__divsi3+0x1a6>
    41d0:	4601      	mov	r1, r0
    41d2:	4663      	mov	r3, r12
    41d4:	4152      	adcs	r2, r2
    41d6:	105b      	asrs	r3, r3, #1
    41d8:	4610      	mov	r0, r2
    41da:	d301      	bcc.n	41e0 <__divsi3+0x1b4>
    41dc:	4240      	negs	r0, r0
    41de:	2b00      	cmp	r3, #0
    41e0:	d500      	bpl.n	41e4 <__divsi3+0x1b8>
    41e2:	4249      	negs	r1, r1
    41e4:	4770      	bx	lr
    41e6:	4663      	mov	r3, r12
    41e8:	105b      	asrs	r3, r3, #1
    41ea:	d300      	bcc.n	41ee <__divsi3+0x1c2>
    41ec:	4240      	negs	r0, r0
    41ee:	b501      	push	{r0, lr}
    41f0:	2000      	movs	r0, #0
    41f2:	f000 f805 	bl	4200 <__aeabi_idiv0>
    41f6:	bd02      	pop	{r1, pc}

000041f8 <__aeabi_idivmod>:
    41f8:	2900      	cmp	r1, #0
    41fa:	d0f8      	beq.n	41ee <__divsi3+0x1c2>
    41fc:	e716      	b.n	402c <__divsi3>
    41fe:	4770      	bx	lr

00004200 <__aeabi_idiv0>:
    4200:	4770      	bx	lr
    4202:	46c0      	nop			; (mov r8, r8)

00004204 <__aeabi_cfrcmple>:
    4204:	4684      	mov	r12, r0
    4206:	1c08      	adds	r0, r1, #0
    4208:	4661      	mov	r1, r12
    420a:	e7ff      	b.n	420c <__aeabi_cfcmpeq>

0000420c <__aeabi_cfcmpeq>:
    420c:	b51f      	push	{r0, r1, r2, r3, r4, lr}
    420e:	f000 f9f9 	bl	4604 <__lesf2>
    4212:	2800      	cmp	r0, #0
    4214:	d401      	bmi.n	421a <__aeabi_cfcmpeq+0xe>
    4216:	2100      	movs	r1, #0
    4218:	42c8      	cmn	r0, r1
    421a:	bd1f      	pop	{r0, r1, r2, r3, r4, pc}

0000421c <__aeabi_fcmpeq>:
    421c:	b510      	push	{r4, lr}
    421e:	f000 f98b 	bl	4538 <__eqsf2>
    4222:	4240      	negs	r0, r0
    4224:	3001      	adds	r0, #1
    4226:	bd10      	pop	{r4, pc}

00004228 <__aeabi_fcmplt>:
    4228:	b510      	push	{r4, lr}
    422a:	f000 f9eb 	bl	4604 <__lesf2>
    422e:	2800      	cmp	r0, #0
    4230:	db01      	blt.n	4236 <__aeabi_fcmplt+0xe>
    4232:	2000      	movs	r0, #0
    4234:	bd10      	pop	{r4, pc}
    4236:	2001      	movs	r0, #1
    4238:	bd10      	pop	{r4, pc}
    423a:	46c0      	nop			; (mov r8, r8)

0000423c <__aeabi_fcmple>:
    423c:	b510      	push	{r4, lr}
    423e:	f000 f9e1 	bl	4604 <__lesf2>
    4242:	2800      	cmp	r0, #0
    4244:	dd01      	ble.n	424a <__aeabi_fcmple+0xe>
    4246:	2000      	movs	r0, #0
    4248:	bd10      	pop	{r4, pc}
    424a:	2001      	movs	r0, #1
    424c:	bd10      	pop	{r4, pc}
    424e:	46c0      	nop			; (mov r8, r8)

00004250 <__aeabi_fcmpgt>:
    4250:	b510      	push	{r4, lr}
    4252:	f000 f997 	bl	4584 <__gesf2>
    4256:	2800      	cmp	r0, #0
    4258:	dc01      	bgt.n	425e <__aeabi_fcmpgt+0xe>
    425a:	2000      	movs	r0, #0
    425c:	bd10      	pop	{r4, pc}
    425e:	2001      	movs	r0, #1
    4260:	bd10      	pop	{r4, pc}
    4262:	46c0      	nop			; (mov r8, r8)

00004264 <__aeabi_fcmpge>:
    4264:	b510      	push	{r4, lr}
    4266:	f000 f98d 	bl	4584 <__gesf2>
    426a:	2800      	cmp	r0, #0
    426c:	da01      	bge.n	4272 <__aeabi_fcmpge+0xe>
    426e:	2000      	movs	r0, #0
    4270:	bd10      	pop	{r4, pc}
    4272:	2001      	movs	r0, #1
    4274:	bd10      	pop	{r4, pc}
    4276:	46c0      	nop			; (mov r8, r8)

00004278 <__aeabi_f2uiz>:
    4278:	219e      	movs	r1, #158	; 0x9e
    427a:	b510      	push	{r4, lr}
    427c:	05c9      	lsls	r1, r1, #23
    427e:	1c04      	adds	r4, r0, #0
    4280:	f7ff fff0 	bl	4264 <__aeabi_fcmpge>
    4284:	2800      	cmp	r0, #0
    4286:	d103      	bne.n	4290 <__aeabi_f2uiz+0x18>
    4288:	1c20      	adds	r0, r4, #0
    428a:	f000 fcb9 	bl	4c00 <__aeabi_f2iz>
    428e:	bd10      	pop	{r4, pc}
    4290:	219e      	movs	r1, #158	; 0x9e
    4292:	1c20      	adds	r0, r4, #0
    4294:	05c9      	lsls	r1, r1, #23
    4296:	f000 fb17 	bl	48c8 <__aeabi_fsub>
    429a:	f000 fcb1 	bl	4c00 <__aeabi_f2iz>
    429e:	2380      	movs	r3, #128	; 0x80
    42a0:	061b      	lsls	r3, r3, #24
    42a2:	469c      	mov	r12, r3
    42a4:	4460      	add	r0, r12
    42a6:	e7f2      	b.n	428e <__aeabi_f2uiz+0x16>

000042a8 <__aeabi_fdiv>:
    42a8:	b5f0      	push	{r4, r5, r6, r7, lr}
    42aa:	4657      	mov	r7, r10
    42ac:	464e      	mov	r6, r9
    42ae:	46de      	mov	lr, r11
    42b0:	4645      	mov	r5, r8
    42b2:	b5e0      	push	{r5, r6, r7, lr}
    42b4:	0244      	lsls	r4, r0, #9
    42b6:	0043      	lsls	r3, r0, #1
    42b8:	0fc6      	lsrs	r6, r0, #31
    42ba:	b083      	sub	sp, #12
    42bc:	1c0f      	adds	r7, r1, #0
    42be:	0a64      	lsrs	r4, r4, #9
    42c0:	0e1b      	lsrs	r3, r3, #24
    42c2:	46b2      	mov	r10, r6
    42c4:	d053      	beq.n	436e <__aeabi_fdiv+0xc6>
    42c6:	2bff      	cmp	r3, #255	; 0xff
    42c8:	d027      	beq.n	431a <__aeabi_fdiv+0x72>
    42ca:	2280      	movs	r2, #128	; 0x80
    42cc:	00e4      	lsls	r4, r4, #3
    42ce:	04d2      	lsls	r2, r2, #19
    42d0:	4314      	orrs	r4, r2
    42d2:	227f      	movs	r2, #127	; 0x7f
    42d4:	4252      	negs	r2, r2
    42d6:	4690      	mov	r8, r2
    42d8:	4498      	add	r8, r3
    42da:	2300      	movs	r3, #0
    42dc:	4699      	mov	r9, r3
    42de:	469b      	mov	r11, r3
    42e0:	027d      	lsls	r5, r7, #9
    42e2:	0078      	lsls	r0, r7, #1
    42e4:	0ffb      	lsrs	r3, r7, #31
    42e6:	0a6d      	lsrs	r5, r5, #9
    42e8:	0e00      	lsrs	r0, r0, #24
    42ea:	9300      	str	r3, [sp, #0]
    42ec:	d024      	beq.n	4338 <__aeabi_fdiv+0x90>
    42ee:	28ff      	cmp	r0, #255	; 0xff
    42f0:	d046      	beq.n	4380 <__aeabi_fdiv+0xd8>
    42f2:	2380      	movs	r3, #128	; 0x80
    42f4:	2100      	movs	r1, #0
    42f6:	00ed      	lsls	r5, r5, #3
    42f8:	04db      	lsls	r3, r3, #19
    42fa:	431d      	orrs	r5, r3
    42fc:	387f      	subs	r0, #127	; 0x7f
    42fe:	4647      	mov	r7, r8
    4300:	1a38      	subs	r0, r7, r0
    4302:	464f      	mov	r7, r9
    4304:	430f      	orrs	r7, r1
    4306:	00bf      	lsls	r7, r7, #2
    4308:	46b9      	mov	r9, r7
    430a:	0033      	movs	r3, r6
    430c:	9a00      	ldr	r2, [sp, #0]
    430e:	4f87      	ldr	r7, [pc, #540]	; (452c <__aeabi_fdiv+0x284>)
    4310:	4053      	eors	r3, r2
    4312:	464a      	mov	r2, r9
    4314:	58ba      	ldr	r2, [r7, r2]
    4316:	9301      	str	r3, [sp, #4]
    4318:	4697      	mov	pc, r2
    431a:	2c00      	cmp	r4, #0
    431c:	d14e      	bne.n	43bc <__aeabi_fdiv+0x114>
    431e:	2308      	movs	r3, #8
    4320:	4699      	mov	r9, r3
    4322:	33f7      	adds	r3, #247	; 0xf7
    4324:	4698      	mov	r8, r3
    4326:	3bfd      	subs	r3, #253	; 0xfd
    4328:	469b      	mov	r11, r3
    432a:	027d      	lsls	r5, r7, #9
    432c:	0078      	lsls	r0, r7, #1
    432e:	0ffb      	lsrs	r3, r7, #31
    4330:	0a6d      	lsrs	r5, r5, #9
    4332:	0e00      	lsrs	r0, r0, #24
    4334:	9300      	str	r3, [sp, #0]
    4336:	d1da      	bne.n	42ee <__aeabi_fdiv+0x46>
    4338:	2d00      	cmp	r5, #0
    433a:	d126      	bne.n	438a <__aeabi_fdiv+0xe2>
    433c:	2000      	movs	r0, #0
    433e:	2101      	movs	r1, #1
    4340:	0033      	movs	r3, r6
    4342:	9a00      	ldr	r2, [sp, #0]
    4344:	4f7a      	ldr	r7, [pc, #488]	; (4530 <__aeabi_fdiv+0x288>)
    4346:	4053      	eors	r3, r2
    4348:	4642      	mov	r2, r8
    434a:	1a10      	subs	r0, r2, r0
    434c:	464a      	mov	r2, r9
    434e:	430a      	orrs	r2, r1
    4350:	0092      	lsls	r2, r2, #2
    4352:	58ba      	ldr	r2, [r7, r2]
    4354:	001d      	movs	r5, r3
    4356:	4697      	mov	pc, r2
    4358:	9b00      	ldr	r3, [sp, #0]
    435a:	002c      	movs	r4, r5
    435c:	469a      	mov	r10, r3
    435e:	468b      	mov	r11, r1
    4360:	465b      	mov	r3, r11
    4362:	2b02      	cmp	r3, #2
    4364:	d131      	bne.n	43ca <__aeabi_fdiv+0x122>
    4366:	4653      	mov	r3, r10
    4368:	21ff      	movs	r1, #255	; 0xff
    436a:	2400      	movs	r4, #0
    436c:	e038      	b.n	43e0 <__aeabi_fdiv+0x138>
    436e:	2c00      	cmp	r4, #0
    4370:	d117      	bne.n	43a2 <__aeabi_fdiv+0xfa>
    4372:	2304      	movs	r3, #4
    4374:	4699      	mov	r9, r3
    4376:	2300      	movs	r3, #0
    4378:	4698      	mov	r8, r3
    437a:	3301      	adds	r3, #1
    437c:	469b      	mov	r11, r3
    437e:	e7af      	b.n	42e0 <__aeabi_fdiv+0x38>
    4380:	20ff      	movs	r0, #255	; 0xff
    4382:	2d00      	cmp	r5, #0
    4384:	d10b      	bne.n	439e <__aeabi_fdiv+0xf6>
    4386:	2102      	movs	r1, #2
    4388:	e7da      	b.n	4340 <__aeabi_fdiv+0x98>
    438a:	0028      	movs	r0, r5
    438c:	f000 fcee 	bl	4d6c <__clzsi2>
    4390:	1f43      	subs	r3, r0, #5
    4392:	409d      	lsls	r5, r3
    4394:	2376      	movs	r3, #118	; 0x76
    4396:	425b      	negs	r3, r3
    4398:	1a18      	subs	r0, r3, r0
    439a:	2100      	movs	r1, #0
    439c:	e7af      	b.n	42fe <__aeabi_fdiv+0x56>
    439e:	2103      	movs	r1, #3
    43a0:	e7ad      	b.n	42fe <__aeabi_fdiv+0x56>
    43a2:	0020      	movs	r0, r4
    43a4:	f000 fce2 	bl	4d6c <__clzsi2>
    43a8:	1f43      	subs	r3, r0, #5
    43aa:	409c      	lsls	r4, r3
    43ac:	2376      	movs	r3, #118	; 0x76
    43ae:	425b      	negs	r3, r3
    43b0:	1a1b      	subs	r3, r3, r0
    43b2:	4698      	mov	r8, r3
    43b4:	2300      	movs	r3, #0
    43b6:	4699      	mov	r9, r3
    43b8:	469b      	mov	r11, r3
    43ba:	e791      	b.n	42e0 <__aeabi_fdiv+0x38>
    43bc:	230c      	movs	r3, #12
    43be:	4699      	mov	r9, r3
    43c0:	33f3      	adds	r3, #243	; 0xf3
    43c2:	4698      	mov	r8, r3
    43c4:	3bfc      	subs	r3, #252	; 0xfc
    43c6:	469b      	mov	r11, r3
    43c8:	e78a      	b.n	42e0 <__aeabi_fdiv+0x38>
    43ca:	2b03      	cmp	r3, #3
    43cc:	d100      	bne.n	43d0 <__aeabi_fdiv+0x128>
    43ce:	e0a5      	b.n	451c <__aeabi_fdiv+0x274>
    43d0:	4655      	mov	r5, r10
    43d2:	2b01      	cmp	r3, #1
    43d4:	d000      	beq.n	43d8 <__aeabi_fdiv+0x130>
    43d6:	e081      	b.n	44dc <__aeabi_fdiv+0x234>
    43d8:	2301      	movs	r3, #1
    43da:	2100      	movs	r1, #0
    43dc:	2400      	movs	r4, #0
    43de:	402b      	ands	r3, r5
    43e0:	0264      	lsls	r4, r4, #9
    43e2:	05c9      	lsls	r1, r1, #23
    43e4:	0a60      	lsrs	r0, r4, #9
    43e6:	07db      	lsls	r3, r3, #31
    43e8:	4308      	orrs	r0, r1
    43ea:	4318      	orrs	r0, r3
    43ec:	b003      	add	sp, #12
    43ee:	bc3c      	pop	{r2, r3, r4, r5}
    43f0:	4690      	mov	r8, r2
    43f2:	4699      	mov	r9, r3
    43f4:	46a2      	mov	r10, r4
    43f6:	46ab      	mov	r11, r5
    43f8:	bdf0      	pop	{r4, r5, r6, r7, pc}
    43fa:	2480      	movs	r4, #128	; 0x80
    43fc:	2300      	movs	r3, #0
    43fe:	03e4      	lsls	r4, r4, #15
    4400:	21ff      	movs	r1, #255	; 0xff
    4402:	e7ed      	b.n	43e0 <__aeabi_fdiv+0x138>
    4404:	21ff      	movs	r1, #255	; 0xff
    4406:	2400      	movs	r4, #0
    4408:	e7ea      	b.n	43e0 <__aeabi_fdiv+0x138>
    440a:	2301      	movs	r3, #1
    440c:	1a59      	subs	r1, r3, r1
    440e:	291b      	cmp	r1, #27
    4410:	dd66      	ble.n	44e0 <__aeabi_fdiv+0x238>
    4412:	9a01      	ldr	r2, [sp, #4]
    4414:	4013      	ands	r3, r2
    4416:	2100      	movs	r1, #0
    4418:	2400      	movs	r4, #0
    441a:	e7e1      	b.n	43e0 <__aeabi_fdiv+0x138>
    441c:	2380      	movs	r3, #128	; 0x80
    441e:	03db      	lsls	r3, r3, #15
    4420:	421c      	tst	r4, r3
    4422:	d038      	beq.n	4496 <__aeabi_fdiv+0x1ee>
    4424:	421d      	tst	r5, r3
    4426:	d051      	beq.n	44cc <__aeabi_fdiv+0x224>
    4428:	431c      	orrs	r4, r3
    442a:	0264      	lsls	r4, r4, #9
    442c:	0a64      	lsrs	r4, r4, #9
    442e:	0033      	movs	r3, r6
    4430:	21ff      	movs	r1, #255	; 0xff
    4432:	e7d5      	b.n	43e0 <__aeabi_fdiv+0x138>
    4434:	0163      	lsls	r3, r4, #5
    4436:	016c      	lsls	r4, r5, #5
    4438:	42a3      	cmp	r3, r4
    443a:	d23b      	bcs.n	44b4 <__aeabi_fdiv+0x20c>
    443c:	261b      	movs	r6, #27
    443e:	2100      	movs	r1, #0
    4440:	3801      	subs	r0, #1
    4442:	2501      	movs	r5, #1
    4444:	001f      	movs	r7, r3
    4446:	0049      	lsls	r1, r1, #1
    4448:	005b      	lsls	r3, r3, #1
    444a:	2f00      	cmp	r7, #0
    444c:	db01      	blt.n	4452 <__aeabi_fdiv+0x1aa>
    444e:	429c      	cmp	r4, r3
    4450:	d801      	bhi.n	4456 <__aeabi_fdiv+0x1ae>
    4452:	1b1b      	subs	r3, r3, r4
    4454:	4329      	orrs	r1, r5
    4456:	3e01      	subs	r6, #1
    4458:	2e00      	cmp	r6, #0
    445a:	d1f3      	bne.n	4444 <__aeabi_fdiv+0x19c>
    445c:	001c      	movs	r4, r3
    445e:	1e63      	subs	r3, r4, #1
    4460:	419c      	sbcs	r4, r3
    4462:	430c      	orrs	r4, r1
    4464:	0001      	movs	r1, r0
    4466:	317f      	adds	r1, #127	; 0x7f
    4468:	2900      	cmp	r1, #0
    446a:	ddce      	ble.n	440a <__aeabi_fdiv+0x162>
    446c:	0763      	lsls	r3, r4, #29
    446e:	d004      	beq.n	447a <__aeabi_fdiv+0x1d2>
    4470:	230f      	movs	r3, #15
    4472:	4023      	ands	r3, r4
    4474:	2b04      	cmp	r3, #4
    4476:	d000      	beq.n	447a <__aeabi_fdiv+0x1d2>
    4478:	3404      	adds	r4, #4
    447a:	0123      	lsls	r3, r4, #4
    447c:	d503      	bpl.n	4486 <__aeabi_fdiv+0x1de>
    447e:	0001      	movs	r1, r0
    4480:	4b2c      	ldr	r3, [pc, #176]	; (4534 <__aeabi_fdiv+0x28c>)
    4482:	3180      	adds	r1, #128	; 0x80
    4484:	401c      	ands	r4, r3
    4486:	29fe      	cmp	r1, #254	; 0xfe
    4488:	dd0d      	ble.n	44a6 <__aeabi_fdiv+0x1fe>
    448a:	2301      	movs	r3, #1
    448c:	9a01      	ldr	r2, [sp, #4]
    448e:	21ff      	movs	r1, #255	; 0xff
    4490:	4013      	ands	r3, r2
    4492:	2400      	movs	r4, #0
    4494:	e7a4      	b.n	43e0 <__aeabi_fdiv+0x138>
    4496:	2380      	movs	r3, #128	; 0x80
    4498:	03db      	lsls	r3, r3, #15
    449a:	431c      	orrs	r4, r3
    449c:	0264      	lsls	r4, r4, #9
    449e:	0a64      	lsrs	r4, r4, #9
    44a0:	0033      	movs	r3, r6
    44a2:	21ff      	movs	r1, #255	; 0xff
    44a4:	e79c      	b.n	43e0 <__aeabi_fdiv+0x138>
    44a6:	2301      	movs	r3, #1
    44a8:	9a01      	ldr	r2, [sp, #4]
    44aa:	01a4      	lsls	r4, r4, #6
    44ac:	0a64      	lsrs	r4, r4, #9
    44ae:	b2c9      	uxtb	r1, r1
    44b0:	4013      	ands	r3, r2
    44b2:	e795      	b.n	43e0 <__aeabi_fdiv+0x138>
    44b4:	1b1b      	subs	r3, r3, r4
    44b6:	261a      	movs	r6, #26
    44b8:	2101      	movs	r1, #1
    44ba:	e7c2      	b.n	4442 <__aeabi_fdiv+0x19a>
    44bc:	9b00      	ldr	r3, [sp, #0]
    44be:	468b      	mov	r11, r1
    44c0:	469a      	mov	r10, r3
    44c2:	2400      	movs	r4, #0
    44c4:	e74c      	b.n	4360 <__aeabi_fdiv+0xb8>
    44c6:	0263      	lsls	r3, r4, #9
    44c8:	d5e5      	bpl.n	4496 <__aeabi_fdiv+0x1ee>
    44ca:	2500      	movs	r5, #0
    44cc:	2480      	movs	r4, #128	; 0x80
    44ce:	03e4      	lsls	r4, r4, #15
    44d0:	432c      	orrs	r4, r5
    44d2:	0264      	lsls	r4, r4, #9
    44d4:	0a64      	lsrs	r4, r4, #9
    44d6:	9b00      	ldr	r3, [sp, #0]
    44d8:	21ff      	movs	r1, #255	; 0xff
    44da:	e781      	b.n	43e0 <__aeabi_fdiv+0x138>
    44dc:	9501      	str	r5, [sp, #4]
    44de:	e7c1      	b.n	4464 <__aeabi_fdiv+0x1bc>
    44e0:	0023      	movs	r3, r4
    44e2:	2020      	movs	r0, #32
    44e4:	40cb      	lsrs	r3, r1
    44e6:	1a41      	subs	r1, r0, r1
    44e8:	408c      	lsls	r4, r1
    44ea:	1e61      	subs	r1, r4, #1
    44ec:	418c      	sbcs	r4, r1
    44ee:	431c      	orrs	r4, r3
    44f0:	0763      	lsls	r3, r4, #29
    44f2:	d004      	beq.n	44fe <__aeabi_fdiv+0x256>
    44f4:	230f      	movs	r3, #15
    44f6:	4023      	ands	r3, r4
    44f8:	2b04      	cmp	r3, #4
    44fa:	d000      	beq.n	44fe <__aeabi_fdiv+0x256>
    44fc:	3404      	adds	r4, #4
    44fe:	0163      	lsls	r3, r4, #5
    4500:	d505      	bpl.n	450e <__aeabi_fdiv+0x266>
    4502:	2301      	movs	r3, #1
    4504:	9a01      	ldr	r2, [sp, #4]
    4506:	2101      	movs	r1, #1
    4508:	4013      	ands	r3, r2
    450a:	2400      	movs	r4, #0
    450c:	e768      	b.n	43e0 <__aeabi_fdiv+0x138>
    450e:	2301      	movs	r3, #1
    4510:	9a01      	ldr	r2, [sp, #4]
    4512:	01a4      	lsls	r4, r4, #6
    4514:	0a64      	lsrs	r4, r4, #9
    4516:	4013      	ands	r3, r2
    4518:	2100      	movs	r1, #0
    451a:	e761      	b.n	43e0 <__aeabi_fdiv+0x138>
    451c:	2380      	movs	r3, #128	; 0x80
    451e:	03db      	lsls	r3, r3, #15
    4520:	431c      	orrs	r4, r3
    4522:	0264      	lsls	r4, r4, #9
    4524:	0a64      	lsrs	r4, r4, #9
    4526:	4653      	mov	r3, r10
    4528:	21ff      	movs	r1, #255	; 0xff
    452a:	e759      	b.n	43e0 <__aeabi_fdiv+0x138>
    452c:	00007800 	.word	0x00007800
    4530:	00007840 	.word	0x00007840
    4534:	f7ffffff 	.word	0xf7ffffff

00004538 <__eqsf2>:
    4538:	b570      	push	{r4, r5, r6, lr}
    453a:	0042      	lsls	r2, r0, #1
    453c:	0245      	lsls	r5, r0, #9
    453e:	024e      	lsls	r6, r1, #9
    4540:	004c      	lsls	r4, r1, #1
    4542:	0fc3      	lsrs	r3, r0, #31
    4544:	0a6d      	lsrs	r5, r5, #9
    4546:	0e12      	lsrs	r2, r2, #24
    4548:	0a76      	lsrs	r6, r6, #9
    454a:	0e24      	lsrs	r4, r4, #24
    454c:	0fc9      	lsrs	r1, r1, #31
    454e:	2001      	movs	r0, #1
    4550:	2aff      	cmp	r2, #255	; 0xff
    4552:	d006      	beq.n	4562 <__eqsf2+0x2a>
    4554:	2cff      	cmp	r4, #255	; 0xff
    4556:	d003      	beq.n	4560 <__eqsf2+0x28>
    4558:	42a2      	cmp	r2, r4
    455a:	d101      	bne.n	4560 <__eqsf2+0x28>
    455c:	42b5      	cmp	r5, r6
    455e:	d006      	beq.n	456e <__eqsf2+0x36>
    4560:	bd70      	pop	{r4, r5, r6, pc}
    4562:	2d00      	cmp	r5, #0
    4564:	d1fc      	bne.n	4560 <__eqsf2+0x28>
    4566:	2cff      	cmp	r4, #255	; 0xff
    4568:	d1fa      	bne.n	4560 <__eqsf2+0x28>
    456a:	2e00      	cmp	r6, #0
    456c:	d1f8      	bne.n	4560 <__eqsf2+0x28>
    456e:	428b      	cmp	r3, r1
    4570:	d006      	beq.n	4580 <__eqsf2+0x48>
    4572:	2001      	movs	r0, #1
    4574:	2a00      	cmp	r2, #0
    4576:	d1f3      	bne.n	4560 <__eqsf2+0x28>
    4578:	0028      	movs	r0, r5
    457a:	1e45      	subs	r5, r0, #1
    457c:	41a8      	sbcs	r0, r5
    457e:	e7ef      	b.n	4560 <__eqsf2+0x28>
    4580:	2000      	movs	r0, #0
    4582:	e7ed      	b.n	4560 <__eqsf2+0x28>

00004584 <__gesf2>:
    4584:	b5f0      	push	{r4, r5, r6, r7, lr}
    4586:	0042      	lsls	r2, r0, #1
    4588:	0245      	lsls	r5, r0, #9
    458a:	024c      	lsls	r4, r1, #9
    458c:	0fc3      	lsrs	r3, r0, #31
    458e:	0048      	lsls	r0, r1, #1
    4590:	0a6d      	lsrs	r5, r5, #9
    4592:	0e12      	lsrs	r2, r2, #24
    4594:	0a64      	lsrs	r4, r4, #9
    4596:	0e00      	lsrs	r0, r0, #24
    4598:	0fc9      	lsrs	r1, r1, #31
    459a:	2aff      	cmp	r2, #255	; 0xff
    459c:	d01e      	beq.n	45dc <__gesf2+0x58>
    459e:	28ff      	cmp	r0, #255	; 0xff
    45a0:	d021      	beq.n	45e6 <__gesf2+0x62>
    45a2:	2a00      	cmp	r2, #0
    45a4:	d10a      	bne.n	45bc <__gesf2+0x38>
    45a6:	426e      	negs	r6, r5
    45a8:	416e      	adcs	r6, r5
    45aa:	b2f6      	uxtb	r6, r6
    45ac:	2800      	cmp	r0, #0
    45ae:	d10f      	bne.n	45d0 <__gesf2+0x4c>
    45b0:	2c00      	cmp	r4, #0
    45b2:	d10d      	bne.n	45d0 <__gesf2+0x4c>
    45b4:	2000      	movs	r0, #0
    45b6:	2d00      	cmp	r5, #0
    45b8:	d009      	beq.n	45ce <__gesf2+0x4a>
    45ba:	e005      	b.n	45c8 <__gesf2+0x44>
    45bc:	2800      	cmp	r0, #0
    45be:	d101      	bne.n	45c4 <__gesf2+0x40>
    45c0:	2c00      	cmp	r4, #0
    45c2:	d001      	beq.n	45c8 <__gesf2+0x44>
    45c4:	428b      	cmp	r3, r1
    45c6:	d011      	beq.n	45ec <__gesf2+0x68>
    45c8:	2101      	movs	r1, #1
    45ca:	4258      	negs	r0, r3
    45cc:	4308      	orrs	r0, r1
    45ce:	bdf0      	pop	{r4, r5, r6, r7, pc}
    45d0:	2e00      	cmp	r6, #0
    45d2:	d0f7      	beq.n	45c4 <__gesf2+0x40>
    45d4:	2001      	movs	r0, #1
    45d6:	3901      	subs	r1, #1
    45d8:	4308      	orrs	r0, r1
    45da:	e7f8      	b.n	45ce <__gesf2+0x4a>
    45dc:	2d00      	cmp	r5, #0
    45de:	d0de      	beq.n	459e <__gesf2+0x1a>
    45e0:	2002      	movs	r0, #2
    45e2:	4240      	negs	r0, r0
    45e4:	e7f3      	b.n	45ce <__gesf2+0x4a>
    45e6:	2c00      	cmp	r4, #0
    45e8:	d0db      	beq.n	45a2 <__gesf2+0x1e>
    45ea:	e7f9      	b.n	45e0 <__gesf2+0x5c>
    45ec:	4282      	cmp	r2, r0
    45ee:	dceb      	bgt.n	45c8 <__gesf2+0x44>
    45f0:	db04      	blt.n	45fc <__gesf2+0x78>
    45f2:	42a5      	cmp	r5, r4
    45f4:	d8e8      	bhi.n	45c8 <__gesf2+0x44>
    45f6:	2000      	movs	r0, #0
    45f8:	42a5      	cmp	r5, r4
    45fa:	d2e8      	bcs.n	45ce <__gesf2+0x4a>
    45fc:	2101      	movs	r1, #1
    45fe:	1e58      	subs	r0, r3, #1
    4600:	4308      	orrs	r0, r1
    4602:	e7e4      	b.n	45ce <__gesf2+0x4a>

00004604 <__lesf2>:
    4604:	b5f0      	push	{r4, r5, r6, r7, lr}
    4606:	0042      	lsls	r2, r0, #1
    4608:	024d      	lsls	r5, r1, #9
    460a:	004c      	lsls	r4, r1, #1
    460c:	0246      	lsls	r6, r0, #9
    460e:	0a76      	lsrs	r6, r6, #9
    4610:	0e12      	lsrs	r2, r2, #24
    4612:	0fc3      	lsrs	r3, r0, #31
    4614:	0a6d      	lsrs	r5, r5, #9
    4616:	0e24      	lsrs	r4, r4, #24
    4618:	0fc9      	lsrs	r1, r1, #31
    461a:	2aff      	cmp	r2, #255	; 0xff
    461c:	d016      	beq.n	464c <__lesf2+0x48>
    461e:	2cff      	cmp	r4, #255	; 0xff
    4620:	d018      	beq.n	4654 <__lesf2+0x50>
    4622:	2a00      	cmp	r2, #0
    4624:	d10a      	bne.n	463c <__lesf2+0x38>
    4626:	4270      	negs	r0, r6
    4628:	4170      	adcs	r0, r6
    462a:	b2c0      	uxtb	r0, r0
    462c:	2c00      	cmp	r4, #0
    462e:	d015      	beq.n	465c <__lesf2+0x58>
    4630:	2800      	cmp	r0, #0
    4632:	d005      	beq.n	4640 <__lesf2+0x3c>
    4634:	2001      	movs	r0, #1
    4636:	3901      	subs	r1, #1
    4638:	4308      	orrs	r0, r1
    463a:	bdf0      	pop	{r4, r5, r6, r7, pc}
    463c:	2c00      	cmp	r4, #0
    463e:	d013      	beq.n	4668 <__lesf2+0x64>
    4640:	4299      	cmp	r1, r3
    4642:	d014      	beq.n	466e <__lesf2+0x6a>
    4644:	2001      	movs	r0, #1
    4646:	425b      	negs	r3, r3
    4648:	4318      	orrs	r0, r3
    464a:	e7f6      	b.n	463a <__lesf2+0x36>
    464c:	2002      	movs	r0, #2
    464e:	2e00      	cmp	r6, #0
    4650:	d1f3      	bne.n	463a <__lesf2+0x36>
    4652:	e7e4      	b.n	461e <__lesf2+0x1a>
    4654:	2002      	movs	r0, #2
    4656:	2d00      	cmp	r5, #0
    4658:	d1ef      	bne.n	463a <__lesf2+0x36>
    465a:	e7e2      	b.n	4622 <__lesf2+0x1e>
    465c:	2d00      	cmp	r5, #0
    465e:	d1e7      	bne.n	4630 <__lesf2+0x2c>
    4660:	2000      	movs	r0, #0
    4662:	2e00      	cmp	r6, #0
    4664:	d0e9      	beq.n	463a <__lesf2+0x36>
    4666:	e7ed      	b.n	4644 <__lesf2+0x40>
    4668:	2d00      	cmp	r5, #0
    466a:	d1e9      	bne.n	4640 <__lesf2+0x3c>
    466c:	e7ea      	b.n	4644 <__lesf2+0x40>
    466e:	42a2      	cmp	r2, r4
    4670:	dc06      	bgt.n	4680 <__lesf2+0x7c>
    4672:	dbdf      	blt.n	4634 <__lesf2+0x30>
    4674:	42ae      	cmp	r6, r5
    4676:	d803      	bhi.n	4680 <__lesf2+0x7c>
    4678:	2000      	movs	r0, #0
    467a:	42ae      	cmp	r6, r5
    467c:	d3da      	bcc.n	4634 <__lesf2+0x30>
    467e:	e7dc      	b.n	463a <__lesf2+0x36>
    4680:	2001      	movs	r0, #1
    4682:	4249      	negs	r1, r1
    4684:	4308      	orrs	r0, r1
    4686:	e7d8      	b.n	463a <__lesf2+0x36>

00004688 <__aeabi_fmul>:
    4688:	b5f8      	push	{r3, r4, r5, r6, r7, lr}
    468a:	4657      	mov	r7, r10
    468c:	464e      	mov	r6, r9
    468e:	4645      	mov	r5, r8
    4690:	46de      	mov	lr, r11
    4692:	b5e0      	push	{r5, r6, r7, lr}
    4694:	0247      	lsls	r7, r0, #9
    4696:	0046      	lsls	r6, r0, #1
    4698:	4688      	mov	r8, r1
    469a:	0a7f      	lsrs	r7, r7, #9
    469c:	0e36      	lsrs	r6, r6, #24
    469e:	0fc4      	lsrs	r4, r0, #31
    46a0:	2e00      	cmp	r6, #0
    46a2:	d047      	beq.n	4734 <__aeabi_fmul+0xac>
    46a4:	2eff      	cmp	r6, #255	; 0xff
    46a6:	d024      	beq.n	46f2 <__aeabi_fmul+0x6a>
    46a8:	00fb      	lsls	r3, r7, #3
    46aa:	2780      	movs	r7, #128	; 0x80
    46ac:	04ff      	lsls	r7, r7, #19
    46ae:	431f      	orrs	r7, r3
    46b0:	2300      	movs	r3, #0
    46b2:	4699      	mov	r9, r3
    46b4:	469a      	mov	r10, r3
    46b6:	3e7f      	subs	r6, #127	; 0x7f
    46b8:	4643      	mov	r3, r8
    46ba:	025d      	lsls	r5, r3, #9
    46bc:	0058      	lsls	r0, r3, #1
    46be:	0fdb      	lsrs	r3, r3, #31
    46c0:	0a6d      	lsrs	r5, r5, #9
    46c2:	0e00      	lsrs	r0, r0, #24
    46c4:	4698      	mov	r8, r3
    46c6:	d043      	beq.n	4750 <__aeabi_fmul+0xc8>
    46c8:	28ff      	cmp	r0, #255	; 0xff
    46ca:	d03b      	beq.n	4744 <__aeabi_fmul+0xbc>
    46cc:	00eb      	lsls	r3, r5, #3
    46ce:	2580      	movs	r5, #128	; 0x80
    46d0:	2200      	movs	r2, #0
    46d2:	04ed      	lsls	r5, r5, #19
    46d4:	431d      	orrs	r5, r3
    46d6:	387f      	subs	r0, #127	; 0x7f
    46d8:	1836      	adds	r6, r6, r0
    46da:	1c73      	adds	r3, r6, #1
    46dc:	4641      	mov	r1, r8
    46de:	469b      	mov	r11, r3
    46e0:	464b      	mov	r3, r9
    46e2:	4061      	eors	r1, r4
    46e4:	4313      	orrs	r3, r2
    46e6:	2b0f      	cmp	r3, #15
    46e8:	d864      	bhi.n	47b4 <__aeabi_fmul+0x12c>
    46ea:	4875      	ldr	r0, [pc, #468]	; (48c0 <__aeabi_fmul+0x238>)
    46ec:	009b      	lsls	r3, r3, #2
    46ee:	58c3      	ldr	r3, [r0, r3]
    46f0:	469f      	mov	pc, r3
    46f2:	2f00      	cmp	r7, #0
    46f4:	d142      	bne.n	477c <__aeabi_fmul+0xf4>
    46f6:	2308      	movs	r3, #8
    46f8:	4699      	mov	r9, r3
    46fa:	3b06      	subs	r3, #6
    46fc:	26ff      	movs	r6, #255	; 0xff
    46fe:	469a      	mov	r10, r3
    4700:	e7da      	b.n	46b8 <__aeabi_fmul+0x30>
    4702:	4641      	mov	r1, r8
    4704:	2a02      	cmp	r2, #2
    4706:	d028      	beq.n	475a <__aeabi_fmul+0xd2>
    4708:	2a03      	cmp	r2, #3
    470a:	d100      	bne.n	470e <__aeabi_fmul+0x86>
    470c:	e0ce      	b.n	48ac <__aeabi_fmul+0x224>
    470e:	2a01      	cmp	r2, #1
    4710:	d000      	beq.n	4714 <__aeabi_fmul+0x8c>
    4712:	e0ac      	b.n	486e <__aeabi_fmul+0x1e6>
    4714:	4011      	ands	r1, r2
    4716:	2000      	movs	r0, #0
    4718:	2200      	movs	r2, #0
    471a:	b2cc      	uxtb	r4, r1
    471c:	0240      	lsls	r0, r0, #9
    471e:	05d2      	lsls	r2, r2, #23
    4720:	0a40      	lsrs	r0, r0, #9
    4722:	07e4      	lsls	r4, r4, #31
    4724:	4310      	orrs	r0, r2
    4726:	4320      	orrs	r0, r4
    4728:	bc3c      	pop	{r2, r3, r4, r5}
    472a:	4690      	mov	r8, r2
    472c:	4699      	mov	r9, r3
    472e:	46a2      	mov	r10, r4
    4730:	46ab      	mov	r11, r5
    4732:	bdf8      	pop	{r3, r4, r5, r6, r7, pc}
    4734:	2f00      	cmp	r7, #0
    4736:	d115      	bne.n	4764 <__aeabi_fmul+0xdc>
    4738:	2304      	movs	r3, #4
    473a:	4699      	mov	r9, r3
    473c:	3b03      	subs	r3, #3
    473e:	2600      	movs	r6, #0
    4740:	469a      	mov	r10, r3
    4742:	e7b9      	b.n	46b8 <__aeabi_fmul+0x30>
    4744:	20ff      	movs	r0, #255	; 0xff
    4746:	2202      	movs	r2, #2
    4748:	2d00      	cmp	r5, #0
    474a:	d0c5      	beq.n	46d8 <__aeabi_fmul+0x50>
    474c:	2203      	movs	r2, #3
    474e:	e7c3      	b.n	46d8 <__aeabi_fmul+0x50>
    4750:	2d00      	cmp	r5, #0
    4752:	d119      	bne.n	4788 <__aeabi_fmul+0x100>
    4754:	2000      	movs	r0, #0
    4756:	2201      	movs	r2, #1
    4758:	e7be      	b.n	46d8 <__aeabi_fmul+0x50>
    475a:	2401      	movs	r4, #1
    475c:	22ff      	movs	r2, #255	; 0xff
    475e:	400c      	ands	r4, r1
    4760:	2000      	movs	r0, #0
    4762:	e7db      	b.n	471c <__aeabi_fmul+0x94>
    4764:	0038      	movs	r0, r7
    4766:	f000 fb01 	bl	4d6c <__clzsi2>
    476a:	2676      	movs	r6, #118	; 0x76
    476c:	1f43      	subs	r3, r0, #5
    476e:	409f      	lsls	r7, r3
    4770:	2300      	movs	r3, #0
    4772:	4276      	negs	r6, r6
    4774:	1a36      	subs	r6, r6, r0
    4776:	4699      	mov	r9, r3
    4778:	469a      	mov	r10, r3
    477a:	e79d      	b.n	46b8 <__aeabi_fmul+0x30>
    477c:	230c      	movs	r3, #12
    477e:	4699      	mov	r9, r3
    4780:	3b09      	subs	r3, #9
    4782:	26ff      	movs	r6, #255	; 0xff
    4784:	469a      	mov	r10, r3
    4786:	e797      	b.n	46b8 <__aeabi_fmul+0x30>
    4788:	0028      	movs	r0, r5
    478a:	f000 faef 	bl	4d6c <__clzsi2>
    478e:	1f43      	subs	r3, r0, #5
    4790:	409d      	lsls	r5, r3
    4792:	2376      	movs	r3, #118	; 0x76
    4794:	425b      	negs	r3, r3
    4796:	1a18      	subs	r0, r3, r0
    4798:	2200      	movs	r2, #0
    479a:	e79d      	b.n	46d8 <__aeabi_fmul+0x50>
    479c:	2080      	movs	r0, #128	; 0x80
    479e:	2400      	movs	r4, #0
    47a0:	03c0      	lsls	r0, r0, #15
    47a2:	22ff      	movs	r2, #255	; 0xff
    47a4:	e7ba      	b.n	471c <__aeabi_fmul+0x94>
    47a6:	003d      	movs	r5, r7
    47a8:	4652      	mov	r2, r10
    47aa:	e7ab      	b.n	4704 <__aeabi_fmul+0x7c>
    47ac:	003d      	movs	r5, r7
    47ae:	0021      	movs	r1, r4
    47b0:	4652      	mov	r2, r10
    47b2:	e7a7      	b.n	4704 <__aeabi_fmul+0x7c>
    47b4:	0c3b      	lsrs	r3, r7, #16
    47b6:	469c      	mov	r12, r3
    47b8:	042a      	lsls	r2, r5, #16
    47ba:	0c12      	lsrs	r2, r2, #16
    47bc:	0c2b      	lsrs	r3, r5, #16
    47be:	0014      	movs	r4, r2
    47c0:	4660      	mov	r0, r12
    47c2:	4665      	mov	r5, r12
    47c4:	043f      	lsls	r7, r7, #16
    47c6:	0c3f      	lsrs	r7, r7, #16
    47c8:	437c      	muls	r4, r7
    47ca:	4342      	muls	r2, r0
    47cc:	435d      	muls	r5, r3
    47ce:	437b      	muls	r3, r7
    47d0:	0c27      	lsrs	r7, r4, #16
    47d2:	189b      	adds	r3, r3, r2
    47d4:	18ff      	adds	r7, r7, r3
    47d6:	42ba      	cmp	r2, r7
    47d8:	d903      	bls.n	47e2 <__aeabi_fmul+0x15a>
    47da:	2380      	movs	r3, #128	; 0x80
    47dc:	025b      	lsls	r3, r3, #9
    47de:	469c      	mov	r12, r3
    47e0:	4465      	add	r5, r12
    47e2:	0424      	lsls	r4, r4, #16
    47e4:	043a      	lsls	r2, r7, #16
    47e6:	0c24      	lsrs	r4, r4, #16
    47e8:	1912      	adds	r2, r2, r4
    47ea:	0193      	lsls	r3, r2, #6
    47ec:	1e5c      	subs	r4, r3, #1
    47ee:	41a3      	sbcs	r3, r4
    47f0:	0c3f      	lsrs	r7, r7, #16
    47f2:	0e92      	lsrs	r2, r2, #26
    47f4:	197d      	adds	r5, r7, r5
    47f6:	431a      	orrs	r2, r3
    47f8:	01ad      	lsls	r5, r5, #6
    47fa:	4315      	orrs	r5, r2
    47fc:	012b      	lsls	r3, r5, #4
    47fe:	d504      	bpl.n	480a <__aeabi_fmul+0x182>
    4800:	2301      	movs	r3, #1
    4802:	465e      	mov	r6, r11
    4804:	086a      	lsrs	r2, r5, #1
    4806:	401d      	ands	r5, r3
    4808:	4315      	orrs	r5, r2
    480a:	0032      	movs	r2, r6
    480c:	327f      	adds	r2, #127	; 0x7f
    480e:	2a00      	cmp	r2, #0
    4810:	dd25      	ble.n	485e <__aeabi_fmul+0x1d6>
    4812:	076b      	lsls	r3, r5, #29
    4814:	d004      	beq.n	4820 <__aeabi_fmul+0x198>
    4816:	230f      	movs	r3, #15
    4818:	402b      	ands	r3, r5
    481a:	2b04      	cmp	r3, #4
    481c:	d000      	beq.n	4820 <__aeabi_fmul+0x198>
    481e:	3504      	adds	r5, #4
    4820:	012b      	lsls	r3, r5, #4
    4822:	d503      	bpl.n	482c <__aeabi_fmul+0x1a4>
    4824:	0032      	movs	r2, r6
    4826:	4b27      	ldr	r3, [pc, #156]	; (48c4 <__aeabi_fmul+0x23c>)
    4828:	3280      	adds	r2, #128	; 0x80
    482a:	401d      	ands	r5, r3
    482c:	2afe      	cmp	r2, #254	; 0xfe
    482e:	dc94      	bgt.n	475a <__aeabi_fmul+0xd2>
    4830:	2401      	movs	r4, #1
    4832:	01a8      	lsls	r0, r5, #6
    4834:	0a40      	lsrs	r0, r0, #9
    4836:	b2d2      	uxtb	r2, r2
    4838:	400c      	ands	r4, r1
    483a:	e76f      	b.n	471c <__aeabi_fmul+0x94>
    483c:	2080      	movs	r0, #128	; 0x80
    483e:	03c0      	lsls	r0, r0, #15
    4840:	4207      	tst	r7, r0
    4842:	d007      	beq.n	4854 <__aeabi_fmul+0x1cc>
    4844:	4205      	tst	r5, r0
    4846:	d105      	bne.n	4854 <__aeabi_fmul+0x1cc>
    4848:	4328      	orrs	r0, r5
    484a:	0240      	lsls	r0, r0, #9
    484c:	0a40      	lsrs	r0, r0, #9
    484e:	4644      	mov	r4, r8
    4850:	22ff      	movs	r2, #255	; 0xff
    4852:	e763      	b.n	471c <__aeabi_fmul+0x94>
    4854:	4338      	orrs	r0, r7
    4856:	0240      	lsls	r0, r0, #9
    4858:	0a40      	lsrs	r0, r0, #9
    485a:	22ff      	movs	r2, #255	; 0xff
    485c:	e75e      	b.n	471c <__aeabi_fmul+0x94>
    485e:	2401      	movs	r4, #1
    4860:	1aa3      	subs	r3, r4, r2
    4862:	2b1b      	cmp	r3, #27
    4864:	dd05      	ble.n	4872 <__aeabi_fmul+0x1ea>
    4866:	400c      	ands	r4, r1
    4868:	2200      	movs	r2, #0
    486a:	2000      	movs	r0, #0
    486c:	e756      	b.n	471c <__aeabi_fmul+0x94>
    486e:	465e      	mov	r6, r11
    4870:	e7cb      	b.n	480a <__aeabi_fmul+0x182>
    4872:	002a      	movs	r2, r5
    4874:	2020      	movs	r0, #32
    4876:	40da      	lsrs	r2, r3
    4878:	1ac3      	subs	r3, r0, r3
    487a:	409d      	lsls	r5, r3
    487c:	002b      	movs	r3, r5
    487e:	1e5d      	subs	r5, r3, #1
    4880:	41ab      	sbcs	r3, r5
    4882:	4313      	orrs	r3, r2
    4884:	075a      	lsls	r2, r3, #29
    4886:	d004      	beq.n	4892 <__aeabi_fmul+0x20a>
    4888:	220f      	movs	r2, #15
    488a:	401a      	ands	r2, r3
    488c:	2a04      	cmp	r2, #4
    488e:	d000      	beq.n	4892 <__aeabi_fmul+0x20a>
    4890:	3304      	adds	r3, #4
    4892:	015a      	lsls	r2, r3, #5
    4894:	d504      	bpl.n	48a0 <__aeabi_fmul+0x218>
    4896:	2401      	movs	r4, #1
    4898:	2201      	movs	r2, #1
    489a:	400c      	ands	r4, r1
    489c:	2000      	movs	r0, #0
    489e:	e73d      	b.n	471c <__aeabi_fmul+0x94>
    48a0:	2401      	movs	r4, #1
    48a2:	019b      	lsls	r3, r3, #6
    48a4:	0a58      	lsrs	r0, r3, #9
    48a6:	400c      	ands	r4, r1
    48a8:	2200      	movs	r2, #0
    48aa:	e737      	b.n	471c <__aeabi_fmul+0x94>
    48ac:	2080      	movs	r0, #128	; 0x80
    48ae:	2401      	movs	r4, #1
    48b0:	03c0      	lsls	r0, r0, #15
    48b2:	4328      	orrs	r0, r5
    48b4:	0240      	lsls	r0, r0, #9
    48b6:	0a40      	lsrs	r0, r0, #9
    48b8:	400c      	ands	r4, r1
    48ba:	22ff      	movs	r2, #255	; 0xff
    48bc:	e72e      	b.n	471c <__aeabi_fmul+0x94>
    48be:	46c0      	nop			; (mov r8, r8)
    48c0:	00007880 	.word	0x00007880
    48c4:	f7ffffff 	.word	0xf7ffffff

000048c8 <__aeabi_fsub>:
    48c8:	b5f0      	push	{r4, r5, r6, r7, lr}
    48ca:	464f      	mov	r7, r9
    48cc:	46d6      	mov	lr, r10
    48ce:	4646      	mov	r6, r8
    48d0:	0044      	lsls	r4, r0, #1
    48d2:	b5c0      	push	{r6, r7, lr}
    48d4:	0fc2      	lsrs	r2, r0, #31
    48d6:	0247      	lsls	r7, r0, #9
    48d8:	0248      	lsls	r0, r1, #9
    48da:	0a40      	lsrs	r0, r0, #9
    48dc:	4684      	mov	r12, r0
    48de:	4666      	mov	r6, r12
    48e0:	0a7b      	lsrs	r3, r7, #9
    48e2:	0048      	lsls	r0, r1, #1
    48e4:	0fc9      	lsrs	r1, r1, #31
    48e6:	469a      	mov	r10, r3
    48e8:	0e24      	lsrs	r4, r4, #24
    48ea:	0015      	movs	r5, r2
    48ec:	00db      	lsls	r3, r3, #3
    48ee:	0e00      	lsrs	r0, r0, #24
    48f0:	4689      	mov	r9, r1
    48f2:	00f6      	lsls	r6, r6, #3
    48f4:	28ff      	cmp	r0, #255	; 0xff
    48f6:	d100      	bne.n	48fa <__aeabi_fsub+0x32>
    48f8:	e08f      	b.n	4a1a <__aeabi_fsub+0x152>
    48fa:	2101      	movs	r1, #1
    48fc:	464f      	mov	r7, r9
    48fe:	404f      	eors	r7, r1
    4900:	0039      	movs	r1, r7
    4902:	4291      	cmp	r1, r2
    4904:	d066      	beq.n	49d4 <__aeabi_fsub+0x10c>
    4906:	1a22      	subs	r2, r4, r0
    4908:	2a00      	cmp	r2, #0
    490a:	dc00      	bgt.n	490e <__aeabi_fsub+0x46>
    490c:	e09d      	b.n	4a4a <__aeabi_fsub+0x182>
    490e:	2800      	cmp	r0, #0
    4910:	d13d      	bne.n	498e <__aeabi_fsub+0xc6>
    4912:	2e00      	cmp	r6, #0
    4914:	d100      	bne.n	4918 <__aeabi_fsub+0x50>
    4916:	e08b      	b.n	4a30 <__aeabi_fsub+0x168>
    4918:	1e51      	subs	r1, r2, #1
    491a:	2900      	cmp	r1, #0
    491c:	d000      	beq.n	4920 <__aeabi_fsub+0x58>
    491e:	e0b5      	b.n	4a8c <__aeabi_fsub+0x1c4>
    4920:	2401      	movs	r4, #1
    4922:	1b9b      	subs	r3, r3, r6
    4924:	015a      	lsls	r2, r3, #5
    4926:	d544      	bpl.n	49b2 <__aeabi_fsub+0xea>
    4928:	019b      	lsls	r3, r3, #6
    492a:	099f      	lsrs	r7, r3, #6
    492c:	0038      	movs	r0, r7
    492e:	f000 fa1d 	bl	4d6c <__clzsi2>
    4932:	3805      	subs	r0, #5
    4934:	4087      	lsls	r7, r0
    4936:	4284      	cmp	r4, r0
    4938:	dd00      	ble.n	493c <__aeabi_fsub+0x74>
    493a:	e096      	b.n	4a6a <__aeabi_fsub+0x1a2>
    493c:	1b04      	subs	r4, r0, r4
    493e:	003a      	movs	r2, r7
    4940:	2020      	movs	r0, #32
    4942:	3401      	adds	r4, #1
    4944:	40e2      	lsrs	r2, r4
    4946:	1b04      	subs	r4, r0, r4
    4948:	40a7      	lsls	r7, r4
    494a:	003b      	movs	r3, r7
    494c:	1e5f      	subs	r7, r3, #1
    494e:	41bb      	sbcs	r3, r7
    4950:	2400      	movs	r4, #0
    4952:	4313      	orrs	r3, r2
    4954:	075a      	lsls	r2, r3, #29
    4956:	d004      	beq.n	4962 <__aeabi_fsub+0x9a>
    4958:	220f      	movs	r2, #15
    495a:	401a      	ands	r2, r3
    495c:	2a04      	cmp	r2, #4
    495e:	d000      	beq.n	4962 <__aeabi_fsub+0x9a>
    4960:	3304      	adds	r3, #4
    4962:	015a      	lsls	r2, r3, #5
    4964:	d527      	bpl.n	49b6 <__aeabi_fsub+0xee>
    4966:	3401      	adds	r4, #1
    4968:	2cff      	cmp	r4, #255	; 0xff
    496a:	d100      	bne.n	496e <__aeabi_fsub+0xa6>
    496c:	e079      	b.n	4a62 <__aeabi_fsub+0x19a>
    496e:	2201      	movs	r2, #1
    4970:	019b      	lsls	r3, r3, #6
    4972:	0a5b      	lsrs	r3, r3, #9
    4974:	b2e4      	uxtb	r4, r4
    4976:	402a      	ands	r2, r5
    4978:	025b      	lsls	r3, r3, #9
    497a:	05e4      	lsls	r4, r4, #23
    497c:	0a58      	lsrs	r0, r3, #9
    497e:	07d2      	lsls	r2, r2, #31
    4980:	4320      	orrs	r0, r4
    4982:	4310      	orrs	r0, r2
    4984:	bc1c      	pop	{r2, r3, r4}
    4986:	4690      	mov	r8, r2
    4988:	4699      	mov	r9, r3
    498a:	46a2      	mov	r10, r4
    498c:	bdf0      	pop	{r4, r5, r6, r7, pc}
    498e:	2cff      	cmp	r4, #255	; 0xff
    4990:	d0e0      	beq.n	4954 <__aeabi_fsub+0x8c>
    4992:	2180      	movs	r1, #128	; 0x80
    4994:	04c9      	lsls	r1, r1, #19
    4996:	430e      	orrs	r6, r1
    4998:	2a1b      	cmp	r2, #27
    499a:	dc7b      	bgt.n	4a94 <__aeabi_fsub+0x1cc>
    499c:	0031      	movs	r1, r6
    499e:	2020      	movs	r0, #32
    49a0:	40d1      	lsrs	r1, r2
    49a2:	1a82      	subs	r2, r0, r2
    49a4:	4096      	lsls	r6, r2
    49a6:	1e72      	subs	r2, r6, #1
    49a8:	4196      	sbcs	r6, r2
    49aa:	430e      	orrs	r6, r1
    49ac:	1b9b      	subs	r3, r3, r6
    49ae:	015a      	lsls	r2, r3, #5
    49b0:	d4ba      	bmi.n	4928 <__aeabi_fsub+0x60>
    49b2:	075a      	lsls	r2, r3, #29
    49b4:	d1d0      	bne.n	4958 <__aeabi_fsub+0x90>
    49b6:	2201      	movs	r2, #1
    49b8:	08df      	lsrs	r7, r3, #3
    49ba:	402a      	ands	r2, r5
    49bc:	2cff      	cmp	r4, #255	; 0xff
    49be:	d133      	bne.n	4a28 <__aeabi_fsub+0x160>
    49c0:	2f00      	cmp	r7, #0
    49c2:	d100      	bne.n	49c6 <__aeabi_fsub+0xfe>
    49c4:	e0a8      	b.n	4b18 <__aeabi_fsub+0x250>
    49c6:	2380      	movs	r3, #128	; 0x80
    49c8:	03db      	lsls	r3, r3, #15
    49ca:	433b      	orrs	r3, r7
    49cc:	025b      	lsls	r3, r3, #9
    49ce:	0a5b      	lsrs	r3, r3, #9
    49d0:	24ff      	movs	r4, #255	; 0xff
    49d2:	e7d1      	b.n	4978 <__aeabi_fsub+0xb0>
    49d4:	1a21      	subs	r1, r4, r0
    49d6:	2900      	cmp	r1, #0
    49d8:	dd4c      	ble.n	4a74 <__aeabi_fsub+0x1ac>
    49da:	2800      	cmp	r0, #0
    49dc:	d02a      	beq.n	4a34 <__aeabi_fsub+0x16c>
    49de:	2cff      	cmp	r4, #255	; 0xff
    49e0:	d0b8      	beq.n	4954 <__aeabi_fsub+0x8c>
    49e2:	2080      	movs	r0, #128	; 0x80
    49e4:	04c0      	lsls	r0, r0, #19
    49e6:	4306      	orrs	r6, r0
    49e8:	291b      	cmp	r1, #27
    49ea:	dd00      	ble.n	49ee <__aeabi_fsub+0x126>
    49ec:	e0af      	b.n	4b4e <__aeabi_fsub+0x286>
    49ee:	0030      	movs	r0, r6
    49f0:	2720      	movs	r7, #32
    49f2:	40c8      	lsrs	r0, r1
    49f4:	1a79      	subs	r1, r7, r1
    49f6:	408e      	lsls	r6, r1
    49f8:	1e71      	subs	r1, r6, #1
    49fa:	418e      	sbcs	r6, r1
    49fc:	4306      	orrs	r6, r0
    49fe:	199b      	adds	r3, r3, r6
    4a00:	0159      	lsls	r1, r3, #5
    4a02:	d5d6      	bpl.n	49b2 <__aeabi_fsub+0xea>
    4a04:	3401      	adds	r4, #1
    4a06:	2cff      	cmp	r4, #255	; 0xff
    4a08:	d100      	bne.n	4a0c <__aeabi_fsub+0x144>
    4a0a:	e085      	b.n	4b18 <__aeabi_fsub+0x250>
    4a0c:	2201      	movs	r2, #1
    4a0e:	497a      	ldr	r1, [pc, #488]	; (4bf8 <__aeabi_fsub+0x330>)
    4a10:	401a      	ands	r2, r3
    4a12:	085b      	lsrs	r3, r3, #1
    4a14:	400b      	ands	r3, r1
    4a16:	4313      	orrs	r3, r2
    4a18:	e79c      	b.n	4954 <__aeabi_fsub+0x8c>
    4a1a:	2e00      	cmp	r6, #0
    4a1c:	d000      	beq.n	4a20 <__aeabi_fsub+0x158>
    4a1e:	e770      	b.n	4902 <__aeabi_fsub+0x3a>
    4a20:	e76b      	b.n	48fa <__aeabi_fsub+0x32>
    4a22:	1e3b      	subs	r3, r7, #0
    4a24:	d1c5      	bne.n	49b2 <__aeabi_fsub+0xea>
    4a26:	2200      	movs	r2, #0
    4a28:	027b      	lsls	r3, r7, #9
    4a2a:	0a5b      	lsrs	r3, r3, #9
    4a2c:	b2e4      	uxtb	r4, r4
    4a2e:	e7a3      	b.n	4978 <__aeabi_fsub+0xb0>
    4a30:	0014      	movs	r4, r2
    4a32:	e78f      	b.n	4954 <__aeabi_fsub+0x8c>
    4a34:	2e00      	cmp	r6, #0
    4a36:	d04d      	beq.n	4ad4 <__aeabi_fsub+0x20c>
    4a38:	1e48      	subs	r0, r1, #1
    4a3a:	2800      	cmp	r0, #0
    4a3c:	d157      	bne.n	4aee <__aeabi_fsub+0x226>
    4a3e:	199b      	adds	r3, r3, r6
    4a40:	2401      	movs	r4, #1
    4a42:	015a      	lsls	r2, r3, #5
    4a44:	d5b5      	bpl.n	49b2 <__aeabi_fsub+0xea>
    4a46:	2402      	movs	r4, #2
    4a48:	e7e0      	b.n	4a0c <__aeabi_fsub+0x144>
    4a4a:	2a00      	cmp	r2, #0
    4a4c:	d125      	bne.n	4a9a <__aeabi_fsub+0x1d2>
    4a4e:	1c62      	adds	r2, r4, #1
    4a50:	b2d2      	uxtb	r2, r2
    4a52:	2a01      	cmp	r2, #1
    4a54:	dd72      	ble.n	4b3c <__aeabi_fsub+0x274>
    4a56:	1b9f      	subs	r7, r3, r6
    4a58:	017a      	lsls	r2, r7, #5
    4a5a:	d535      	bpl.n	4ac8 <__aeabi_fsub+0x200>
    4a5c:	1af7      	subs	r7, r6, r3
    4a5e:	000d      	movs	r5, r1
    4a60:	e764      	b.n	492c <__aeabi_fsub+0x64>
    4a62:	2201      	movs	r2, #1
    4a64:	2300      	movs	r3, #0
    4a66:	402a      	ands	r2, r5
    4a68:	e786      	b.n	4978 <__aeabi_fsub+0xb0>
    4a6a:	003b      	movs	r3, r7
    4a6c:	4a63      	ldr	r2, [pc, #396]	; (4bfc <__aeabi_fsub+0x334>)
    4a6e:	1a24      	subs	r4, r4, r0
    4a70:	4013      	ands	r3, r2
    4a72:	e76f      	b.n	4954 <__aeabi_fsub+0x8c>
    4a74:	2900      	cmp	r1, #0
    4a76:	d16c      	bne.n	4b52 <__aeabi_fsub+0x28a>
    4a78:	1c61      	adds	r1, r4, #1
    4a7a:	b2c8      	uxtb	r0, r1
    4a7c:	2801      	cmp	r0, #1
    4a7e:	dd4e      	ble.n	4b1e <__aeabi_fsub+0x256>
    4a80:	29ff      	cmp	r1, #255	; 0xff
    4a82:	d049      	beq.n	4b18 <__aeabi_fsub+0x250>
    4a84:	199b      	adds	r3, r3, r6
    4a86:	085b      	lsrs	r3, r3, #1
    4a88:	000c      	movs	r4, r1
    4a8a:	e763      	b.n	4954 <__aeabi_fsub+0x8c>
    4a8c:	2aff      	cmp	r2, #255	; 0xff
    4a8e:	d041      	beq.n	4b14 <__aeabi_fsub+0x24c>
    4a90:	000a      	movs	r2, r1
    4a92:	e781      	b.n	4998 <__aeabi_fsub+0xd0>
    4a94:	2601      	movs	r6, #1
    4a96:	1b9b      	subs	r3, r3, r6
    4a98:	e789      	b.n	49ae <__aeabi_fsub+0xe6>
    4a9a:	2c00      	cmp	r4, #0
    4a9c:	d01c      	beq.n	4ad8 <__aeabi_fsub+0x210>
    4a9e:	28ff      	cmp	r0, #255	; 0xff
    4aa0:	d021      	beq.n	4ae6 <__aeabi_fsub+0x21e>
    4aa2:	2480      	movs	r4, #128	; 0x80
    4aa4:	04e4      	lsls	r4, r4, #19
    4aa6:	4252      	negs	r2, r2
    4aa8:	4323      	orrs	r3, r4
    4aaa:	2a1b      	cmp	r2, #27
    4aac:	dd00      	ble.n	4ab0 <__aeabi_fsub+0x1e8>
    4aae:	e096      	b.n	4bde <__aeabi_fsub+0x316>
    4ab0:	001c      	movs	r4, r3
    4ab2:	2520      	movs	r5, #32
    4ab4:	40d4      	lsrs	r4, r2
    4ab6:	1aaa      	subs	r2, r5, r2
    4ab8:	4093      	lsls	r3, r2
    4aba:	1e5a      	subs	r2, r3, #1
    4abc:	4193      	sbcs	r3, r2
    4abe:	4323      	orrs	r3, r4
    4ac0:	1af3      	subs	r3, r6, r3
    4ac2:	0004      	movs	r4, r0
    4ac4:	000d      	movs	r5, r1
    4ac6:	e72d      	b.n	4924 <__aeabi_fsub+0x5c>
    4ac8:	2f00      	cmp	r7, #0
    4aca:	d000      	beq.n	4ace <__aeabi_fsub+0x206>
    4acc:	e72e      	b.n	492c <__aeabi_fsub+0x64>
    4ace:	2200      	movs	r2, #0
    4ad0:	2400      	movs	r4, #0
    4ad2:	e7a9      	b.n	4a28 <__aeabi_fsub+0x160>
    4ad4:	000c      	movs	r4, r1
    4ad6:	e73d      	b.n	4954 <__aeabi_fsub+0x8c>
    4ad8:	2b00      	cmp	r3, #0
    4ada:	d058      	beq.n	4b8e <__aeabi_fsub+0x2c6>
    4adc:	43d2      	mvns	r2, r2
    4ade:	2a00      	cmp	r2, #0
    4ae0:	d0ee      	beq.n	4ac0 <__aeabi_fsub+0x1f8>
    4ae2:	28ff      	cmp	r0, #255	; 0xff
    4ae4:	d1e1      	bne.n	4aaa <__aeabi_fsub+0x1e2>
    4ae6:	0033      	movs	r3, r6
    4ae8:	24ff      	movs	r4, #255	; 0xff
    4aea:	000d      	movs	r5, r1
    4aec:	e732      	b.n	4954 <__aeabi_fsub+0x8c>
    4aee:	29ff      	cmp	r1, #255	; 0xff
    4af0:	d010      	beq.n	4b14 <__aeabi_fsub+0x24c>
    4af2:	0001      	movs	r1, r0
    4af4:	e778      	b.n	49e8 <__aeabi_fsub+0x120>
    4af6:	2b00      	cmp	r3, #0
    4af8:	d06e      	beq.n	4bd8 <__aeabi_fsub+0x310>
    4afa:	24ff      	movs	r4, #255	; 0xff
    4afc:	2e00      	cmp	r6, #0
    4afe:	d100      	bne.n	4b02 <__aeabi_fsub+0x23a>
    4b00:	e728      	b.n	4954 <__aeabi_fsub+0x8c>
    4b02:	2280      	movs	r2, #128	; 0x80
    4b04:	4651      	mov	r1, r10
    4b06:	03d2      	lsls	r2, r2, #15
    4b08:	4211      	tst	r1, r2
    4b0a:	d003      	beq.n	4b14 <__aeabi_fsub+0x24c>
    4b0c:	4661      	mov	r1, r12
    4b0e:	4211      	tst	r1, r2
    4b10:	d100      	bne.n	4b14 <__aeabi_fsub+0x24c>
    4b12:	0033      	movs	r3, r6
    4b14:	24ff      	movs	r4, #255	; 0xff
    4b16:	e71d      	b.n	4954 <__aeabi_fsub+0x8c>
    4b18:	24ff      	movs	r4, #255	; 0xff
    4b1a:	2300      	movs	r3, #0
    4b1c:	e72c      	b.n	4978 <__aeabi_fsub+0xb0>
    4b1e:	2c00      	cmp	r4, #0
    4b20:	d1e9      	bne.n	4af6 <__aeabi_fsub+0x22e>
    4b22:	2b00      	cmp	r3, #0
    4b24:	d063      	beq.n	4bee <__aeabi_fsub+0x326>
    4b26:	2e00      	cmp	r6, #0
    4b28:	d100      	bne.n	4b2c <__aeabi_fsub+0x264>
    4b2a:	e713      	b.n	4954 <__aeabi_fsub+0x8c>
    4b2c:	199b      	adds	r3, r3, r6
    4b2e:	015a      	lsls	r2, r3, #5
    4b30:	d400      	bmi.n	4b34 <__aeabi_fsub+0x26c>
    4b32:	e73e      	b.n	49b2 <__aeabi_fsub+0xea>
    4b34:	4a31      	ldr	r2, [pc, #196]	; (4bfc <__aeabi_fsub+0x334>)
    4b36:	000c      	movs	r4, r1
    4b38:	4013      	ands	r3, r2
    4b3a:	e70b      	b.n	4954 <__aeabi_fsub+0x8c>
    4b3c:	2c00      	cmp	r4, #0
    4b3e:	d11e      	bne.n	4b7e <__aeabi_fsub+0x2b6>
    4b40:	2b00      	cmp	r3, #0
    4b42:	d12f      	bne.n	4ba4 <__aeabi_fsub+0x2dc>
    4b44:	2e00      	cmp	r6, #0
    4b46:	d04f      	beq.n	4be8 <__aeabi_fsub+0x320>
    4b48:	0033      	movs	r3, r6
    4b4a:	000d      	movs	r5, r1
    4b4c:	e702      	b.n	4954 <__aeabi_fsub+0x8c>
    4b4e:	2601      	movs	r6, #1
    4b50:	e755      	b.n	49fe <__aeabi_fsub+0x136>
    4b52:	2c00      	cmp	r4, #0
    4b54:	d11f      	bne.n	4b96 <__aeabi_fsub+0x2ce>
    4b56:	2b00      	cmp	r3, #0
    4b58:	d043      	beq.n	4be2 <__aeabi_fsub+0x31a>
    4b5a:	43c9      	mvns	r1, r1
    4b5c:	2900      	cmp	r1, #0
    4b5e:	d00b      	beq.n	4b78 <__aeabi_fsub+0x2b0>
    4b60:	28ff      	cmp	r0, #255	; 0xff
    4b62:	d039      	beq.n	4bd8 <__aeabi_fsub+0x310>
    4b64:	291b      	cmp	r1, #27
    4b66:	dc44      	bgt.n	4bf2 <__aeabi_fsub+0x32a>
    4b68:	001c      	movs	r4, r3
    4b6a:	2720      	movs	r7, #32
    4b6c:	40cc      	lsrs	r4, r1
    4b6e:	1a79      	subs	r1, r7, r1
    4b70:	408b      	lsls	r3, r1
    4b72:	1e59      	subs	r1, r3, #1
    4b74:	418b      	sbcs	r3, r1
    4b76:	4323      	orrs	r3, r4
    4b78:	199b      	adds	r3, r3, r6
    4b7a:	0004      	movs	r4, r0
    4b7c:	e740      	b.n	4a00 <__aeabi_fsub+0x138>
    4b7e:	2b00      	cmp	r3, #0
    4b80:	d11a      	bne.n	4bb8 <__aeabi_fsub+0x2f0>
    4b82:	2e00      	cmp	r6, #0
    4b84:	d124      	bne.n	4bd0 <__aeabi_fsub+0x308>
    4b86:	2780      	movs	r7, #128	; 0x80
    4b88:	2200      	movs	r2, #0
    4b8a:	03ff      	lsls	r7, r7, #15
    4b8c:	e71b      	b.n	49c6 <__aeabi_fsub+0xfe>
    4b8e:	0033      	movs	r3, r6
    4b90:	0004      	movs	r4, r0
    4b92:	000d      	movs	r5, r1
    4b94:	e6de      	b.n	4954 <__aeabi_fsub+0x8c>
    4b96:	28ff      	cmp	r0, #255	; 0xff
    4b98:	d01e      	beq.n	4bd8 <__aeabi_fsub+0x310>
    4b9a:	2480      	movs	r4, #128	; 0x80
    4b9c:	04e4      	lsls	r4, r4, #19
    4b9e:	4249      	negs	r1, r1
    4ba0:	4323      	orrs	r3, r4
    4ba2:	e7df      	b.n	4b64 <__aeabi_fsub+0x29c>
    4ba4:	2e00      	cmp	r6, #0
    4ba6:	d100      	bne.n	4baa <__aeabi_fsub+0x2e2>
    4ba8:	e6d4      	b.n	4954 <__aeabi_fsub+0x8c>
    4baa:	1b9f      	subs	r7, r3, r6
    4bac:	017a      	lsls	r2, r7, #5
    4bae:	d400      	bmi.n	4bb2 <__aeabi_fsub+0x2ea>
    4bb0:	e737      	b.n	4a22 <__aeabi_fsub+0x15a>
    4bb2:	1af3      	subs	r3, r6, r3
    4bb4:	000d      	movs	r5, r1
    4bb6:	e6cd      	b.n	4954 <__aeabi_fsub+0x8c>
    4bb8:	24ff      	movs	r4, #255	; 0xff
    4bba:	2e00      	cmp	r6, #0
    4bbc:	d100      	bne.n	4bc0 <__aeabi_fsub+0x2f8>
    4bbe:	e6c9      	b.n	4954 <__aeabi_fsub+0x8c>
    4bc0:	2280      	movs	r2, #128	; 0x80
    4bc2:	4650      	mov	r0, r10
    4bc4:	03d2      	lsls	r2, r2, #15
    4bc6:	4210      	tst	r0, r2
    4bc8:	d0a4      	beq.n	4b14 <__aeabi_fsub+0x24c>
    4bca:	4660      	mov	r0, r12
    4bcc:	4210      	tst	r0, r2
    4bce:	d1a1      	bne.n	4b14 <__aeabi_fsub+0x24c>
    4bd0:	0033      	movs	r3, r6
    4bd2:	000d      	movs	r5, r1
    4bd4:	24ff      	movs	r4, #255	; 0xff
    4bd6:	e6bd      	b.n	4954 <__aeabi_fsub+0x8c>
    4bd8:	0033      	movs	r3, r6
    4bda:	24ff      	movs	r4, #255	; 0xff
    4bdc:	e6ba      	b.n	4954 <__aeabi_fsub+0x8c>
    4bde:	2301      	movs	r3, #1
    4be0:	e76e      	b.n	4ac0 <__aeabi_fsub+0x1f8>
    4be2:	0033      	movs	r3, r6
    4be4:	0004      	movs	r4, r0
    4be6:	e6b5      	b.n	4954 <__aeabi_fsub+0x8c>
    4be8:	2700      	movs	r7, #0
    4bea:	2200      	movs	r2, #0
    4bec:	e71c      	b.n	4a28 <__aeabi_fsub+0x160>
    4bee:	0033      	movs	r3, r6
    4bf0:	e6b0      	b.n	4954 <__aeabi_fsub+0x8c>
    4bf2:	2301      	movs	r3, #1
    4bf4:	e7c0      	b.n	4b78 <__aeabi_fsub+0x2b0>
    4bf6:	46c0      	nop			; (mov r8, r8)
    4bf8:	7dffffff 	.word	0x7dffffff
    4bfc:	fbffffff 	.word	0xfbffffff

00004c00 <__aeabi_f2iz>:
    4c00:	0241      	lsls	r1, r0, #9
    4c02:	0043      	lsls	r3, r0, #1
    4c04:	0fc2      	lsrs	r2, r0, #31
    4c06:	0a49      	lsrs	r1, r1, #9
    4c08:	0e1b      	lsrs	r3, r3, #24
    4c0a:	2000      	movs	r0, #0
    4c0c:	2b7e      	cmp	r3, #126	; 0x7e
    4c0e:	dd0d      	ble.n	4c2c <__aeabi_f2iz+0x2c>
    4c10:	2b9d      	cmp	r3, #157	; 0x9d
    4c12:	dc0c      	bgt.n	4c2e <__aeabi_f2iz+0x2e>
    4c14:	2080      	movs	r0, #128	; 0x80
    4c16:	0400      	lsls	r0, r0, #16
    4c18:	4301      	orrs	r1, r0
    4c1a:	2b95      	cmp	r3, #149	; 0x95
    4c1c:	dc0a      	bgt.n	4c34 <__aeabi_f2iz+0x34>
    4c1e:	2096      	movs	r0, #150	; 0x96
    4c20:	1ac3      	subs	r3, r0, r3
    4c22:	40d9      	lsrs	r1, r3
    4c24:	4248      	negs	r0, r1
    4c26:	2a00      	cmp	r2, #0
    4c28:	d100      	bne.n	4c2c <__aeabi_f2iz+0x2c>
    4c2a:	0008      	movs	r0, r1
    4c2c:	4770      	bx	lr
    4c2e:	4b03      	ldr	r3, [pc, #12]	; (4c3c <__aeabi_f2iz+0x3c>)
    4c30:	18d0      	adds	r0, r2, r3
    4c32:	e7fb      	b.n	4c2c <__aeabi_f2iz+0x2c>
    4c34:	3b96      	subs	r3, #150	; 0x96
    4c36:	4099      	lsls	r1, r3
    4c38:	e7f4      	b.n	4c24 <__aeabi_f2iz+0x24>
    4c3a:	46c0      	nop			; (mov r8, r8)
    4c3c:	7fffffff 	.word	0x7fffffff

00004c40 <__aeabi_i2f>:
    4c40:	b570      	push	{r4, r5, r6, lr}
    4c42:	2800      	cmp	r0, #0
    4c44:	d030      	beq.n	4ca8 <__aeabi_i2f+0x68>
    4c46:	17c3      	asrs	r3, r0, #31
    4c48:	18c4      	adds	r4, r0, r3
    4c4a:	405c      	eors	r4, r3
    4c4c:	0fc5      	lsrs	r5, r0, #31
    4c4e:	0020      	movs	r0, r4
    4c50:	f000 f88c 	bl	4d6c <__clzsi2>
    4c54:	239e      	movs	r3, #158	; 0x9e
    4c56:	1a1b      	subs	r3, r3, r0
    4c58:	2b96      	cmp	r3, #150	; 0x96
    4c5a:	dc0d      	bgt.n	4c78 <__aeabi_i2f+0x38>
    4c5c:	2296      	movs	r2, #150	; 0x96
    4c5e:	1ad2      	subs	r2, r2, r3
    4c60:	4094      	lsls	r4, r2
    4c62:	002a      	movs	r2, r5
    4c64:	0264      	lsls	r4, r4, #9
    4c66:	0a64      	lsrs	r4, r4, #9
    4c68:	b2db      	uxtb	r3, r3
    4c6a:	0264      	lsls	r4, r4, #9
    4c6c:	05db      	lsls	r3, r3, #23
    4c6e:	0a60      	lsrs	r0, r4, #9
    4c70:	07d2      	lsls	r2, r2, #31
    4c72:	4318      	orrs	r0, r3
    4c74:	4310      	orrs	r0, r2
    4c76:	bd70      	pop	{r4, r5, r6, pc}
    4c78:	2b99      	cmp	r3, #153	; 0x99
    4c7a:	dc19      	bgt.n	4cb0 <__aeabi_i2f+0x70>
    4c7c:	2299      	movs	r2, #153	; 0x99
    4c7e:	1ad2      	subs	r2, r2, r3
    4c80:	2a00      	cmp	r2, #0
    4c82:	dd29      	ble.n	4cd8 <__aeabi_i2f+0x98>
    4c84:	4094      	lsls	r4, r2
    4c86:	0022      	movs	r2, r4
    4c88:	4c14      	ldr	r4, [pc, #80]	; (4cdc <__aeabi_i2f+0x9c>)
    4c8a:	4014      	ands	r4, r2
    4c8c:	0751      	lsls	r1, r2, #29
    4c8e:	d004      	beq.n	4c9a <__aeabi_i2f+0x5a>
    4c90:	210f      	movs	r1, #15
    4c92:	400a      	ands	r2, r1
    4c94:	2a04      	cmp	r2, #4
    4c96:	d000      	beq.n	4c9a <__aeabi_i2f+0x5a>
    4c98:	3404      	adds	r4, #4
    4c9a:	0162      	lsls	r2, r4, #5
    4c9c:	d413      	bmi.n	4cc6 <__aeabi_i2f+0x86>
    4c9e:	01a4      	lsls	r4, r4, #6
    4ca0:	0a64      	lsrs	r4, r4, #9
    4ca2:	b2db      	uxtb	r3, r3
    4ca4:	002a      	movs	r2, r5
    4ca6:	e7e0      	b.n	4c6a <__aeabi_i2f+0x2a>
    4ca8:	2200      	movs	r2, #0
    4caa:	2300      	movs	r3, #0
    4cac:	2400      	movs	r4, #0
    4cae:	e7dc      	b.n	4c6a <__aeabi_i2f+0x2a>
    4cb0:	2205      	movs	r2, #5
    4cb2:	0021      	movs	r1, r4
    4cb4:	1a12      	subs	r2, r2, r0
    4cb6:	40d1      	lsrs	r1, r2
    4cb8:	22b9      	movs	r2, #185	; 0xb9
    4cba:	1ad2      	subs	r2, r2, r3
    4cbc:	4094      	lsls	r4, r2
    4cbe:	1e62      	subs	r2, r4, #1
    4cc0:	4194      	sbcs	r4, r2
    4cc2:	430c      	orrs	r4, r1
    4cc4:	e7da      	b.n	4c7c <__aeabi_i2f+0x3c>
    4cc6:	4b05      	ldr	r3, [pc, #20]	; (4cdc <__aeabi_i2f+0x9c>)
    4cc8:	002a      	movs	r2, r5
    4cca:	401c      	ands	r4, r3
    4ccc:	239f      	movs	r3, #159	; 0x9f
    4cce:	01a4      	lsls	r4, r4, #6
    4cd0:	1a1b      	subs	r3, r3, r0
    4cd2:	0a64      	lsrs	r4, r4, #9
    4cd4:	b2db      	uxtb	r3, r3
    4cd6:	e7c8      	b.n	4c6a <__aeabi_i2f+0x2a>
    4cd8:	0022      	movs	r2, r4
    4cda:	e7d5      	b.n	4c88 <__aeabi_i2f+0x48>
    4cdc:	fbffffff 	.word	0xfbffffff

00004ce0 <__aeabi_ui2f>:
    4ce0:	b510      	push	{r4, lr}
    4ce2:	1e04      	subs	r4, r0, #0
    4ce4:	d027      	beq.n	4d36 <__aeabi_ui2f+0x56>
    4ce6:	f000 f841 	bl	4d6c <__clzsi2>
    4cea:	239e      	movs	r3, #158	; 0x9e
    4cec:	1a1b      	subs	r3, r3, r0
    4cee:	2b96      	cmp	r3, #150	; 0x96
    4cf0:	dc0a      	bgt.n	4d08 <__aeabi_ui2f+0x28>
    4cf2:	2296      	movs	r2, #150	; 0x96
    4cf4:	1ad2      	subs	r2, r2, r3
    4cf6:	4094      	lsls	r4, r2
    4cf8:	0264      	lsls	r4, r4, #9
    4cfa:	0a64      	lsrs	r4, r4, #9
    4cfc:	b2db      	uxtb	r3, r3
    4cfe:	0264      	lsls	r4, r4, #9
    4d00:	05db      	lsls	r3, r3, #23
    4d02:	0a60      	lsrs	r0, r4, #9
    4d04:	4318      	orrs	r0, r3
    4d06:	bd10      	pop	{r4, pc}
    4d08:	2b99      	cmp	r3, #153	; 0x99
    4d0a:	dc17      	bgt.n	4d3c <__aeabi_ui2f+0x5c>
    4d0c:	2299      	movs	r2, #153	; 0x99
    4d0e:	1ad2      	subs	r2, r2, r3
    4d10:	2a00      	cmp	r2, #0
    4d12:	dd27      	ble.n	4d64 <__aeabi_ui2f+0x84>
    4d14:	4094      	lsls	r4, r2
    4d16:	0022      	movs	r2, r4
    4d18:	4c13      	ldr	r4, [pc, #76]	; (4d68 <__aeabi_ui2f+0x88>)
    4d1a:	4014      	ands	r4, r2
    4d1c:	0751      	lsls	r1, r2, #29
    4d1e:	d004      	beq.n	4d2a <__aeabi_ui2f+0x4a>
    4d20:	210f      	movs	r1, #15
    4d22:	400a      	ands	r2, r1
    4d24:	2a04      	cmp	r2, #4
    4d26:	d000      	beq.n	4d2a <__aeabi_ui2f+0x4a>
    4d28:	3404      	adds	r4, #4
    4d2a:	0162      	lsls	r2, r4, #5
    4d2c:	d412      	bmi.n	4d54 <__aeabi_ui2f+0x74>
    4d2e:	01a4      	lsls	r4, r4, #6
    4d30:	0a64      	lsrs	r4, r4, #9
    4d32:	b2db      	uxtb	r3, r3
    4d34:	e7e3      	b.n	4cfe <__aeabi_ui2f+0x1e>
    4d36:	2300      	movs	r3, #0
    4d38:	2400      	movs	r4, #0
    4d3a:	e7e0      	b.n	4cfe <__aeabi_ui2f+0x1e>
    4d3c:	22b9      	movs	r2, #185	; 0xb9
    4d3e:	0021      	movs	r1, r4
    4d40:	1ad2      	subs	r2, r2, r3
    4d42:	4091      	lsls	r1, r2
    4d44:	000a      	movs	r2, r1
    4d46:	1e51      	subs	r1, r2, #1
    4d48:	418a      	sbcs	r2, r1
    4d4a:	2105      	movs	r1, #5
    4d4c:	1a09      	subs	r1, r1, r0
    4d4e:	40cc      	lsrs	r4, r1
    4d50:	4314      	orrs	r4, r2
    4d52:	e7db      	b.n	4d0c <__aeabi_ui2f+0x2c>
    4d54:	4b04      	ldr	r3, [pc, #16]	; (4d68 <__aeabi_ui2f+0x88>)
    4d56:	401c      	ands	r4, r3
    4d58:	239f      	movs	r3, #159	; 0x9f
    4d5a:	01a4      	lsls	r4, r4, #6
    4d5c:	1a1b      	subs	r3, r3, r0
    4d5e:	0a64      	lsrs	r4, r4, #9
    4d60:	b2db      	uxtb	r3, r3
    4d62:	e7cc      	b.n	4cfe <__aeabi_ui2f+0x1e>
    4d64:	0022      	movs	r2, r4
    4d66:	e7d7      	b.n	4d18 <__aeabi_ui2f+0x38>
    4d68:	fbffffff 	.word	0xfbffffff

00004d6c <__clzsi2>:
    4d6c:	211c      	movs	r1, #28
    4d6e:	2301      	movs	r3, #1
    4d70:	041b      	lsls	r3, r3, #16
    4d72:	4298      	cmp	r0, r3
    4d74:	d301      	bcc.n	4d7a <__clzsi2+0xe>
    4d76:	0c00      	lsrs	r0, r0, #16
    4d78:	3910      	subs	r1, #16
    4d7a:	0a1b      	lsrs	r3, r3, #8
    4d7c:	4298      	cmp	r0, r3
    4d7e:	d301      	bcc.n	4d84 <__clzsi2+0x18>
    4d80:	0a00      	lsrs	r0, r0, #8
    4d82:	3908      	subs	r1, #8
    4d84:	091b      	lsrs	r3, r3, #4
    4d86:	4298      	cmp	r0, r3
    4d88:	d301      	bcc.n	4d8e <__clzsi2+0x22>
    4d8a:	0900      	lsrs	r0, r0, #4
    4d8c:	3904      	subs	r1, #4
    4d8e:	a202      	add	r2, pc, #8	; (adr r2, 4d98 <__clzsi2+0x2c>)
    4d90:	5c10      	ldrb	r0, [r2, r0]
    4d92:	1840      	adds	r0, r0, r1
    4d94:	4770      	bx	lr
    4d96:	46c0      	nop			; (mov r8, r8)
    4d98:	02020304 	.word	0x02020304
    4d9c:	01010101 	.word	0x01010101
	...

00004da8 <__errno>:
    4da8:	4b01      	ldr	r3, [pc, #4]	; (4db0 <__errno+0x8>)
    4daa:	6818      	ldr	r0, [r3, #0]
    4dac:	4770      	bx	lr
    4dae:	46c0      	nop			; (mov r8, r8)
    4db0:	1ffff0e8 	.word	0x1ffff0e8

00004db4 <_fclose_r>:
    4db4:	b570      	push	{r4, r5, r6, lr}
    4db6:	0005      	movs	r5, r0
    4db8:	1e0c      	subs	r4, r1, #0
    4dba:	d102      	bne.n	4dc2 <_fclose_r+0xe>
    4dbc:	2600      	movs	r6, #0
    4dbe:	0030      	movs	r0, r6
    4dc0:	bd70      	pop	{r4, r5, r6, pc}
    4dc2:	2800      	cmp	r0, #0
    4dc4:	d004      	beq.n	4dd0 <_fclose_r+0x1c>
    4dc6:	6983      	ldr	r3, [r0, #24]
    4dc8:	2b00      	cmp	r3, #0
    4dca:	d101      	bne.n	4dd0 <_fclose_r+0x1c>
    4dcc:	f000 f998 	bl	5100 <__sinit>
    4dd0:	4b21      	ldr	r3, [pc, #132]	; (4e58 <_fclose_r+0xa4>)
    4dd2:	429c      	cmp	r4, r3
    4dd4:	d135      	bne.n	4e42 <_fclose_r+0x8e>
    4dd6:	686c      	ldr	r4, [r5, #4]
    4dd8:	220c      	movs	r2, #12
    4dda:	5ea3      	ldrsh	r3, [r4, r2]
    4ddc:	2b00      	cmp	r3, #0
    4dde:	d0ed      	beq.n	4dbc <_fclose_r+0x8>
    4de0:	0021      	movs	r1, r4
    4de2:	0028      	movs	r0, r5
    4de4:	f000 f848 	bl	4e78 <__sflush_r>
    4de8:	6b23      	ldr	r3, [r4, #48]	; 0x30
    4dea:	0006      	movs	r6, r0
    4dec:	2b00      	cmp	r3, #0
    4dee:	d006      	beq.n	4dfe <_fclose_r+0x4a>
    4df0:	6a21      	ldr	r1, [r4, #32]
    4df2:	0028      	movs	r0, r5
    4df4:	4798      	blx	r3
    4df6:	2800      	cmp	r0, #0
    4df8:	da01      	bge.n	4dfe <_fclose_r+0x4a>
    4dfa:	2601      	movs	r6, #1
    4dfc:	4276      	negs	r6, r6
    4dfe:	89a3      	ldrh	r3, [r4, #12]
    4e00:	061b      	lsls	r3, r3, #24
    4e02:	d503      	bpl.n	4e0c <_fclose_r+0x58>
    4e04:	6921      	ldr	r1, [r4, #16]
    4e06:	0028      	movs	r0, r5
    4e08:	f7fe fd04 	bl	3814 <__wrap__free_r>
    4e0c:	6b61      	ldr	r1, [r4, #52]	; 0x34
    4e0e:	2900      	cmp	r1, #0
    4e10:	d008      	beq.n	4e24 <_fclose_r+0x70>
    4e12:	0023      	movs	r3, r4
    4e14:	3344      	adds	r3, #68	; 0x44
    4e16:	4299      	cmp	r1, r3
    4e18:	d002      	beq.n	4e20 <_fclose_r+0x6c>
    4e1a:	0028      	movs	r0, r5
    4e1c:	f7fe fcfa 	bl	3814 <__wrap__free_r>
    4e20:	2300      	movs	r3, #0
    4e22:	6363      	str	r3, [r4, #52]	; 0x34
    4e24:	6ca1      	ldr	r1, [r4, #72]	; 0x48
    4e26:	2900      	cmp	r1, #0
    4e28:	d004      	beq.n	4e34 <_fclose_r+0x80>
    4e2a:	0028      	movs	r0, r5
    4e2c:	f7fe fcf2 	bl	3814 <__wrap__free_r>
    4e30:	2300      	movs	r3, #0
    4e32:	64a3      	str	r3, [r4, #72]	; 0x48
    4e34:	f000 f9d8 	bl	51e8 <__sfp_lock_acquire>
    4e38:	2300      	movs	r3, #0
    4e3a:	81a3      	strh	r3, [r4, #12]
    4e3c:	f000 f9d5 	bl	51ea <__sfp_lock_release>
    4e40:	e7bd      	b.n	4dbe <_fclose_r+0xa>
    4e42:	4b06      	ldr	r3, [pc, #24]	; (4e5c <_fclose_r+0xa8>)
    4e44:	429c      	cmp	r4, r3
    4e46:	d101      	bne.n	4e4c <_fclose_r+0x98>
    4e48:	68ac      	ldr	r4, [r5, #8]
    4e4a:	e7c5      	b.n	4dd8 <_fclose_r+0x24>
    4e4c:	4b04      	ldr	r3, [pc, #16]	; (4e60 <_fclose_r+0xac>)
    4e4e:	429c      	cmp	r4, r3
    4e50:	d1c2      	bne.n	4dd8 <_fclose_r+0x24>
    4e52:	68ec      	ldr	r4, [r5, #12]
    4e54:	e7c0      	b.n	4dd8 <_fclose_r+0x24>
    4e56:	46c0      	nop			; (mov r8, r8)
    4e58:	000078e0 	.word	0x000078e0
    4e5c:	00007900 	.word	0x00007900
    4e60:	000078c0 	.word	0x000078c0

00004e64 <fclose>:
    4e64:	b510      	push	{r4, lr}
    4e66:	4b03      	ldr	r3, [pc, #12]	; (4e74 <fclose+0x10>)
    4e68:	0001      	movs	r1, r0
    4e6a:	6818      	ldr	r0, [r3, #0]
    4e6c:	f7ff ffa2 	bl	4db4 <_fclose_r>
    4e70:	bd10      	pop	{r4, pc}
    4e72:	46c0      	nop			; (mov r8, r8)
    4e74:	1ffff0e8 	.word	0x1ffff0e8

00004e78 <__sflush_r>:
    4e78:	b5f7      	push	{r0, r1, r2, r4, r5, r6, r7, lr}
    4e7a:	898a      	ldrh	r2, [r1, #12]
    4e7c:	0005      	movs	r5, r0
    4e7e:	000c      	movs	r4, r1
    4e80:	0713      	lsls	r3, r2, #28
    4e82:	d460      	bmi.n	4f46 <__sflush_r+0xce>
    4e84:	684b      	ldr	r3, [r1, #4]
    4e86:	2b00      	cmp	r3, #0
    4e88:	dc04      	bgt.n	4e94 <__sflush_r+0x1c>
    4e8a:	6c0b      	ldr	r3, [r1, #64]	; 0x40
    4e8c:	2b00      	cmp	r3, #0
    4e8e:	dc01      	bgt.n	4e94 <__sflush_r+0x1c>
    4e90:	2000      	movs	r0, #0
    4e92:	bdfe      	pop	{r1, r2, r3, r4, r5, r6, r7, pc}
    4e94:	6ae7      	ldr	r7, [r4, #44]	; 0x2c
    4e96:	2f00      	cmp	r7, #0
    4e98:	d0fa      	beq.n	4e90 <__sflush_r+0x18>
    4e9a:	2300      	movs	r3, #0
    4e9c:	682e      	ldr	r6, [r5, #0]
    4e9e:	602b      	str	r3, [r5, #0]
    4ea0:	2380      	movs	r3, #128	; 0x80
    4ea2:	015b      	lsls	r3, r3, #5
    4ea4:	401a      	ands	r2, r3
    4ea6:	d034      	beq.n	4f12 <__sflush_r+0x9a>
    4ea8:	6d60      	ldr	r0, [r4, #84]	; 0x54
    4eaa:	89a3      	ldrh	r3, [r4, #12]
    4eac:	075b      	lsls	r3, r3, #29
    4eae:	d506      	bpl.n	4ebe <__sflush_r+0x46>
    4eb0:	6863      	ldr	r3, [r4, #4]
    4eb2:	1ac0      	subs	r0, r0, r3
    4eb4:	6b63      	ldr	r3, [r4, #52]	; 0x34
    4eb6:	2b00      	cmp	r3, #0
    4eb8:	d001      	beq.n	4ebe <__sflush_r+0x46>
    4eba:	6c23      	ldr	r3, [r4, #64]	; 0x40
    4ebc:	1ac0      	subs	r0, r0, r3
    4ebe:	0002      	movs	r2, r0
    4ec0:	6a21      	ldr	r1, [r4, #32]
    4ec2:	2300      	movs	r3, #0
    4ec4:	0028      	movs	r0, r5
    4ec6:	6ae7      	ldr	r7, [r4, #44]	; 0x2c
    4ec8:	47b8      	blx	r7
    4eca:	89a1      	ldrh	r1, [r4, #12]
    4ecc:	1c43      	adds	r3, r0, #1
    4ece:	d106      	bne.n	4ede <__sflush_r+0x66>
    4ed0:	682b      	ldr	r3, [r5, #0]
    4ed2:	2b1d      	cmp	r3, #29
    4ed4:	d831      	bhi.n	4f3a <__sflush_r+0xc2>
    4ed6:	4a2c      	ldr	r2, [pc, #176]	; (4f88 <__sflush_r+0x110>)
    4ed8:	40da      	lsrs	r2, r3
    4eda:	07d3      	lsls	r3, r2, #31
    4edc:	d52d      	bpl.n	4f3a <__sflush_r+0xc2>
    4ede:	2300      	movs	r3, #0
    4ee0:	6063      	str	r3, [r4, #4]
    4ee2:	6923      	ldr	r3, [r4, #16]
    4ee4:	6023      	str	r3, [r4, #0]
    4ee6:	04cb      	lsls	r3, r1, #19
    4ee8:	d505      	bpl.n	4ef6 <__sflush_r+0x7e>
    4eea:	1c43      	adds	r3, r0, #1
    4eec:	d102      	bne.n	4ef4 <__sflush_r+0x7c>
    4eee:	682b      	ldr	r3, [r5, #0]
    4ef0:	2b00      	cmp	r3, #0
    4ef2:	d100      	bne.n	4ef6 <__sflush_r+0x7e>
    4ef4:	6560      	str	r0, [r4, #84]	; 0x54
    4ef6:	6b61      	ldr	r1, [r4, #52]	; 0x34
    4ef8:	602e      	str	r6, [r5, #0]
    4efa:	2900      	cmp	r1, #0
    4efc:	d0c8      	beq.n	4e90 <__sflush_r+0x18>
    4efe:	0023      	movs	r3, r4
    4f00:	3344      	adds	r3, #68	; 0x44
    4f02:	4299      	cmp	r1, r3
    4f04:	d002      	beq.n	4f0c <__sflush_r+0x94>
    4f06:	0028      	movs	r0, r5
    4f08:	f7fe fc84 	bl	3814 <__wrap__free_r>
    4f0c:	2000      	movs	r0, #0
    4f0e:	6360      	str	r0, [r4, #52]	; 0x34
    4f10:	e7bf      	b.n	4e92 <__sflush_r+0x1a>
    4f12:	2301      	movs	r3, #1
    4f14:	6a21      	ldr	r1, [r4, #32]
    4f16:	0028      	movs	r0, r5
    4f18:	47b8      	blx	r7
    4f1a:	1c43      	adds	r3, r0, #1
    4f1c:	d1c5      	bne.n	4eaa <__sflush_r+0x32>
    4f1e:	682b      	ldr	r3, [r5, #0]
    4f20:	2b00      	cmp	r3, #0
    4f22:	d0c2      	beq.n	4eaa <__sflush_r+0x32>
    4f24:	2b1d      	cmp	r3, #29
    4f26:	d001      	beq.n	4f2c <__sflush_r+0xb4>
    4f28:	2b16      	cmp	r3, #22
    4f2a:	d101      	bne.n	4f30 <__sflush_r+0xb8>
    4f2c:	602e      	str	r6, [r5, #0]
    4f2e:	e7af      	b.n	4e90 <__sflush_r+0x18>
    4f30:	2340      	movs	r3, #64	; 0x40
    4f32:	89a2      	ldrh	r2, [r4, #12]
    4f34:	4313      	orrs	r3, r2
    4f36:	81a3      	strh	r3, [r4, #12]
    4f38:	e7ab      	b.n	4e92 <__sflush_r+0x1a>
    4f3a:	2340      	movs	r3, #64	; 0x40
    4f3c:	430b      	orrs	r3, r1
    4f3e:	2001      	movs	r0, #1
    4f40:	81a3      	strh	r3, [r4, #12]
    4f42:	4240      	negs	r0, r0
    4f44:	e7a5      	b.n	4e92 <__sflush_r+0x1a>
    4f46:	690f      	ldr	r7, [r1, #16]
    4f48:	2f00      	cmp	r7, #0
    4f4a:	d0a1      	beq.n	4e90 <__sflush_r+0x18>
    4f4c:	680b      	ldr	r3, [r1, #0]
    4f4e:	600f      	str	r7, [r1, #0]
    4f50:	1bdb      	subs	r3, r3, r7
    4f52:	9301      	str	r3, [sp, #4]
    4f54:	2300      	movs	r3, #0
    4f56:	0792      	lsls	r2, r2, #30
    4f58:	d100      	bne.n	4f5c <__sflush_r+0xe4>
    4f5a:	694b      	ldr	r3, [r1, #20]
    4f5c:	60a3      	str	r3, [r4, #8]
    4f5e:	9b01      	ldr	r3, [sp, #4]
    4f60:	2b00      	cmp	r3, #0
    4f62:	dc00      	bgt.n	4f66 <__sflush_r+0xee>
    4f64:	e794      	b.n	4e90 <__sflush_r+0x18>
    4f66:	9b01      	ldr	r3, [sp, #4]
    4f68:	003a      	movs	r2, r7
    4f6a:	6a21      	ldr	r1, [r4, #32]
    4f6c:	0028      	movs	r0, r5
    4f6e:	6aa6      	ldr	r6, [r4, #40]	; 0x28
    4f70:	47b0      	blx	r6
    4f72:	2800      	cmp	r0, #0
    4f74:	dc03      	bgt.n	4f7e <__sflush_r+0x106>
    4f76:	2340      	movs	r3, #64	; 0x40
    4f78:	89a2      	ldrh	r2, [r4, #12]
    4f7a:	4313      	orrs	r3, r2
    4f7c:	e7df      	b.n	4f3e <__sflush_r+0xc6>
    4f7e:	9b01      	ldr	r3, [sp, #4]
    4f80:	183f      	adds	r7, r7, r0
    4f82:	1a1b      	subs	r3, r3, r0
    4f84:	9301      	str	r3, [sp, #4]
    4f86:	e7ea      	b.n	4f5e <__sflush_r+0xe6>
    4f88:	20400001 	.word	0x20400001

00004f8c <_fflush_r>:
    4f8c:	690b      	ldr	r3, [r1, #16]
    4f8e:	b570      	push	{r4, r5, r6, lr}
    4f90:	0005      	movs	r5, r0
    4f92:	000c      	movs	r4, r1
    4f94:	2b00      	cmp	r3, #0
    4f96:	d101      	bne.n	4f9c <_fflush_r+0x10>
    4f98:	2000      	movs	r0, #0
    4f9a:	bd70      	pop	{r4, r5, r6, pc}
    4f9c:	2800      	cmp	r0, #0
    4f9e:	d004      	beq.n	4faa <_fflush_r+0x1e>
    4fa0:	6983      	ldr	r3, [r0, #24]
    4fa2:	2b00      	cmp	r3, #0
    4fa4:	d101      	bne.n	4faa <_fflush_r+0x1e>
    4fa6:	f000 f8ab 	bl	5100 <__sinit>
    4faa:	4b0b      	ldr	r3, [pc, #44]	; (4fd8 <_fflush_r+0x4c>)
    4fac:	429c      	cmp	r4, r3
    4fae:	d109      	bne.n	4fc4 <_fflush_r+0x38>
    4fb0:	686c      	ldr	r4, [r5, #4]
    4fb2:	220c      	movs	r2, #12
    4fb4:	5ea3      	ldrsh	r3, [r4, r2]
    4fb6:	2b00      	cmp	r3, #0
    4fb8:	d0ee      	beq.n	4f98 <_fflush_r+0xc>
    4fba:	0021      	movs	r1, r4
    4fbc:	0028      	movs	r0, r5
    4fbe:	f7ff ff5b 	bl	4e78 <__sflush_r>
    4fc2:	e7ea      	b.n	4f9a <_fflush_r+0xe>
    4fc4:	4b05      	ldr	r3, [pc, #20]	; (4fdc <_fflush_r+0x50>)
    4fc6:	429c      	cmp	r4, r3
    4fc8:	d101      	bne.n	4fce <_fflush_r+0x42>
    4fca:	68ac      	ldr	r4, [r5, #8]
    4fcc:	e7f1      	b.n	4fb2 <_fflush_r+0x26>
    4fce:	4b04      	ldr	r3, [pc, #16]	; (4fe0 <_fflush_r+0x54>)
    4fd0:	429c      	cmp	r4, r3
    4fd2:	d1ee      	bne.n	4fb2 <_fflush_r+0x26>
    4fd4:	68ec      	ldr	r4, [r5, #12]
    4fd6:	e7ec      	b.n	4fb2 <_fflush_r+0x26>
    4fd8:	000078e0 	.word	0x000078e0
    4fdc:	00007900 	.word	0x00007900
    4fe0:	000078c0 	.word	0x000078c0

00004fe4 <fflush>:
    4fe4:	b510      	push	{r4, lr}
    4fe6:	1e01      	subs	r1, r0, #0
    4fe8:	d105      	bne.n	4ff6 <fflush+0x12>
    4fea:	4b05      	ldr	r3, [pc, #20]	; (5000 <fflush+0x1c>)
    4fec:	4905      	ldr	r1, [pc, #20]	; (5004 <fflush+0x20>)
    4fee:	6818      	ldr	r0, [r3, #0]
    4ff0:	f000 f9fa 	bl	53e8 <_fwalk_reent>
    4ff4:	bd10      	pop	{r4, pc}
    4ff6:	4b04      	ldr	r3, [pc, #16]	; (5008 <fflush+0x24>)
    4ff8:	6818      	ldr	r0, [r3, #0]
    4ffa:	f7ff ffc7 	bl	4f8c <_fflush_r>
    4ffe:	e7f9      	b.n	4ff4 <fflush+0x10>
    5000:	00007920 	.word	0x00007920
    5004:	00004f8d 	.word	0x00004f8d
    5008:	1ffff0e8 	.word	0x1ffff0e8

0000500c <_fgetc_r>:
    500c:	b570      	push	{r4, r5, r6, lr}
    500e:	0005      	movs	r5, r0
    5010:	000c      	movs	r4, r1
    5012:	2800      	cmp	r0, #0
    5014:	d004      	beq.n	5020 <_fgetc_r+0x14>
    5016:	6983      	ldr	r3, [r0, #24]
    5018:	2b00      	cmp	r3, #0
    501a:	d101      	bne.n	5020 <_fgetc_r+0x14>
    501c:	f000 f870 	bl	5100 <__sinit>
    5020:	4b0e      	ldr	r3, [pc, #56]	; (505c <_fgetc_r+0x50>)
    5022:	429c      	cmp	r4, r3
    5024:	d10a      	bne.n	503c <_fgetc_r+0x30>
    5026:	686c      	ldr	r4, [r5, #4]
    5028:	6863      	ldr	r3, [r4, #4]
    502a:	3b01      	subs	r3, #1
    502c:	6063      	str	r3, [r4, #4]
    502e:	2b00      	cmp	r3, #0
    5030:	da0e      	bge.n	5050 <_fgetc_r+0x44>
    5032:	0021      	movs	r1, r4
    5034:	0028      	movs	r0, r5
    5036:	f001 f885 	bl	6144 <__srget_r>
    503a:	bd70      	pop	{r4, r5, r6, pc}
    503c:	4b08      	ldr	r3, [pc, #32]	; (5060 <_fgetc_r+0x54>)
    503e:	429c      	cmp	r4, r3
    5040:	d101      	bne.n	5046 <_fgetc_r+0x3a>
    5042:	68ac      	ldr	r4, [r5, #8]
    5044:	e7f0      	b.n	5028 <_fgetc_r+0x1c>
    5046:	4b07      	ldr	r3, [pc, #28]	; (5064 <_fgetc_r+0x58>)
    5048:	429c      	cmp	r4, r3
    504a:	d1ed      	bne.n	5028 <_fgetc_r+0x1c>
    504c:	68ec      	ldr	r4, [r5, #12]
    504e:	e7eb      	b.n	5028 <_fgetc_r+0x1c>
    5050:	6823      	ldr	r3, [r4, #0]
    5052:	1c5a      	adds	r2, r3, #1
    5054:	6022      	str	r2, [r4, #0]
    5056:	7818      	ldrb	r0, [r3, #0]
    5058:	e7ef      	b.n	503a <_fgetc_r+0x2e>
    505a:	46c0      	nop			; (mov r8, r8)
    505c:	000078e0 	.word	0x000078e0
    5060:	00007900 	.word	0x00007900
    5064:	000078c0 	.word	0x000078c0

00005068 <fgetc>:
    5068:	b510      	push	{r4, lr}
    506a:	4b03      	ldr	r3, [pc, #12]	; (5078 <fgetc+0x10>)
    506c:	0001      	movs	r1, r0
    506e:	6818      	ldr	r0, [r3, #0]
    5070:	f7ff ffcc 	bl	500c <_fgetc_r>
    5074:	bd10      	pop	{r4, pc}
    5076:	46c0      	nop			; (mov r8, r8)
    5078:	1ffff0e8 	.word	0x1ffff0e8

0000507c <_cleanup_r>:
    507c:	b510      	push	{r4, lr}
    507e:	4902      	ldr	r1, [pc, #8]	; (5088 <_cleanup_r+0xc>)
    5080:	f000 f9b2 	bl	53e8 <_fwalk_reent>
    5084:	bd10      	pop	{r4, pc}
    5086:	46c0      	nop			; (mov r8, r8)
    5088:	00004f8d 	.word	0x00004f8d

0000508c <std.isra.0>:
    508c:	2300      	movs	r3, #0
    508e:	b510      	push	{r4, lr}
    5090:	0004      	movs	r4, r0
    5092:	6003      	str	r3, [r0, #0]
    5094:	6043      	str	r3, [r0, #4]
    5096:	6083      	str	r3, [r0, #8]
    5098:	8181      	strh	r1, [r0, #12]
    509a:	6643      	str	r3, [r0, #100]	; 0x64
    509c:	81c2      	strh	r2, [r0, #14]
    509e:	6103      	str	r3, [r0, #16]
    50a0:	6143      	str	r3, [r0, #20]
    50a2:	6183      	str	r3, [r0, #24]
    50a4:	0019      	movs	r1, r3
    50a6:	2208      	movs	r2, #8
    50a8:	305c      	adds	r0, #92	; 0x5c
    50aa:	f000 fa89 	bl	55c0 <memset>
    50ae:	4b05      	ldr	r3, [pc, #20]	; (50c4 <std.isra.0+0x38>)
    50b0:	6224      	str	r4, [r4, #32]
    50b2:	6263      	str	r3, [r4, #36]	; 0x24
    50b4:	4b04      	ldr	r3, [pc, #16]	; (50c8 <std.isra.0+0x3c>)
    50b6:	62a3      	str	r3, [r4, #40]	; 0x28
    50b8:	4b04      	ldr	r3, [pc, #16]	; (50cc <std.isra.0+0x40>)
    50ba:	62e3      	str	r3, [r4, #44]	; 0x2c
    50bc:	4b04      	ldr	r3, [pc, #16]	; (50d0 <std.isra.0+0x44>)
    50be:	6323      	str	r3, [r4, #48]	; 0x30
    50c0:	bd10      	pop	{r4, pc}
    50c2:	46c0      	nop			; (mov r8, r8)
    50c4:	00006429 	.word	0x00006429
    50c8:	00006455 	.word	0x00006455
    50cc:	0000648d 	.word	0x0000648d
    50d0:	000064b9 	.word	0x000064b9

000050d4 <__sfmoreglue>:
    50d4:	b570      	push	{r4, r5, r6, lr}
    50d6:	2568      	movs	r5, #104	; 0x68
    50d8:	1e4a      	subs	r2, r1, #1
    50da:	4355      	muls	r5, r2
    50dc:	000e      	movs	r6, r1
    50de:	0029      	movs	r1, r5
    50e0:	3174      	adds	r1, #116	; 0x74
    50e2:	f7fe fb8f 	bl	3804 <__wrap__malloc_r>
    50e6:	1e04      	subs	r4, r0, #0
    50e8:	d008      	beq.n	50fc <__sfmoreglue+0x28>
    50ea:	2100      	movs	r1, #0
    50ec:	002a      	movs	r2, r5
    50ee:	6001      	str	r1, [r0, #0]
    50f0:	6046      	str	r6, [r0, #4]
    50f2:	300c      	adds	r0, #12
    50f4:	60a0      	str	r0, [r4, #8]
    50f6:	3268      	adds	r2, #104	; 0x68
    50f8:	f000 fa62 	bl	55c0 <memset>
    50fc:	0020      	movs	r0, r4
    50fe:	bd70      	pop	{r4, r5, r6, pc}

00005100 <__sinit>:
    5100:	6983      	ldr	r3, [r0, #24]
    5102:	b513      	push	{r0, r1, r4, lr}
    5104:	0004      	movs	r4, r0
    5106:	2b00      	cmp	r3, #0
    5108:	d128      	bne.n	515c <__sinit+0x5c>
    510a:	6483      	str	r3, [r0, #72]	; 0x48
    510c:	64c3      	str	r3, [r0, #76]	; 0x4c
    510e:	6503      	str	r3, [r0, #80]	; 0x50
    5110:	4b13      	ldr	r3, [pc, #76]	; (5160 <__sinit+0x60>)
    5112:	4a14      	ldr	r2, [pc, #80]	; (5164 <__sinit+0x64>)
    5114:	681b      	ldr	r3, [r3, #0]
    5116:	6282      	str	r2, [r0, #40]	; 0x28
    5118:	9301      	str	r3, [sp, #4]
    511a:	4298      	cmp	r0, r3
    511c:	d101      	bne.n	5122 <__sinit+0x22>
    511e:	2301      	movs	r3, #1
    5120:	6183      	str	r3, [r0, #24]
    5122:	0020      	movs	r0, r4
    5124:	f000 f820 	bl	5168 <__sfp>
    5128:	6060      	str	r0, [r4, #4]
    512a:	0020      	movs	r0, r4
    512c:	f000 f81c 	bl	5168 <__sfp>
    5130:	60a0      	str	r0, [r4, #8]
    5132:	0020      	movs	r0, r4
    5134:	f000 f818 	bl	5168 <__sfp>
    5138:	2200      	movs	r2, #0
    513a:	60e0      	str	r0, [r4, #12]
    513c:	2104      	movs	r1, #4
    513e:	6860      	ldr	r0, [r4, #4]
    5140:	f7ff ffa4 	bl	508c <std.isra.0>
    5144:	2201      	movs	r2, #1
    5146:	2109      	movs	r1, #9
    5148:	68a0      	ldr	r0, [r4, #8]
    514a:	f7ff ff9f 	bl	508c <std.isra.0>
    514e:	2202      	movs	r2, #2
    5150:	2112      	movs	r1, #18
    5152:	68e0      	ldr	r0, [r4, #12]
    5154:	f7ff ff9a 	bl	508c <std.isra.0>
    5158:	2301      	movs	r3, #1
    515a:	61a3      	str	r3, [r4, #24]
    515c:	bd13      	pop	{r0, r1, r4, pc}
    515e:	46c0      	nop			; (mov r8, r8)
    5160:	00007920 	.word	0x00007920
    5164:	0000507d 	.word	0x0000507d

00005168 <__sfp>:
    5168:	b5f8      	push	{r3, r4, r5, r6, r7, lr}
    516a:	4b1e      	ldr	r3, [pc, #120]	; (51e4 <__sfp+0x7c>)
    516c:	0007      	movs	r7, r0
    516e:	681e      	ldr	r6, [r3, #0]
    5170:	69b3      	ldr	r3, [r6, #24]
    5172:	2b00      	cmp	r3, #0
    5174:	d102      	bne.n	517c <__sfp+0x14>
    5176:	0030      	movs	r0, r6
    5178:	f7ff ffc2 	bl	5100 <__sinit>
    517c:	3648      	adds	r6, #72	; 0x48
    517e:	68b4      	ldr	r4, [r6, #8]
    5180:	6873      	ldr	r3, [r6, #4]
    5182:	3b01      	subs	r3, #1
    5184:	d504      	bpl.n	5190 <__sfp+0x28>
    5186:	6833      	ldr	r3, [r6, #0]
    5188:	2b00      	cmp	r3, #0
    518a:	d007      	beq.n	519c <__sfp+0x34>
    518c:	6836      	ldr	r6, [r6, #0]
    518e:	e7f6      	b.n	517e <__sfp+0x16>
    5190:	220c      	movs	r2, #12
    5192:	5ea5      	ldrsh	r5, [r4, r2]
    5194:	2d00      	cmp	r5, #0
    5196:	d00d      	beq.n	51b4 <__sfp+0x4c>
    5198:	3468      	adds	r4, #104	; 0x68
    519a:	e7f2      	b.n	5182 <__sfp+0x1a>
    519c:	2104      	movs	r1, #4
    519e:	0038      	movs	r0, r7
    51a0:	f7ff ff98 	bl	50d4 <__sfmoreglue>
    51a4:	6030      	str	r0, [r6, #0]
    51a6:	2800      	cmp	r0, #0
    51a8:	d1f0      	bne.n	518c <__sfp+0x24>
    51aa:	230c      	movs	r3, #12
    51ac:	0004      	movs	r4, r0
    51ae:	603b      	str	r3, [r7, #0]
    51b0:	0020      	movs	r0, r4
    51b2:	bdf8      	pop	{r3, r4, r5, r6, r7, pc}
    51b4:	2301      	movs	r3, #1
    51b6:	0020      	movs	r0, r4
    51b8:	425b      	negs	r3, r3
    51ba:	81e3      	strh	r3, [r4, #14]
    51bc:	3302      	adds	r3, #2
    51be:	81a3      	strh	r3, [r4, #12]
    51c0:	6665      	str	r5, [r4, #100]	; 0x64
    51c2:	6025      	str	r5, [r4, #0]
    51c4:	60a5      	str	r5, [r4, #8]
    51c6:	6065      	str	r5, [r4, #4]
    51c8:	6125      	str	r5, [r4, #16]
    51ca:	6165      	str	r5, [r4, #20]
    51cc:	61a5      	str	r5, [r4, #24]
    51ce:	2208      	movs	r2, #8
    51d0:	0029      	movs	r1, r5
    51d2:	305c      	adds	r0, #92	; 0x5c
    51d4:	f000 f9f4 	bl	55c0 <memset>
    51d8:	6365      	str	r5, [r4, #52]	; 0x34
    51da:	63a5      	str	r5, [r4, #56]	; 0x38
    51dc:	64a5      	str	r5, [r4, #72]	; 0x48
    51de:	64e5      	str	r5, [r4, #76]	; 0x4c
    51e0:	e7e6      	b.n	51b0 <__sfp+0x48>
    51e2:	46c0      	nop			; (mov r8, r8)
    51e4:	00007920 	.word	0x00007920

000051e8 <__sfp_lock_acquire>:
    51e8:	4770      	bx	lr

000051ea <__sfp_lock_release>:
    51ea:	4770      	bx	lr

000051ec <_fopen_r>:
    51ec:	b5f7      	push	{r0, r1, r2, r4, r5, r6, r7, lr}
    51ee:	000f      	movs	r7, r1
    51f0:	0011      	movs	r1, r2
    51f2:	aa01      	add	r2, sp, #4
    51f4:	0005      	movs	r5, r0
    51f6:	f001 fbe5 	bl	69c4 <__sflags>
    51fa:	1e06      	subs	r6, r0, #0
    51fc:	d102      	bne.n	5204 <_fopen_r+0x18>
    51fe:	2400      	movs	r4, #0
    5200:	0020      	movs	r0, r4
    5202:	bdfe      	pop	{r1, r2, r3, r4, r5, r6, r7, pc}
    5204:	0028      	movs	r0, r5
    5206:	f7ff ffaf 	bl	5168 <__sfp>
    520a:	1e04      	subs	r4, r0, #0
    520c:	d0f7      	beq.n	51fe <_fopen_r+0x12>
    520e:	23db      	movs	r3, #219	; 0xdb
    5210:	9a01      	ldr	r2, [sp, #4]
    5212:	005b      	lsls	r3, r3, #1
    5214:	0039      	movs	r1, r7
    5216:	0028      	movs	r0, r5
    5218:	f000 fee4 	bl	5fe4 <_open_r>
    521c:	2800      	cmp	r0, #0
    521e:	da06      	bge.n	522e <_fopen_r+0x42>
    5220:	2500      	movs	r5, #0
    5222:	f7ff ffe1 	bl	51e8 <__sfp_lock_acquire>
    5226:	81a5      	strh	r5, [r4, #12]
    5228:	f7ff ffdf 	bl	51ea <__sfp_lock_release>
    522c:	e7e7      	b.n	51fe <_fopen_r+0x12>
    522e:	4b0a      	ldr	r3, [pc, #40]	; (5258 <_fopen_r+0x6c>)
    5230:	81e0      	strh	r0, [r4, #14]
    5232:	6263      	str	r3, [r4, #36]	; 0x24
    5234:	4b09      	ldr	r3, [pc, #36]	; (525c <_fopen_r+0x70>)
    5236:	81a6      	strh	r6, [r4, #12]
    5238:	62a3      	str	r3, [r4, #40]	; 0x28
    523a:	4b09      	ldr	r3, [pc, #36]	; (5260 <_fopen_r+0x74>)
    523c:	6224      	str	r4, [r4, #32]
    523e:	62e3      	str	r3, [r4, #44]	; 0x2c
    5240:	4b08      	ldr	r3, [pc, #32]	; (5264 <_fopen_r+0x78>)
    5242:	6323      	str	r3, [r4, #48]	; 0x30
    5244:	05f3      	lsls	r3, r6, #23
    5246:	d5db      	bpl.n	5200 <_fopen_r+0x14>
    5248:	2302      	movs	r3, #2
    524a:	2200      	movs	r2, #0
    524c:	0021      	movs	r1, r4
    524e:	0028      	movs	r0, r5
    5250:	f000 f814 	bl	527c <_fseek_r>
    5254:	e7d4      	b.n	5200 <_fopen_r+0x14>
    5256:	46c0      	nop			; (mov r8, r8)
    5258:	00006429 	.word	0x00006429
    525c:	00006455 	.word	0x00006455
    5260:	0000648d 	.word	0x0000648d
    5264:	000064b9 	.word	0x000064b9

00005268 <fopen>:
    5268:	b510      	push	{r4, lr}
    526a:	4b03      	ldr	r3, [pc, #12]	; (5278 <fopen+0x10>)
    526c:	000a      	movs	r2, r1
    526e:	0001      	movs	r1, r0
    5270:	6818      	ldr	r0, [r3, #0]
    5272:	f7ff ffbb 	bl	51ec <_fopen_r>
    5276:	bd10      	pop	{r4, pc}
    5278:	1ffff0e8 	.word	0x1ffff0e8

0000527c <_fseek_r>:
    527c:	b510      	push	{r4, lr}
    527e:	f000 f801 	bl	5284 <_fseeko_r>
    5282:	bd10      	pop	{r4, pc}

00005284 <_fseeko_r>:
    5284:	b5f7      	push	{r0, r1, r2, r4, r5, r6, r7, lr}
    5286:	0005      	movs	r5, r0
    5288:	000c      	movs	r4, r1
    528a:	9201      	str	r2, [sp, #4]
    528c:	001e      	movs	r6, r3
    528e:	2800      	cmp	r0, #0
    5290:	d004      	beq.n	529c <_fseeko_r+0x18>
    5292:	6983      	ldr	r3, [r0, #24]
    5294:	2b00      	cmp	r3, #0
    5296:	d101      	bne.n	529c <_fseeko_r+0x18>
    5298:	f7ff ff32 	bl	5100 <__sinit>
    529c:	4b40      	ldr	r3, [pc, #256]	; (53a0 <_fseeko_r+0x11c>)
    529e:	429c      	cmp	r4, r3
    52a0:	d111      	bne.n	52c6 <_fseeko_r+0x42>
    52a2:	686c      	ldr	r4, [r5, #4]
    52a4:	2284      	movs	r2, #132	; 0x84
    52a6:	89a3      	ldrh	r3, [r4, #12]
    52a8:	0052      	lsls	r2, r2, #1
    52aa:	4013      	ands	r3, r2
    52ac:	4293      	cmp	r3, r2
    52ae:	d103      	bne.n	52b8 <_fseeko_r+0x34>
    52b0:	0021      	movs	r1, r4
    52b2:	0028      	movs	r0, r5
    52b4:	f7ff fe6a 	bl	4f8c <_fflush_r>
    52b8:	6ae3      	ldr	r3, [r4, #44]	; 0x2c
    52ba:	9300      	str	r3, [sp, #0]
    52bc:	2b00      	cmp	r3, #0
    52be:	d10c      	bne.n	52da <_fseeko_r+0x56>
    52c0:	331d      	adds	r3, #29
    52c2:	602b      	str	r3, [r5, #0]
    52c4:	e05f      	b.n	5386 <_fseeko_r+0x102>
    52c6:	4b37      	ldr	r3, [pc, #220]	; (53a4 <_fseeko_r+0x120>)
    52c8:	429c      	cmp	r4, r3
    52ca:	d101      	bne.n	52d0 <_fseeko_r+0x4c>
    52cc:	68ac      	ldr	r4, [r5, #8]
    52ce:	e7e9      	b.n	52a4 <_fseeko_r+0x20>
    52d0:	4b35      	ldr	r3, [pc, #212]	; (53a8 <_fseeko_r+0x124>)
    52d2:	429c      	cmp	r4, r3
    52d4:	d1e6      	bne.n	52a4 <_fseeko_r+0x20>
    52d6:	68ec      	ldr	r4, [r5, #12]
    52d8:	e7e4      	b.n	52a4 <_fseeko_r+0x20>
    52da:	2e01      	cmp	r6, #1
    52dc:	d033      	beq.n	5346 <_fseeko_r+0xc2>
    52de:	2e02      	cmp	r6, #2
    52e0:	d002      	beq.n	52e8 <_fseeko_r+0x64>
    52e2:	2316      	movs	r3, #22
    52e4:	2e00      	cmp	r6, #0
    52e6:	d1ec      	bne.n	52c2 <_fseeko_r+0x3e>
    52e8:	6923      	ldr	r3, [r4, #16]
    52ea:	2b00      	cmp	r3, #0
    52ec:	d103      	bne.n	52f6 <_fseeko_r+0x72>
    52ee:	0021      	movs	r1, r4
    52f0:	0028      	movs	r0, r5
    52f2:	f000 f8e7 	bl	54c4 <__smakebuf_r>
    52f6:	0021      	movs	r1, r4
    52f8:	0028      	movs	r0, r5
    52fa:	f7ff fe47 	bl	4f8c <_fflush_r>
    52fe:	1e07      	subs	r7, r0, #0
    5300:	d141      	bne.n	5386 <_fseeko_r+0x102>
    5302:	0033      	movs	r3, r6
    5304:	9a01      	ldr	r2, [sp, #4]
    5306:	6a21      	ldr	r1, [r4, #32]
    5308:	0028      	movs	r0, r5
    530a:	9e00      	ldr	r6, [sp, #0]
    530c:	47b0      	blx	r6
    530e:	1c43      	adds	r3, r0, #1
    5310:	d039      	beq.n	5386 <_fseeko_r+0x102>
    5312:	6b61      	ldr	r1, [r4, #52]	; 0x34
    5314:	2900      	cmp	r1, #0
    5316:	d008      	beq.n	532a <_fseeko_r+0xa6>
    5318:	0023      	movs	r3, r4
    531a:	3344      	adds	r3, #68	; 0x44
    531c:	4299      	cmp	r1, r3
    531e:	d002      	beq.n	5326 <_fseeko_r+0xa2>
    5320:	0028      	movs	r0, r5
    5322:	f7fe fa77 	bl	3814 <__wrap__free_r>
    5326:	2300      	movs	r3, #0
    5328:	6363      	str	r3, [r4, #52]	; 0x34
    532a:	2100      	movs	r1, #0
    532c:	0020      	movs	r0, r4
    532e:	6923      	ldr	r3, [r4, #16]
    5330:	4a1e      	ldr	r2, [pc, #120]	; (53ac <_fseeko_r+0x128>)
    5332:	6023      	str	r3, [r4, #0]
    5334:	89a3      	ldrh	r3, [r4, #12]
    5336:	6061      	str	r1, [r4, #4]
    5338:	4013      	ands	r3, r2
    533a:	81a3      	strh	r3, [r4, #12]
    533c:	2208      	movs	r2, #8
    533e:	305c      	adds	r0, #92	; 0x5c
    5340:	f000 f93e 	bl	55c0 <memset>
    5344:	e021      	b.n	538a <_fseeko_r+0x106>
    5346:	0021      	movs	r1, r4
    5348:	0028      	movs	r0, r5
    534a:	f7ff fe1f 	bl	4f8c <_fflush_r>
    534e:	2380      	movs	r3, #128	; 0x80
    5350:	89a2      	ldrh	r2, [r4, #12]
    5352:	015b      	lsls	r3, r3, #5
    5354:	401a      	ands	r2, r3
    5356:	d00f      	beq.n	5378 <_fseeko_r+0xf4>
    5358:	6d60      	ldr	r0, [r4, #84]	; 0x54
    535a:	89a3      	ldrh	r3, [r4, #12]
    535c:	075a      	lsls	r2, r3, #29
    535e:	d516      	bpl.n	538e <_fseeko_r+0x10a>
    5360:	6863      	ldr	r3, [r4, #4]
    5362:	1ac0      	subs	r0, r0, r3
    5364:	6b63      	ldr	r3, [r4, #52]	; 0x34
    5366:	2b00      	cmp	r3, #0
    5368:	d001      	beq.n	536e <_fseeko_r+0xea>
    536a:	6c23      	ldr	r3, [r4, #64]	; 0x40
    536c:	1ac0      	subs	r0, r0, r3
    536e:	9b01      	ldr	r3, [sp, #4]
    5370:	2600      	movs	r6, #0
    5372:	181b      	adds	r3, r3, r0
    5374:	9301      	str	r3, [sp, #4]
    5376:	e7b7      	b.n	52e8 <_fseeko_r+0x64>
    5378:	0033      	movs	r3, r6
    537a:	6a21      	ldr	r1, [r4, #32]
    537c:	0028      	movs	r0, r5
    537e:	9e00      	ldr	r6, [sp, #0]
    5380:	47b0      	blx	r6
    5382:	1c43      	adds	r3, r0, #1
    5384:	d1e9      	bne.n	535a <_fseeko_r+0xd6>
    5386:	2701      	movs	r7, #1
    5388:	427f      	negs	r7, r7
    538a:	0038      	movs	r0, r7
    538c:	bdfe      	pop	{r1, r2, r3, r4, r5, r6, r7, pc}
    538e:	071b      	lsls	r3, r3, #28
    5390:	d5ed      	bpl.n	536e <_fseeko_r+0xea>
    5392:	6823      	ldr	r3, [r4, #0]
    5394:	2b00      	cmp	r3, #0
    5396:	d0ea      	beq.n	536e <_fseeko_r+0xea>
    5398:	6922      	ldr	r2, [r4, #16]
    539a:	1a9b      	subs	r3, r3, r2
    539c:	18c0      	adds	r0, r0, r3
    539e:	e7e6      	b.n	536e <_fseeko_r+0xea>
    53a0:	000078e0 	.word	0x000078e0
    53a4:	00007900 	.word	0x00007900
    53a8:	000078c0 	.word	0x000078c0
    53ac:	fffff7df 	.word	0xfffff7df

000053b0 <_fwalk>:
    53b0:	b5f7      	push	{r0, r1, r2, r4, r5, r6, r7, lr}
    53b2:	3048      	adds	r0, #72	; 0x48
    53b4:	0004      	movs	r4, r0
    53b6:	2600      	movs	r6, #0
    53b8:	9101      	str	r1, [sp, #4]
    53ba:	2c00      	cmp	r4, #0
    53bc:	d101      	bne.n	53c2 <_fwalk+0x12>
    53be:	0030      	movs	r0, r6
    53c0:	bdfe      	pop	{r1, r2, r3, r4, r5, r6, r7, pc}
    53c2:	68a5      	ldr	r5, [r4, #8]
    53c4:	6867      	ldr	r7, [r4, #4]
    53c6:	3f01      	subs	r7, #1
    53c8:	d501      	bpl.n	53ce <_fwalk+0x1e>
    53ca:	6824      	ldr	r4, [r4, #0]
    53cc:	e7f5      	b.n	53ba <_fwalk+0xa>
    53ce:	89ab      	ldrh	r3, [r5, #12]
    53d0:	2b01      	cmp	r3, #1
    53d2:	d907      	bls.n	53e4 <_fwalk+0x34>
    53d4:	220e      	movs	r2, #14
    53d6:	5eab      	ldrsh	r3, [r5, r2]
    53d8:	3301      	adds	r3, #1
    53da:	d003      	beq.n	53e4 <_fwalk+0x34>
    53dc:	0028      	movs	r0, r5
    53de:	9b01      	ldr	r3, [sp, #4]
    53e0:	4798      	blx	r3
    53e2:	4306      	orrs	r6, r0
    53e4:	3568      	adds	r5, #104	; 0x68
    53e6:	e7ee      	b.n	53c6 <_fwalk+0x16>

000053e8 <_fwalk_reent>:
    53e8:	b5f7      	push	{r0, r1, r2, r4, r5, r6, r7, lr}
    53ea:	0004      	movs	r4, r0
    53ec:	0007      	movs	r7, r0
    53ee:	2600      	movs	r6, #0
    53f0:	9101      	str	r1, [sp, #4]
    53f2:	3448      	adds	r4, #72	; 0x48
    53f4:	2c00      	cmp	r4, #0
    53f6:	d101      	bne.n	53fc <_fwalk_reent+0x14>
    53f8:	0030      	movs	r0, r6
    53fa:	bdfe      	pop	{r1, r2, r3, r4, r5, r6, r7, pc}
    53fc:	6863      	ldr	r3, [r4, #4]
    53fe:	68a5      	ldr	r5, [r4, #8]
    5400:	9300      	str	r3, [sp, #0]
    5402:	9b00      	ldr	r3, [sp, #0]
    5404:	3b01      	subs	r3, #1
    5406:	9300      	str	r3, [sp, #0]
    5408:	d501      	bpl.n	540e <_fwalk_reent+0x26>
    540a:	6824      	ldr	r4, [r4, #0]
    540c:	e7f2      	b.n	53f4 <_fwalk_reent+0xc>
    540e:	89ab      	ldrh	r3, [r5, #12]
    5410:	2b01      	cmp	r3, #1
    5412:	d908      	bls.n	5426 <_fwalk_reent+0x3e>
    5414:	220e      	movs	r2, #14
    5416:	5eab      	ldrsh	r3, [r5, r2]
    5418:	3301      	adds	r3, #1
    541a:	d004      	beq.n	5426 <_fwalk_reent+0x3e>
    541c:	0029      	movs	r1, r5
    541e:	0038      	movs	r0, r7
    5420:	9b01      	ldr	r3, [sp, #4]
    5422:	4798      	blx	r3
    5424:	4306      	orrs	r6, r0
    5426:	3568      	adds	r5, #104	; 0x68
    5428:	e7eb      	b.n	5402 <_fwalk_reent+0x1a>
	...

0000542c <__libc_init_array>:
    542c:	b570      	push	{r4, r5, r6, lr}
    542e:	2600      	movs	r6, #0
    5430:	4d0c      	ldr	r5, [pc, #48]	; (5464 <__libc_init_array+0x38>)
    5432:	4c0d      	ldr	r4, [pc, #52]	; (5468 <__libc_init_array+0x3c>)
    5434:	1b64      	subs	r4, r4, r5
    5436:	10a4      	asrs	r4, r4, #2
    5438:	42a6      	cmp	r6, r4
    543a:	d109      	bne.n	5450 <__libc_init_array+0x24>
    543c:	2600      	movs	r6, #0
    543e:	f001 fec7 	bl	71d0 <_init>
    5442:	4d0a      	ldr	r5, [pc, #40]	; (546c <__libc_init_array+0x40>)
    5444:	4c0a      	ldr	r4, [pc, #40]	; (5470 <__libc_init_array+0x44>)
    5446:	1b64      	subs	r4, r4, r5
    5448:	10a4      	asrs	r4, r4, #2
    544a:	42a6      	cmp	r6, r4
    544c:	d105      	bne.n	545a <__libc_init_array+0x2e>
    544e:	bd70      	pop	{r4, r5, r6, pc}
    5450:	00b3      	lsls	r3, r6, #2
    5452:	58eb      	ldr	r3, [r5, r3]
    5454:	4798      	blx	r3
    5456:	3601      	adds	r6, #1
    5458:	e7ee      	b.n	5438 <__libc_init_array+0xc>
    545a:	00b3      	lsls	r3, r6, #2
    545c:	58eb      	ldr	r3, [r5, r3]
    545e:	4798      	blx	r3
    5460:	3601      	adds	r6, #1
    5462:	e7f2      	b.n	544a <__libc_init_array+0x1e>
    5464:	1ffff2b8 	.word	0x1ffff2b8
    5468:	1ffff2b8 	.word	0x1ffff2b8
    546c:	1ffff2b8 	.word	0x1ffff2b8
    5470:	1ffff2c0 	.word	0x1ffff2c0

00005474 <__swhatbuf_r>:
    5474:	b570      	push	{r4, r5, r6, lr}
    5476:	000e      	movs	r6, r1
    5478:	001d      	movs	r5, r3
    547a:	230e      	movs	r3, #14
    547c:	5ec9      	ldrsh	r1, [r1, r3]
    547e:	b090      	sub	sp, #64	; 0x40
    5480:	0014      	movs	r4, r2
    5482:	2900      	cmp	r1, #0
    5484:	da07      	bge.n	5496 <__swhatbuf_r+0x22>
    5486:	2300      	movs	r3, #0
    5488:	602b      	str	r3, [r5, #0]
    548a:	89b3      	ldrh	r3, [r6, #12]
    548c:	061b      	lsls	r3, r3, #24
    548e:	d411      	bmi.n	54b4 <__swhatbuf_r+0x40>
    5490:	2380      	movs	r3, #128	; 0x80
    5492:	00db      	lsls	r3, r3, #3
    5494:	e00f      	b.n	54b6 <__swhatbuf_r+0x42>
    5496:	aa01      	add	r2, sp, #4
    5498:	f001 face 	bl	6a38 <_fstat_r>
    549c:	2800      	cmp	r0, #0
    549e:	dbf2      	blt.n	5486 <__swhatbuf_r+0x12>
    54a0:	22f0      	movs	r2, #240	; 0xf0
    54a2:	9b02      	ldr	r3, [sp, #8]
    54a4:	0212      	lsls	r2, r2, #8
    54a6:	4013      	ands	r3, r2
    54a8:	4a05      	ldr	r2, [pc, #20]	; (54c0 <__swhatbuf_r+0x4c>)
    54aa:	189b      	adds	r3, r3, r2
    54ac:	425a      	negs	r2, r3
    54ae:	4153      	adcs	r3, r2
    54b0:	602b      	str	r3, [r5, #0]
    54b2:	e7ed      	b.n	5490 <__swhatbuf_r+0x1c>
    54b4:	2340      	movs	r3, #64	; 0x40
    54b6:	2000      	movs	r0, #0
    54b8:	6023      	str	r3, [r4, #0]
    54ba:	b010      	add	sp, #64	; 0x40
    54bc:	bd70      	pop	{r4, r5, r6, pc}
    54be:	46c0      	nop			; (mov r8, r8)
    54c0:	ffffe000 	.word	0xffffe000

000054c4 <__smakebuf_r>:
    54c4:	b5f7      	push	{r0, r1, r2, r4, r5, r6, r7, lr}
    54c6:	2602      	movs	r6, #2
    54c8:	898b      	ldrh	r3, [r1, #12]
    54ca:	0005      	movs	r5, r0
    54cc:	000c      	movs	r4, r1
    54ce:	4233      	tst	r3, r6
    54d0:	d006      	beq.n	54e0 <__smakebuf_r+0x1c>
    54d2:	0023      	movs	r3, r4
    54d4:	3347      	adds	r3, #71	; 0x47
    54d6:	6023      	str	r3, [r4, #0]
    54d8:	6123      	str	r3, [r4, #16]
    54da:	2301      	movs	r3, #1
    54dc:	6163      	str	r3, [r4, #20]
    54de:	bdf7      	pop	{r0, r1, r2, r4, r5, r6, r7, pc}
    54e0:	ab01      	add	r3, sp, #4
    54e2:	466a      	mov	r2, sp
    54e4:	f7ff ffc6 	bl	5474 <__swhatbuf_r>
    54e8:	9900      	ldr	r1, [sp, #0]
    54ea:	0007      	movs	r7, r0
    54ec:	0028      	movs	r0, r5
    54ee:	f7fe f989 	bl	3804 <__wrap__malloc_r>
    54f2:	2800      	cmp	r0, #0
    54f4:	d108      	bne.n	5508 <__smakebuf_r+0x44>
    54f6:	220c      	movs	r2, #12
    54f8:	5ea3      	ldrsh	r3, [r4, r2]
    54fa:	059a      	lsls	r2, r3, #22
    54fc:	d4ef      	bmi.n	54de <__smakebuf_r+0x1a>
    54fe:	2203      	movs	r2, #3
    5500:	4393      	bics	r3, r2
    5502:	431e      	orrs	r6, r3
    5504:	81a6      	strh	r6, [r4, #12]
    5506:	e7e4      	b.n	54d2 <__smakebuf_r+0xe>
    5508:	4b0f      	ldr	r3, [pc, #60]	; (5548 <__smakebuf_r+0x84>)
    550a:	62ab      	str	r3, [r5, #40]	; 0x28
    550c:	2380      	movs	r3, #128	; 0x80
    550e:	89a2      	ldrh	r2, [r4, #12]
    5510:	6020      	str	r0, [r4, #0]
    5512:	4313      	orrs	r3, r2
    5514:	81a3      	strh	r3, [r4, #12]
    5516:	9b00      	ldr	r3, [sp, #0]
    5518:	6120      	str	r0, [r4, #16]
    551a:	6163      	str	r3, [r4, #20]
    551c:	9b01      	ldr	r3, [sp, #4]
    551e:	2b00      	cmp	r3, #0
    5520:	d00d      	beq.n	553e <__smakebuf_r+0x7a>
    5522:	230e      	movs	r3, #14
    5524:	5ee1      	ldrsh	r1, [r4, r3]
    5526:	0028      	movs	r0, r5
    5528:	f001 fa98 	bl	6a5c <_isatty_r>
    552c:	2800      	cmp	r0, #0
    552e:	d006      	beq.n	553e <__smakebuf_r+0x7a>
    5530:	2203      	movs	r2, #3
    5532:	89a3      	ldrh	r3, [r4, #12]
    5534:	4393      	bics	r3, r2
    5536:	001a      	movs	r2, r3
    5538:	2301      	movs	r3, #1
    553a:	4313      	orrs	r3, r2
    553c:	81a3      	strh	r3, [r4, #12]
    553e:	89a0      	ldrh	r0, [r4, #12]
    5540:	4338      	orrs	r0, r7
    5542:	81a0      	strh	r0, [r4, #12]
    5544:	e7cb      	b.n	54de <__smakebuf_r+0x1a>
    5546:	46c0      	nop			; (mov r8, r8)
    5548:	0000507d 	.word	0x0000507d

0000554c <malloc>:
    554c:	b510      	push	{r4, lr}
    554e:	4b03      	ldr	r3, [pc, #12]	; (555c <malloc+0x10>)
    5550:	0001      	movs	r1, r0
    5552:	6818      	ldr	r0, [r3, #0]
    5554:	f7fe f956 	bl	3804 <__wrap__malloc_r>
    5558:	bd10      	pop	{r4, pc}
    555a:	46c0      	nop			; (mov r8, r8)
    555c:	1ffff0e8 	.word	0x1ffff0e8

00005560 <free>:
    5560:	b510      	push	{r4, lr}
    5562:	4b03      	ldr	r3, [pc, #12]	; (5570 <free+0x10>)
    5564:	0001      	movs	r1, r0
    5566:	6818      	ldr	r0, [r3, #0]
    5568:	f7fe f954 	bl	3814 <__wrap__free_r>
    556c:	bd10      	pop	{r4, pc}
    556e:	46c0      	nop			; (mov r8, r8)
    5570:	1ffff0e8 	.word	0x1ffff0e8

00005574 <memchr>:
    5574:	b2c9      	uxtb	r1, r1
    5576:	1882      	adds	r2, r0, r2
    5578:	4290      	cmp	r0, r2
    557a:	d101      	bne.n	5580 <memchr+0xc>
    557c:	2000      	movs	r0, #0
    557e:	4770      	bx	lr
    5580:	7803      	ldrb	r3, [r0, #0]
    5582:	428b      	cmp	r3, r1
    5584:	d0fb      	beq.n	557e <memchr+0xa>
    5586:	3001      	adds	r0, #1
    5588:	e7f6      	b.n	5578 <memchr+0x4>

0000558a <memcpy>:
    558a:	2300      	movs	r3, #0
    558c:	b510      	push	{r4, lr}
    558e:	429a      	cmp	r2, r3
    5590:	d100      	bne.n	5594 <memcpy+0xa>
    5592:	bd10      	pop	{r4, pc}
    5594:	5ccc      	ldrb	r4, [r1, r3]
    5596:	54c4      	strb	r4, [r0, r3]
    5598:	3301      	adds	r3, #1
    559a:	e7f8      	b.n	558e <memcpy+0x4>

0000559c <memmove>:
    559c:	b510      	push	{r4, lr}
    559e:	4288      	cmp	r0, r1
    55a0:	d902      	bls.n	55a8 <memmove+0xc>
    55a2:	188b      	adds	r3, r1, r2
    55a4:	4298      	cmp	r0, r3
    55a6:	d308      	bcc.n	55ba <memmove+0x1e>
    55a8:	2300      	movs	r3, #0
    55aa:	429a      	cmp	r2, r3
    55ac:	d007      	beq.n	55be <memmove+0x22>
    55ae:	5ccc      	ldrb	r4, [r1, r3]
    55b0:	54c4      	strb	r4, [r0, r3]
    55b2:	3301      	adds	r3, #1
    55b4:	e7f9      	b.n	55aa <memmove+0xe>
    55b6:	5c8b      	ldrb	r3, [r1, r2]
    55b8:	5483      	strb	r3, [r0, r2]
    55ba:	3a01      	subs	r2, #1
    55bc:	d2fb      	bcs.n	55b6 <memmove+0x1a>
    55be:	bd10      	pop	{r4, pc}

000055c0 <memset>:
    55c0:	0003      	movs	r3, r0
    55c2:	1882      	adds	r2, r0, r2
    55c4:	4293      	cmp	r3, r2
    55c6:	d100      	bne.n	55ca <memset+0xa>
    55c8:	4770      	bx	lr
    55ca:	7019      	strb	r1, [r3, #0]
    55cc:	3301      	adds	r3, #1
    55ce:	e7f9      	b.n	55c4 <memset+0x4>

000055d0 <_free_r>:
    55d0:	b570      	push	{r4, r5, r6, lr}
    55d2:	0005      	movs	r5, r0
    55d4:	2900      	cmp	r1, #0
    55d6:	d010      	beq.n	55fa <_free_r+0x2a>
    55d8:	1f0c      	subs	r4, r1, #4
    55da:	6823      	ldr	r3, [r4, #0]
    55dc:	2b00      	cmp	r3, #0
    55de:	da00      	bge.n	55e2 <_free_r+0x12>
    55e0:	18e4      	adds	r4, r4, r3
    55e2:	0028      	movs	r0, r5
    55e4:	f7fe fa92 	bl	3b0c <__malloc_lock>
    55e8:	4a1d      	ldr	r2, [pc, #116]	; (5660 <_free_r+0x90>)
    55ea:	6813      	ldr	r3, [r2, #0]
    55ec:	2b00      	cmp	r3, #0
    55ee:	d105      	bne.n	55fc <_free_r+0x2c>
    55f0:	6063      	str	r3, [r4, #4]
    55f2:	6014      	str	r4, [r2, #0]
    55f4:	0028      	movs	r0, r5
    55f6:	f7fe fa8d 	bl	3b14 <__malloc_unlock>
    55fa:	bd70      	pop	{r4, r5, r6, pc}
    55fc:	42a3      	cmp	r3, r4
    55fe:	d909      	bls.n	5614 <_free_r+0x44>
    5600:	6821      	ldr	r1, [r4, #0]
    5602:	1860      	adds	r0, r4, r1
    5604:	4283      	cmp	r3, r0
    5606:	d1f3      	bne.n	55f0 <_free_r+0x20>
    5608:	6818      	ldr	r0, [r3, #0]
    560a:	685b      	ldr	r3, [r3, #4]
    560c:	1841      	adds	r1, r0, r1
    560e:	6021      	str	r1, [r4, #0]
    5610:	e7ee      	b.n	55f0 <_free_r+0x20>
    5612:	0013      	movs	r3, r2
    5614:	685a      	ldr	r2, [r3, #4]
    5616:	2a00      	cmp	r2, #0
    5618:	d001      	beq.n	561e <_free_r+0x4e>
    561a:	42a2      	cmp	r2, r4
    561c:	d9f9      	bls.n	5612 <_free_r+0x42>
    561e:	6819      	ldr	r1, [r3, #0]
    5620:	1858      	adds	r0, r3, r1
    5622:	42a0      	cmp	r0, r4
    5624:	d10b      	bne.n	563e <_free_r+0x6e>
    5626:	6820      	ldr	r0, [r4, #0]
    5628:	1809      	adds	r1, r1, r0
    562a:	1858      	adds	r0, r3, r1
    562c:	6019      	str	r1, [r3, #0]
    562e:	4282      	cmp	r2, r0
    5630:	d1e0      	bne.n	55f4 <_free_r+0x24>
    5632:	6810      	ldr	r0, [r2, #0]
    5634:	6852      	ldr	r2, [r2, #4]
    5636:	1841      	adds	r1, r0, r1
    5638:	6019      	str	r1, [r3, #0]
    563a:	605a      	str	r2, [r3, #4]
    563c:	e7da      	b.n	55f4 <_free_r+0x24>
    563e:	42a0      	cmp	r0, r4
    5640:	d902      	bls.n	5648 <_free_r+0x78>
    5642:	230c      	movs	r3, #12
    5644:	602b      	str	r3, [r5, #0]
    5646:	e7d5      	b.n	55f4 <_free_r+0x24>
    5648:	6821      	ldr	r1, [r4, #0]
    564a:	1860      	adds	r0, r4, r1
    564c:	4282      	cmp	r2, r0
    564e:	d103      	bne.n	5658 <_free_r+0x88>
    5650:	6810      	ldr	r0, [r2, #0]
    5652:	6852      	ldr	r2, [r2, #4]
    5654:	1841      	adds	r1, r0, r1
    5656:	6021      	str	r1, [r4, #0]
    5658:	6062      	str	r2, [r4, #4]
    565a:	605c      	str	r4, [r3, #4]
    565c:	e7ca      	b.n	55f4 <_free_r+0x24>
    565e:	46c0      	nop			; (mov r8, r8)
    5660:	20000610 	.word	0x20000610

00005664 <_malloc_r>:
    5664:	2303      	movs	r3, #3
    5666:	b570      	push	{r4, r5, r6, lr}
    5668:	1ccd      	adds	r5, r1, #3
    566a:	439d      	bics	r5, r3
    566c:	3508      	adds	r5, #8
    566e:	0006      	movs	r6, r0
    5670:	2d0c      	cmp	r5, #12
    5672:	d21e      	bcs.n	56b2 <_malloc_r+0x4e>
    5674:	250c      	movs	r5, #12
    5676:	42a9      	cmp	r1, r5
    5678:	d81d      	bhi.n	56b6 <_malloc_r+0x52>
    567a:	0030      	movs	r0, r6
    567c:	f7fe fa46 	bl	3b0c <__malloc_lock>
    5680:	4a25      	ldr	r2, [pc, #148]	; (5718 <_malloc_r+0xb4>)
    5682:	6814      	ldr	r4, [r2, #0]
    5684:	0021      	movs	r1, r4
    5686:	2900      	cmp	r1, #0
    5688:	d119      	bne.n	56be <_malloc_r+0x5a>
    568a:	4c24      	ldr	r4, [pc, #144]	; (571c <_malloc_r+0xb8>)
    568c:	6823      	ldr	r3, [r4, #0]
    568e:	2b00      	cmp	r3, #0
    5690:	d103      	bne.n	569a <_malloc_r+0x36>
    5692:	0030      	movs	r0, r6
    5694:	f000 fd86 	bl	61a4 <_sbrk_r>
    5698:	6020      	str	r0, [r4, #0]
    569a:	0029      	movs	r1, r5
    569c:	0030      	movs	r0, r6
    569e:	f000 fd81 	bl	61a4 <_sbrk_r>
    56a2:	1c43      	adds	r3, r0, #1
    56a4:	d12c      	bne.n	5700 <_malloc_r+0x9c>
    56a6:	230c      	movs	r3, #12
    56a8:	0030      	movs	r0, r6
    56aa:	6033      	str	r3, [r6, #0]
    56ac:	f7fe fa32 	bl	3b14 <__malloc_unlock>
    56b0:	e003      	b.n	56ba <_malloc_r+0x56>
    56b2:	2d00      	cmp	r5, #0
    56b4:	dadf      	bge.n	5676 <_malloc_r+0x12>
    56b6:	230c      	movs	r3, #12
    56b8:	6033      	str	r3, [r6, #0]
    56ba:	2000      	movs	r0, #0
    56bc:	bd70      	pop	{r4, r5, r6, pc}
    56be:	680b      	ldr	r3, [r1, #0]
    56c0:	1b5b      	subs	r3, r3, r5
    56c2:	d41a      	bmi.n	56fa <_malloc_r+0x96>
    56c4:	2b0b      	cmp	r3, #11
    56c6:	d903      	bls.n	56d0 <_malloc_r+0x6c>
    56c8:	600b      	str	r3, [r1, #0]
    56ca:	18cc      	adds	r4, r1, r3
    56cc:	6025      	str	r5, [r4, #0]
    56ce:	e003      	b.n	56d8 <_malloc_r+0x74>
    56d0:	428c      	cmp	r4, r1
    56d2:	d10e      	bne.n	56f2 <_malloc_r+0x8e>
    56d4:	6863      	ldr	r3, [r4, #4]
    56d6:	6013      	str	r3, [r2, #0]
    56d8:	0030      	movs	r0, r6
    56da:	f7fe fa1b 	bl	3b14 <__malloc_unlock>
    56de:	0020      	movs	r0, r4
    56e0:	2207      	movs	r2, #7
    56e2:	300b      	adds	r0, #11
    56e4:	1d23      	adds	r3, r4, #4
    56e6:	4390      	bics	r0, r2
    56e8:	1ac3      	subs	r3, r0, r3
    56ea:	d0e7      	beq.n	56bc <_malloc_r+0x58>
    56ec:	425a      	negs	r2, r3
    56ee:	50e2      	str	r2, [r4, r3]
    56f0:	e7e4      	b.n	56bc <_malloc_r+0x58>
    56f2:	684b      	ldr	r3, [r1, #4]
    56f4:	6063      	str	r3, [r4, #4]
    56f6:	000c      	movs	r4, r1
    56f8:	e7ee      	b.n	56d8 <_malloc_r+0x74>
    56fa:	000c      	movs	r4, r1
    56fc:	6849      	ldr	r1, [r1, #4]
    56fe:	e7c2      	b.n	5686 <_malloc_r+0x22>
    5700:	2303      	movs	r3, #3
    5702:	1cc4      	adds	r4, r0, #3
    5704:	439c      	bics	r4, r3
    5706:	42a0      	cmp	r0, r4
    5708:	d0e0      	beq.n	56cc <_malloc_r+0x68>
    570a:	1a21      	subs	r1, r4, r0
    570c:	0030      	movs	r0, r6
    570e:	f000 fd49 	bl	61a4 <_sbrk_r>
    5712:	1c43      	adds	r3, r0, #1
    5714:	d1da      	bne.n	56cc <_malloc_r+0x68>
    5716:	e7c6      	b.n	56a6 <_malloc_r+0x42>
    5718:	20000610 	.word	0x20000610
    571c:	20000614 	.word	0x20000614

00005720 <_realloc_r>:
    5720:	b5f8      	push	{r3, r4, r5, r6, r7, lr}
    5722:	0007      	movs	r7, r0
    5724:	000d      	movs	r5, r1
    5726:	0016      	movs	r6, r2
    5728:	2900      	cmp	r1, #0
    572a:	d105      	bne.n	5738 <_realloc_r+0x18>
    572c:	0011      	movs	r1, r2
    572e:	f7fe f869 	bl	3804 <__wrap__malloc_r>
    5732:	0004      	movs	r4, r0
    5734:	0020      	movs	r0, r4
    5736:	bdf8      	pop	{r3, r4, r5, r6, r7, pc}
    5738:	2a00      	cmp	r2, #0
    573a:	d103      	bne.n	5744 <_realloc_r+0x24>
    573c:	f7fe f86a 	bl	3814 <__wrap__free_r>
    5740:	0034      	movs	r4, r6
    5742:	e7f7      	b.n	5734 <_realloc_r+0x14>
    5744:	f001 f9d4 	bl	6af0 <_malloc_usable_size_r>
    5748:	002c      	movs	r4, r5
    574a:	4286      	cmp	r6, r0
    574c:	d9f2      	bls.n	5734 <_realloc_r+0x14>
    574e:	0031      	movs	r1, r6
    5750:	0038      	movs	r0, r7
    5752:	f7fe f857 	bl	3804 <__wrap__malloc_r>
    5756:	1e04      	subs	r4, r0, #0
    5758:	d0ec      	beq.n	5734 <_realloc_r+0x14>
    575a:	0029      	movs	r1, r5
    575c:	0032      	movs	r2, r6
    575e:	f7ff ff14 	bl	558a <memcpy>
    5762:	0029      	movs	r1, r5
    5764:	0038      	movs	r0, r7
    5766:	f7fe f855 	bl	3814 <__wrap__free_r>
    576a:	e7e3      	b.n	5734 <_realloc_r+0x14>

0000576c <__sfputc_r>:
    576c:	6893      	ldr	r3, [r2, #8]
    576e:	b510      	push	{r4, lr}
    5770:	3b01      	subs	r3, #1
    5772:	6093      	str	r3, [r2, #8]
    5774:	2b00      	cmp	r3, #0
    5776:	da05      	bge.n	5784 <__sfputc_r+0x18>
    5778:	6994      	ldr	r4, [r2, #24]
    577a:	42a3      	cmp	r3, r4
    577c:	db08      	blt.n	5790 <__sfputc_r+0x24>
    577e:	b2cb      	uxtb	r3, r1
    5780:	2b0a      	cmp	r3, #10
    5782:	d005      	beq.n	5790 <__sfputc_r+0x24>
    5784:	6813      	ldr	r3, [r2, #0]
    5786:	1c58      	adds	r0, r3, #1
    5788:	6010      	str	r0, [r2, #0]
    578a:	7019      	strb	r1, [r3, #0]
    578c:	b2c8      	uxtb	r0, r1
    578e:	bd10      	pop	{r4, pc}
    5790:	f001 f826 	bl	67e0 <__swbuf_r>
    5794:	e7fb      	b.n	578e <__sfputc_r+0x22>

00005796 <__sfputs_r>:
    5796:	b5f8      	push	{r3, r4, r5, r6, r7, lr}
    5798:	0006      	movs	r6, r0
    579a:	000f      	movs	r7, r1
    579c:	0014      	movs	r4, r2
    579e:	18d5      	adds	r5, r2, r3
    57a0:	42ac      	cmp	r4, r5
    57a2:	d101      	bne.n	57a8 <__sfputs_r+0x12>
    57a4:	2000      	movs	r0, #0
    57a6:	e007      	b.n	57b8 <__sfputs_r+0x22>
    57a8:	7821      	ldrb	r1, [r4, #0]
    57aa:	003a      	movs	r2, r7
    57ac:	0030      	movs	r0, r6
    57ae:	f7ff ffdd 	bl	576c <__sfputc_r>
    57b2:	3401      	adds	r4, #1
    57b4:	1c43      	adds	r3, r0, #1
    57b6:	d1f3      	bne.n	57a0 <__sfputs_r+0xa>
    57b8:	bdf8      	pop	{r3, r4, r5, r6, r7, pc}
	...

000057bc <_vfiprintf_r>:
    57bc:	b5f0      	push	{r4, r5, r6, r7, lr}
    57be:	b09f      	sub	sp, #124	; 0x7c
    57c0:	0006      	movs	r6, r0
    57c2:	000f      	movs	r7, r1
    57c4:	0014      	movs	r4, r2
    57c6:	9305      	str	r3, [sp, #20]
    57c8:	2800      	cmp	r0, #0
    57ca:	d004      	beq.n	57d6 <_vfiprintf_r+0x1a>
    57cc:	6983      	ldr	r3, [r0, #24]
    57ce:	2b00      	cmp	r3, #0
    57d0:	d101      	bne.n	57d6 <_vfiprintf_r+0x1a>
    57d2:	f7ff fc95 	bl	5100 <__sinit>
    57d6:	4b7f      	ldr	r3, [pc, #508]	; (59d4 <_vfiprintf_r+0x218>)
    57d8:	429f      	cmp	r7, r3
    57da:	d15c      	bne.n	5896 <_vfiprintf_r+0xda>
    57dc:	6877      	ldr	r7, [r6, #4]
    57de:	89bb      	ldrh	r3, [r7, #12]
    57e0:	071b      	lsls	r3, r3, #28
    57e2:	d562      	bpl.n	58aa <_vfiprintf_r+0xee>
    57e4:	693b      	ldr	r3, [r7, #16]
    57e6:	2b00      	cmp	r3, #0
    57e8:	d05f      	beq.n	58aa <_vfiprintf_r+0xee>
    57ea:	2300      	movs	r3, #0
    57ec:	ad06      	add	r5, sp, #24
    57ee:	616b      	str	r3, [r5, #20]
    57f0:	3320      	adds	r3, #32
    57f2:	766b      	strb	r3, [r5, #25]
    57f4:	3310      	adds	r3, #16
    57f6:	76ab      	strb	r3, [r5, #26]
    57f8:	9402      	str	r4, [sp, #8]
    57fa:	9c02      	ldr	r4, [sp, #8]
    57fc:	7823      	ldrb	r3, [r4, #0]
    57fe:	2b00      	cmp	r3, #0
    5800:	d15d      	bne.n	58be <_vfiprintf_r+0x102>
    5802:	9b02      	ldr	r3, [sp, #8]
    5804:	1ae3      	subs	r3, r4, r3
    5806:	9304      	str	r3, [sp, #16]
    5808:	d00d      	beq.n	5826 <_vfiprintf_r+0x6a>
    580a:	9b04      	ldr	r3, [sp, #16]
    580c:	9a02      	ldr	r2, [sp, #8]
    580e:	0039      	movs	r1, r7
    5810:	0030      	movs	r0, r6
    5812:	f7ff ffc0 	bl	5796 <__sfputs_r>
    5816:	1c43      	adds	r3, r0, #1
    5818:	d100      	bne.n	581c <_vfiprintf_r+0x60>
    581a:	e0cc      	b.n	59b6 <_vfiprintf_r+0x1fa>
    581c:	696a      	ldr	r2, [r5, #20]
    581e:	9b04      	ldr	r3, [sp, #16]
    5820:	4694      	mov	r12, r2
    5822:	4463      	add	r3, r12
    5824:	616b      	str	r3, [r5, #20]
    5826:	7823      	ldrb	r3, [r4, #0]
    5828:	2b00      	cmp	r3, #0
    582a:	d100      	bne.n	582e <_vfiprintf_r+0x72>
    582c:	e0c3      	b.n	59b6 <_vfiprintf_r+0x1fa>
    582e:	2201      	movs	r2, #1
    5830:	2300      	movs	r3, #0
    5832:	4252      	negs	r2, r2
    5834:	606a      	str	r2, [r5, #4]
    5836:	a902      	add	r1, sp, #8
    5838:	3254      	adds	r2, #84	; 0x54
    583a:	1852      	adds	r2, r2, r1
    583c:	3401      	adds	r4, #1
    583e:	602b      	str	r3, [r5, #0]
    5840:	60eb      	str	r3, [r5, #12]
    5842:	60ab      	str	r3, [r5, #8]
    5844:	7013      	strb	r3, [r2, #0]
    5846:	65ab      	str	r3, [r5, #88]	; 0x58
    5848:	7821      	ldrb	r1, [r4, #0]
    584a:	2205      	movs	r2, #5
    584c:	4862      	ldr	r0, [pc, #392]	; (59d8 <_vfiprintf_r+0x21c>)
    584e:	f7ff fe91 	bl	5574 <memchr>
    5852:	1c63      	adds	r3, r4, #1
    5854:	469c      	mov	r12, r3
    5856:	2800      	cmp	r0, #0
    5858:	d135      	bne.n	58c6 <_vfiprintf_r+0x10a>
    585a:	6829      	ldr	r1, [r5, #0]
    585c:	06cb      	lsls	r3, r1, #27
    585e:	d504      	bpl.n	586a <_vfiprintf_r+0xae>
    5860:	2353      	movs	r3, #83	; 0x53
    5862:	aa02      	add	r2, sp, #8
    5864:	3020      	adds	r0, #32
    5866:	189b      	adds	r3, r3, r2
    5868:	7018      	strb	r0, [r3, #0]
    586a:	070b      	lsls	r3, r1, #28
    586c:	d504      	bpl.n	5878 <_vfiprintf_r+0xbc>
    586e:	2353      	movs	r3, #83	; 0x53
    5870:	202b      	movs	r0, #43	; 0x2b
    5872:	aa02      	add	r2, sp, #8
    5874:	189b      	adds	r3, r3, r2
    5876:	7018      	strb	r0, [r3, #0]
    5878:	7823      	ldrb	r3, [r4, #0]
    587a:	2b2a      	cmp	r3, #42	; 0x2a
    587c:	d02c      	beq.n	58d8 <_vfiprintf_r+0x11c>
    587e:	2000      	movs	r0, #0
    5880:	210a      	movs	r1, #10
    5882:	9b09      	ldr	r3, [sp, #36]	; 0x24
    5884:	7822      	ldrb	r2, [r4, #0]
    5886:	3a30      	subs	r2, #48	; 0x30
    5888:	2a09      	cmp	r2, #9
    588a:	d800      	bhi.n	588e <_vfiprintf_r+0xd2>
    588c:	e06b      	b.n	5966 <_vfiprintf_r+0x1aa>
    588e:	2800      	cmp	r0, #0
    5890:	d02a      	beq.n	58e8 <_vfiprintf_r+0x12c>
    5892:	9309      	str	r3, [sp, #36]	; 0x24
    5894:	e028      	b.n	58e8 <_vfiprintf_r+0x12c>
    5896:	4b51      	ldr	r3, [pc, #324]	; (59dc <_vfiprintf_r+0x220>)
    5898:	429f      	cmp	r7, r3
    589a:	d101      	bne.n	58a0 <_vfiprintf_r+0xe4>
    589c:	68b7      	ldr	r7, [r6, #8]
    589e:	e79e      	b.n	57de <_vfiprintf_r+0x22>
    58a0:	4b4f      	ldr	r3, [pc, #316]	; (59e0 <_vfiprintf_r+0x224>)
    58a2:	429f      	cmp	r7, r3
    58a4:	d19b      	bne.n	57de <_vfiprintf_r+0x22>
    58a6:	68f7      	ldr	r7, [r6, #12]
    58a8:	e799      	b.n	57de <_vfiprintf_r+0x22>
    58aa:	0039      	movs	r1, r7
    58ac:	0030      	movs	r0, r6
    58ae:	f001 f801 	bl	68b4 <__swsetup_r>
    58b2:	2800      	cmp	r0, #0
    58b4:	d099      	beq.n	57ea <_vfiprintf_r+0x2e>
    58b6:	2001      	movs	r0, #1
    58b8:	4240      	negs	r0, r0
    58ba:	b01f      	add	sp, #124	; 0x7c
    58bc:	bdf0      	pop	{r4, r5, r6, r7, pc}
    58be:	2b25      	cmp	r3, #37	; 0x25
    58c0:	d09f      	beq.n	5802 <_vfiprintf_r+0x46>
    58c2:	3401      	adds	r4, #1
    58c4:	e79a      	b.n	57fc <_vfiprintf_r+0x40>
    58c6:	4b44      	ldr	r3, [pc, #272]	; (59d8 <_vfiprintf_r+0x21c>)
    58c8:	6829      	ldr	r1, [r5, #0]
    58ca:	1ac0      	subs	r0, r0, r3
    58cc:	2301      	movs	r3, #1
    58ce:	4083      	lsls	r3, r0
    58d0:	430b      	orrs	r3, r1
    58d2:	602b      	str	r3, [r5, #0]
    58d4:	4664      	mov	r4, r12
    58d6:	e7b7      	b.n	5848 <_vfiprintf_r+0x8c>
    58d8:	9b05      	ldr	r3, [sp, #20]
    58da:	1d18      	adds	r0, r3, #4
    58dc:	681b      	ldr	r3, [r3, #0]
    58de:	9005      	str	r0, [sp, #20]
    58e0:	2b00      	cmp	r3, #0
    58e2:	db3a      	blt.n	595a <_vfiprintf_r+0x19e>
    58e4:	9309      	str	r3, [sp, #36]	; 0x24
    58e6:	4664      	mov	r4, r12
    58e8:	7823      	ldrb	r3, [r4, #0]
    58ea:	2b2e      	cmp	r3, #46	; 0x2e
    58ec:	d10b      	bne.n	5906 <_vfiprintf_r+0x14a>
    58ee:	7863      	ldrb	r3, [r4, #1]
    58f0:	1c62      	adds	r2, r4, #1
    58f2:	2b2a      	cmp	r3, #42	; 0x2a
    58f4:	d13f      	bne.n	5976 <_vfiprintf_r+0x1ba>
    58f6:	9b05      	ldr	r3, [sp, #20]
    58f8:	3402      	adds	r4, #2
    58fa:	1d1a      	adds	r2, r3, #4
    58fc:	681b      	ldr	r3, [r3, #0]
    58fe:	9205      	str	r2, [sp, #20]
    5900:	2b00      	cmp	r3, #0
    5902:	db35      	blt.n	5970 <_vfiprintf_r+0x1b4>
    5904:	9307      	str	r3, [sp, #28]
    5906:	7821      	ldrb	r1, [r4, #0]
    5908:	2203      	movs	r2, #3
    590a:	4836      	ldr	r0, [pc, #216]	; (59e4 <_vfiprintf_r+0x228>)
    590c:	f7ff fe32 	bl	5574 <memchr>
    5910:	2800      	cmp	r0, #0
    5912:	d007      	beq.n	5924 <_vfiprintf_r+0x168>
    5914:	4b33      	ldr	r3, [pc, #204]	; (59e4 <_vfiprintf_r+0x228>)
    5916:	682a      	ldr	r2, [r5, #0]
    5918:	1ac0      	subs	r0, r0, r3
    591a:	2340      	movs	r3, #64	; 0x40
    591c:	4083      	lsls	r3, r0
    591e:	4313      	orrs	r3, r2
    5920:	602b      	str	r3, [r5, #0]
    5922:	3401      	adds	r4, #1
    5924:	7821      	ldrb	r1, [r4, #0]
    5926:	1c63      	adds	r3, r4, #1
    5928:	2206      	movs	r2, #6
    592a:	482f      	ldr	r0, [pc, #188]	; (59e8 <_vfiprintf_r+0x22c>)
    592c:	9302      	str	r3, [sp, #8]
    592e:	7629      	strb	r1, [r5, #24]
    5930:	f7ff fe20 	bl	5574 <memchr>
    5934:	2800      	cmp	r0, #0
    5936:	d044      	beq.n	59c2 <_vfiprintf_r+0x206>
    5938:	4b2c      	ldr	r3, [pc, #176]	; (59ec <_vfiprintf_r+0x230>)
    593a:	2b00      	cmp	r3, #0
    593c:	d12f      	bne.n	599e <_vfiprintf_r+0x1e2>
    593e:	6829      	ldr	r1, [r5, #0]
    5940:	9b05      	ldr	r3, [sp, #20]
    5942:	2207      	movs	r2, #7
    5944:	05c9      	lsls	r1, r1, #23
    5946:	d528      	bpl.n	599a <_vfiprintf_r+0x1de>
    5948:	189b      	adds	r3, r3, r2
    594a:	4393      	bics	r3, r2
    594c:	3308      	adds	r3, #8
    594e:	9305      	str	r3, [sp, #20]
    5950:	696b      	ldr	r3, [r5, #20]
    5952:	9a03      	ldr	r2, [sp, #12]
    5954:	189b      	adds	r3, r3, r2
    5956:	616b      	str	r3, [r5, #20]
    5958:	e74f      	b.n	57fa <_vfiprintf_r+0x3e>
    595a:	425b      	negs	r3, r3
    595c:	60eb      	str	r3, [r5, #12]
    595e:	2302      	movs	r3, #2
    5960:	430b      	orrs	r3, r1
    5962:	602b      	str	r3, [r5, #0]
    5964:	e7bf      	b.n	58e6 <_vfiprintf_r+0x12a>
    5966:	434b      	muls	r3, r1
    5968:	3401      	adds	r4, #1
    596a:	189b      	adds	r3, r3, r2
    596c:	2001      	movs	r0, #1
    596e:	e789      	b.n	5884 <_vfiprintf_r+0xc8>
    5970:	2301      	movs	r3, #1
    5972:	425b      	negs	r3, r3
    5974:	e7c6      	b.n	5904 <_vfiprintf_r+0x148>
    5976:	2300      	movs	r3, #0
    5978:	0014      	movs	r4, r2
    597a:	200a      	movs	r0, #10
    597c:	001a      	movs	r2, r3
    597e:	606b      	str	r3, [r5, #4]
    5980:	7821      	ldrb	r1, [r4, #0]
    5982:	3930      	subs	r1, #48	; 0x30
    5984:	2909      	cmp	r1, #9
    5986:	d903      	bls.n	5990 <_vfiprintf_r+0x1d4>
    5988:	2b00      	cmp	r3, #0
    598a:	d0bc      	beq.n	5906 <_vfiprintf_r+0x14a>
    598c:	9207      	str	r2, [sp, #28]
    598e:	e7ba      	b.n	5906 <_vfiprintf_r+0x14a>
    5990:	4342      	muls	r2, r0
    5992:	3401      	adds	r4, #1
    5994:	1852      	adds	r2, r2, r1
    5996:	2301      	movs	r3, #1
    5998:	e7f2      	b.n	5980 <_vfiprintf_r+0x1c4>
    599a:	3307      	adds	r3, #7
    599c:	e7d5      	b.n	594a <_vfiprintf_r+0x18e>
    599e:	ab05      	add	r3, sp, #20
    59a0:	9300      	str	r3, [sp, #0]
    59a2:	003a      	movs	r2, r7
    59a4:	4b12      	ldr	r3, [pc, #72]	; (59f0 <_vfiprintf_r+0x234>)
    59a6:	0029      	movs	r1, r5
    59a8:	0030      	movs	r0, r6
    59aa:	e000      	b.n	59ae <_vfiprintf_r+0x1f2>
    59ac:	bf00      	nop
    59ae:	9003      	str	r0, [sp, #12]
    59b0:	9b03      	ldr	r3, [sp, #12]
    59b2:	3301      	adds	r3, #1
    59b4:	d1cc      	bne.n	5950 <_vfiprintf_r+0x194>
    59b6:	89bb      	ldrh	r3, [r7, #12]
    59b8:	065b      	lsls	r3, r3, #25
    59ba:	d500      	bpl.n	59be <_vfiprintf_r+0x202>
    59bc:	e77b      	b.n	58b6 <_vfiprintf_r+0xfa>
    59be:	980b      	ldr	r0, [sp, #44]	; 0x2c
    59c0:	e77b      	b.n	58ba <_vfiprintf_r+0xfe>
    59c2:	ab05      	add	r3, sp, #20
    59c4:	9300      	str	r3, [sp, #0]
    59c6:	003a      	movs	r2, r7
    59c8:	4b09      	ldr	r3, [pc, #36]	; (59f0 <_vfiprintf_r+0x234>)
    59ca:	0029      	movs	r1, r5
    59cc:	0030      	movs	r0, r6
    59ce:	f000 f88b 	bl	5ae8 <_printf_i>
    59d2:	e7ec      	b.n	59ae <_vfiprintf_r+0x1f2>
    59d4:	000078e0 	.word	0x000078e0
    59d8:	00007924 	.word	0x00007924
    59dc:	00007900 	.word	0x00007900
    59e0:	000078c0 	.word	0x000078c0
    59e4:	0000792a 	.word	0x0000792a
    59e8:	0000792e 	.word	0x0000792e
    59ec:	00000000 	.word	0x00000000
    59f0:	00005797 	.word	0x00005797

000059f4 <vfiprintf>:
    59f4:	b510      	push	{r4, lr}
    59f6:	0013      	movs	r3, r2
    59f8:	000a      	movs	r2, r1
    59fa:	0001      	movs	r1, r0
    59fc:	4802      	ldr	r0, [pc, #8]	; (5a08 <vfiprintf+0x14>)
    59fe:	6800      	ldr	r0, [r0, #0]
    5a00:	f7ff fedc 	bl	57bc <_vfiprintf_r>
    5a04:	bd10      	pop	{r4, pc}
    5a06:	46c0      	nop			; (mov r8, r8)
    5a08:	1ffff0e8 	.word	0x1ffff0e8

00005a0c <_printf_common>:
    5a0c:	b5f7      	push	{r0, r1, r2, r4, r5, r6, r7, lr}
    5a0e:	0015      	movs	r5, r2
    5a10:	9301      	str	r3, [sp, #4]
    5a12:	688a      	ldr	r2, [r1, #8]
    5a14:	690b      	ldr	r3, [r1, #16]
    5a16:	9000      	str	r0, [sp, #0]
    5a18:	000c      	movs	r4, r1
    5a1a:	4293      	cmp	r3, r2
    5a1c:	da00      	bge.n	5a20 <_printf_common+0x14>
    5a1e:	0013      	movs	r3, r2
    5a20:	0022      	movs	r2, r4
    5a22:	602b      	str	r3, [r5, #0]
    5a24:	3243      	adds	r2, #67	; 0x43
    5a26:	7812      	ldrb	r2, [r2, #0]
    5a28:	2a00      	cmp	r2, #0
    5a2a:	d001      	beq.n	5a30 <_printf_common+0x24>
    5a2c:	3301      	adds	r3, #1
    5a2e:	602b      	str	r3, [r5, #0]
    5a30:	6823      	ldr	r3, [r4, #0]
    5a32:	069b      	lsls	r3, r3, #26
    5a34:	d502      	bpl.n	5a3c <_printf_common+0x30>
    5a36:	682b      	ldr	r3, [r5, #0]
    5a38:	3302      	adds	r3, #2
    5a3a:	602b      	str	r3, [r5, #0]
    5a3c:	2706      	movs	r7, #6
    5a3e:	6823      	ldr	r3, [r4, #0]
    5a40:	401f      	ands	r7, r3
    5a42:	d027      	beq.n	5a94 <_printf_common+0x88>
    5a44:	0023      	movs	r3, r4
    5a46:	3343      	adds	r3, #67	; 0x43
    5a48:	781b      	ldrb	r3, [r3, #0]
    5a4a:	1e5a      	subs	r2, r3, #1
    5a4c:	4193      	sbcs	r3, r2
    5a4e:	6822      	ldr	r2, [r4, #0]
    5a50:	0692      	lsls	r2, r2, #26
    5a52:	d430      	bmi.n	5ab6 <_printf_common+0xaa>
    5a54:	0022      	movs	r2, r4
    5a56:	9901      	ldr	r1, [sp, #4]
    5a58:	3243      	adds	r2, #67	; 0x43
    5a5a:	9800      	ldr	r0, [sp, #0]
    5a5c:	9e08      	ldr	r6, [sp, #32]
    5a5e:	47b0      	blx	r6
    5a60:	1c43      	adds	r3, r0, #1
    5a62:	d025      	beq.n	5ab0 <_printf_common+0xa4>
    5a64:	2306      	movs	r3, #6
    5a66:	6820      	ldr	r0, [r4, #0]
    5a68:	682a      	ldr	r2, [r5, #0]
    5a6a:	68e1      	ldr	r1, [r4, #12]
    5a6c:	4003      	ands	r3, r0
    5a6e:	2500      	movs	r5, #0
    5a70:	2b04      	cmp	r3, #4
    5a72:	d103      	bne.n	5a7c <_printf_common+0x70>
    5a74:	1a8d      	subs	r5, r1, r2
    5a76:	43eb      	mvns	r3, r5
    5a78:	17db      	asrs	r3, r3, #31
    5a7a:	401d      	ands	r5, r3
    5a7c:	68a3      	ldr	r3, [r4, #8]
    5a7e:	6922      	ldr	r2, [r4, #16]
    5a80:	4293      	cmp	r3, r2
    5a82:	dd01      	ble.n	5a88 <_printf_common+0x7c>
    5a84:	1a9b      	subs	r3, r3, r2
    5a86:	18ed      	adds	r5, r5, r3
    5a88:	2700      	movs	r7, #0
    5a8a:	42bd      	cmp	r5, r7
    5a8c:	d120      	bne.n	5ad0 <_printf_common+0xc4>
    5a8e:	2000      	movs	r0, #0
    5a90:	e010      	b.n	5ab4 <_printf_common+0xa8>
    5a92:	3701      	adds	r7, #1
    5a94:	68e3      	ldr	r3, [r4, #12]
    5a96:	682a      	ldr	r2, [r5, #0]
    5a98:	1a9b      	subs	r3, r3, r2
    5a9a:	429f      	cmp	r7, r3
    5a9c:	dad2      	bge.n	5a44 <_printf_common+0x38>
    5a9e:	0022      	movs	r2, r4
    5aa0:	2301      	movs	r3, #1
    5aa2:	3219      	adds	r2, #25
    5aa4:	9901      	ldr	r1, [sp, #4]
    5aa6:	9800      	ldr	r0, [sp, #0]
    5aa8:	9e08      	ldr	r6, [sp, #32]
    5aaa:	47b0      	blx	r6
    5aac:	1c43      	adds	r3, r0, #1
    5aae:	d1f0      	bne.n	5a92 <_printf_common+0x86>
    5ab0:	2001      	movs	r0, #1
    5ab2:	4240      	negs	r0, r0
    5ab4:	bdfe      	pop	{r1, r2, r3, r4, r5, r6, r7, pc}
    5ab6:	2030      	movs	r0, #48	; 0x30
    5ab8:	18e1      	adds	r1, r4, r3
    5aba:	3143      	adds	r1, #67	; 0x43
    5abc:	7008      	strb	r0, [r1, #0]
    5abe:	0021      	movs	r1, r4
    5ac0:	1c5a      	adds	r2, r3, #1
    5ac2:	3145      	adds	r1, #69	; 0x45
    5ac4:	7809      	ldrb	r1, [r1, #0]
    5ac6:	18a2      	adds	r2, r4, r2
    5ac8:	3243      	adds	r2, #67	; 0x43
    5aca:	3302      	adds	r3, #2
    5acc:	7011      	strb	r1, [r2, #0]
    5ace:	e7c1      	b.n	5a54 <_printf_common+0x48>
    5ad0:	0022      	movs	r2, r4
    5ad2:	2301      	movs	r3, #1
    5ad4:	321a      	adds	r2, #26
    5ad6:	9901      	ldr	r1, [sp, #4]
    5ad8:	9800      	ldr	r0, [sp, #0]
    5ada:	9e08      	ldr	r6, [sp, #32]
    5adc:	47b0      	blx	r6
    5ade:	1c43      	adds	r3, r0, #1
    5ae0:	d0e6      	beq.n	5ab0 <_printf_common+0xa4>
    5ae2:	3701      	adds	r7, #1
    5ae4:	e7d1      	b.n	5a8a <_printf_common+0x7e>
	...

00005ae8 <_printf_i>:
    5ae8:	b5f0      	push	{r4, r5, r6, r7, lr}
    5aea:	b08b      	sub	sp, #44	; 0x2c
    5aec:	9206      	str	r2, [sp, #24]
    5aee:	000a      	movs	r2, r1
    5af0:	3243      	adds	r2, #67	; 0x43
    5af2:	9307      	str	r3, [sp, #28]
    5af4:	9005      	str	r0, [sp, #20]
    5af6:	9204      	str	r2, [sp, #16]
    5af8:	7e0a      	ldrb	r2, [r1, #24]
    5afa:	000c      	movs	r4, r1
    5afc:	9b10      	ldr	r3, [sp, #64]	; 0x40
    5afe:	2a6e      	cmp	r2, #110	; 0x6e
    5b00:	d100      	bne.n	5b04 <_printf_i+0x1c>
    5b02:	e08f      	b.n	5c24 <_printf_i+0x13c>
    5b04:	d817      	bhi.n	5b36 <_printf_i+0x4e>
    5b06:	2a63      	cmp	r2, #99	; 0x63
    5b08:	d02c      	beq.n	5b64 <_printf_i+0x7c>
    5b0a:	d808      	bhi.n	5b1e <_printf_i+0x36>
    5b0c:	2a00      	cmp	r2, #0
    5b0e:	d100      	bne.n	5b12 <_printf_i+0x2a>
    5b10:	e099      	b.n	5c46 <_printf_i+0x15e>
    5b12:	2a58      	cmp	r2, #88	; 0x58
    5b14:	d054      	beq.n	5bc0 <_printf_i+0xd8>
    5b16:	0026      	movs	r6, r4
    5b18:	3642      	adds	r6, #66	; 0x42
    5b1a:	7032      	strb	r2, [r6, #0]
    5b1c:	e029      	b.n	5b72 <_printf_i+0x8a>
    5b1e:	2a64      	cmp	r2, #100	; 0x64
    5b20:	d001      	beq.n	5b26 <_printf_i+0x3e>
    5b22:	2a69      	cmp	r2, #105	; 0x69
    5b24:	d1f7      	bne.n	5b16 <_printf_i+0x2e>
    5b26:	6821      	ldr	r1, [r4, #0]
    5b28:	681a      	ldr	r2, [r3, #0]
    5b2a:	0608      	lsls	r0, r1, #24
    5b2c:	d523      	bpl.n	5b76 <_printf_i+0x8e>
    5b2e:	1d11      	adds	r1, r2, #4
    5b30:	6019      	str	r1, [r3, #0]
    5b32:	6815      	ldr	r5, [r2, #0]
    5b34:	e025      	b.n	5b82 <_printf_i+0x9a>
    5b36:	2a73      	cmp	r2, #115	; 0x73
    5b38:	d100      	bne.n	5b3c <_printf_i+0x54>
    5b3a:	e088      	b.n	5c4e <_printf_i+0x166>
    5b3c:	d808      	bhi.n	5b50 <_printf_i+0x68>
    5b3e:	2a6f      	cmp	r2, #111	; 0x6f
    5b40:	d029      	beq.n	5b96 <_printf_i+0xae>
    5b42:	2a70      	cmp	r2, #112	; 0x70
    5b44:	d1e7      	bne.n	5b16 <_printf_i+0x2e>
    5b46:	2220      	movs	r2, #32
    5b48:	6809      	ldr	r1, [r1, #0]
    5b4a:	430a      	orrs	r2, r1
    5b4c:	6022      	str	r2, [r4, #0]
    5b4e:	e003      	b.n	5b58 <_printf_i+0x70>
    5b50:	2a75      	cmp	r2, #117	; 0x75
    5b52:	d020      	beq.n	5b96 <_printf_i+0xae>
    5b54:	2a78      	cmp	r2, #120	; 0x78
    5b56:	d1de      	bne.n	5b16 <_printf_i+0x2e>
    5b58:	0022      	movs	r2, r4
    5b5a:	2178      	movs	r1, #120	; 0x78
    5b5c:	3245      	adds	r2, #69	; 0x45
    5b5e:	7011      	strb	r1, [r2, #0]
    5b60:	4a6c      	ldr	r2, [pc, #432]	; (5d14 <_printf_i+0x22c>)
    5b62:	e030      	b.n	5bc6 <_printf_i+0xde>
    5b64:	000e      	movs	r6, r1
    5b66:	681a      	ldr	r2, [r3, #0]
    5b68:	3642      	adds	r6, #66	; 0x42
    5b6a:	1d11      	adds	r1, r2, #4
    5b6c:	6019      	str	r1, [r3, #0]
    5b6e:	6813      	ldr	r3, [r2, #0]
    5b70:	7033      	strb	r3, [r6, #0]
    5b72:	2301      	movs	r3, #1
    5b74:	e079      	b.n	5c6a <_printf_i+0x182>
    5b76:	0649      	lsls	r1, r1, #25
    5b78:	d5d9      	bpl.n	5b2e <_printf_i+0x46>
    5b7a:	1d11      	adds	r1, r2, #4
    5b7c:	6019      	str	r1, [r3, #0]
    5b7e:	2300      	movs	r3, #0
    5b80:	5ed5      	ldrsh	r5, [r2, r3]
    5b82:	2d00      	cmp	r5, #0
    5b84:	da03      	bge.n	5b8e <_printf_i+0xa6>
    5b86:	232d      	movs	r3, #45	; 0x2d
    5b88:	9a04      	ldr	r2, [sp, #16]
    5b8a:	426d      	negs	r5, r5
    5b8c:	7013      	strb	r3, [r2, #0]
    5b8e:	4b62      	ldr	r3, [pc, #392]	; (5d18 <_printf_i+0x230>)
    5b90:	270a      	movs	r7, #10
    5b92:	9303      	str	r3, [sp, #12]
    5b94:	e02f      	b.n	5bf6 <_printf_i+0x10e>
    5b96:	6820      	ldr	r0, [r4, #0]
    5b98:	6819      	ldr	r1, [r3, #0]
    5b9a:	0605      	lsls	r5, r0, #24
    5b9c:	d503      	bpl.n	5ba6 <_printf_i+0xbe>
    5b9e:	1d08      	adds	r0, r1, #4
    5ba0:	6018      	str	r0, [r3, #0]
    5ba2:	680d      	ldr	r5, [r1, #0]
    5ba4:	e005      	b.n	5bb2 <_printf_i+0xca>
    5ba6:	0640      	lsls	r0, r0, #25
    5ba8:	d5f9      	bpl.n	5b9e <_printf_i+0xb6>
    5baa:	680d      	ldr	r5, [r1, #0]
    5bac:	1d08      	adds	r0, r1, #4
    5bae:	6018      	str	r0, [r3, #0]
    5bb0:	b2ad      	uxth	r5, r5
    5bb2:	4b59      	ldr	r3, [pc, #356]	; (5d18 <_printf_i+0x230>)
    5bb4:	2708      	movs	r7, #8
    5bb6:	9303      	str	r3, [sp, #12]
    5bb8:	2a6f      	cmp	r2, #111	; 0x6f
    5bba:	d018      	beq.n	5bee <_printf_i+0x106>
    5bbc:	270a      	movs	r7, #10
    5bbe:	e016      	b.n	5bee <_printf_i+0x106>
    5bc0:	3145      	adds	r1, #69	; 0x45
    5bc2:	700a      	strb	r2, [r1, #0]
    5bc4:	4a54      	ldr	r2, [pc, #336]	; (5d18 <_printf_i+0x230>)
    5bc6:	9203      	str	r2, [sp, #12]
    5bc8:	681a      	ldr	r2, [r3, #0]
    5bca:	6821      	ldr	r1, [r4, #0]
    5bcc:	1d10      	adds	r0, r2, #4
    5bce:	6018      	str	r0, [r3, #0]
    5bd0:	6815      	ldr	r5, [r2, #0]
    5bd2:	0608      	lsls	r0, r1, #24
    5bd4:	d522      	bpl.n	5c1c <_printf_i+0x134>
    5bd6:	07cb      	lsls	r3, r1, #31
    5bd8:	d502      	bpl.n	5be0 <_printf_i+0xf8>
    5bda:	2320      	movs	r3, #32
    5bdc:	4319      	orrs	r1, r3
    5bde:	6021      	str	r1, [r4, #0]
    5be0:	2710      	movs	r7, #16
    5be2:	2d00      	cmp	r5, #0
    5be4:	d103      	bne.n	5bee <_printf_i+0x106>
    5be6:	2320      	movs	r3, #32
    5be8:	6822      	ldr	r2, [r4, #0]
    5bea:	439a      	bics	r2, r3
    5bec:	6022      	str	r2, [r4, #0]
    5bee:	0023      	movs	r3, r4
    5bf0:	2200      	movs	r2, #0
    5bf2:	3343      	adds	r3, #67	; 0x43
    5bf4:	701a      	strb	r2, [r3, #0]
    5bf6:	6863      	ldr	r3, [r4, #4]
    5bf8:	60a3      	str	r3, [r4, #8]
    5bfa:	2b00      	cmp	r3, #0
    5bfc:	db5c      	blt.n	5cb8 <_printf_i+0x1d0>
    5bfe:	2204      	movs	r2, #4
    5c00:	6821      	ldr	r1, [r4, #0]
    5c02:	4391      	bics	r1, r2
    5c04:	6021      	str	r1, [r4, #0]
    5c06:	2d00      	cmp	r5, #0
    5c08:	d158      	bne.n	5cbc <_printf_i+0x1d4>
    5c0a:	9e04      	ldr	r6, [sp, #16]
    5c0c:	2b00      	cmp	r3, #0
    5c0e:	d064      	beq.n	5cda <_printf_i+0x1f2>
    5c10:	0026      	movs	r6, r4
    5c12:	9b03      	ldr	r3, [sp, #12]
    5c14:	3642      	adds	r6, #66	; 0x42
    5c16:	781b      	ldrb	r3, [r3, #0]
    5c18:	7033      	strb	r3, [r6, #0]
    5c1a:	e05e      	b.n	5cda <_printf_i+0x1f2>
    5c1c:	0648      	lsls	r0, r1, #25
    5c1e:	d5da      	bpl.n	5bd6 <_printf_i+0xee>
    5c20:	b2ad      	uxth	r5, r5
    5c22:	e7d8      	b.n	5bd6 <_printf_i+0xee>
    5c24:	6809      	ldr	r1, [r1, #0]
    5c26:	681a      	ldr	r2, [r3, #0]
    5c28:	0608      	lsls	r0, r1, #24
    5c2a:	d505      	bpl.n	5c38 <_printf_i+0x150>
    5c2c:	1d11      	adds	r1, r2, #4
    5c2e:	6019      	str	r1, [r3, #0]
    5c30:	6813      	ldr	r3, [r2, #0]
    5c32:	6962      	ldr	r2, [r4, #20]
    5c34:	601a      	str	r2, [r3, #0]
    5c36:	e006      	b.n	5c46 <_printf_i+0x15e>
    5c38:	0649      	lsls	r1, r1, #25
    5c3a:	d5f7      	bpl.n	5c2c <_printf_i+0x144>
    5c3c:	1d11      	adds	r1, r2, #4
    5c3e:	6019      	str	r1, [r3, #0]
    5c40:	6813      	ldr	r3, [r2, #0]
    5c42:	8aa2      	ldrh	r2, [r4, #20]
    5c44:	801a      	strh	r2, [r3, #0]
    5c46:	2300      	movs	r3, #0
    5c48:	9e04      	ldr	r6, [sp, #16]
    5c4a:	6123      	str	r3, [r4, #16]
    5c4c:	e054      	b.n	5cf8 <_printf_i+0x210>
    5c4e:	681a      	ldr	r2, [r3, #0]
    5c50:	1d11      	adds	r1, r2, #4
    5c52:	6019      	str	r1, [r3, #0]
    5c54:	6816      	ldr	r6, [r2, #0]
    5c56:	2100      	movs	r1, #0
    5c58:	6862      	ldr	r2, [r4, #4]
    5c5a:	0030      	movs	r0, r6
    5c5c:	f7ff fc8a 	bl	5574 <memchr>
    5c60:	2800      	cmp	r0, #0
    5c62:	d001      	beq.n	5c68 <_printf_i+0x180>
    5c64:	1b80      	subs	r0, r0, r6
    5c66:	6060      	str	r0, [r4, #4]
    5c68:	6863      	ldr	r3, [r4, #4]
    5c6a:	6123      	str	r3, [r4, #16]
    5c6c:	2300      	movs	r3, #0
    5c6e:	9a04      	ldr	r2, [sp, #16]
    5c70:	7013      	strb	r3, [r2, #0]
    5c72:	e041      	b.n	5cf8 <_printf_i+0x210>
    5c74:	6923      	ldr	r3, [r4, #16]
    5c76:	0032      	movs	r2, r6
    5c78:	9906      	ldr	r1, [sp, #24]
    5c7a:	9805      	ldr	r0, [sp, #20]
    5c7c:	9d07      	ldr	r5, [sp, #28]
    5c7e:	47a8      	blx	r5
    5c80:	1c43      	adds	r3, r0, #1
    5c82:	d043      	beq.n	5d0c <_printf_i+0x224>
    5c84:	6823      	ldr	r3, [r4, #0]
    5c86:	2500      	movs	r5, #0
    5c88:	079b      	lsls	r3, r3, #30
    5c8a:	d40f      	bmi.n	5cac <_printf_i+0x1c4>
    5c8c:	9b09      	ldr	r3, [sp, #36]	; 0x24
    5c8e:	68e0      	ldr	r0, [r4, #12]
    5c90:	4298      	cmp	r0, r3
    5c92:	da3d      	bge.n	5d10 <_printf_i+0x228>
    5c94:	0018      	movs	r0, r3
    5c96:	e03b      	b.n	5d10 <_printf_i+0x228>
    5c98:	0022      	movs	r2, r4
    5c9a:	2301      	movs	r3, #1
    5c9c:	3219      	adds	r2, #25
    5c9e:	9906      	ldr	r1, [sp, #24]
    5ca0:	9805      	ldr	r0, [sp, #20]
    5ca2:	9e07      	ldr	r6, [sp, #28]
    5ca4:	47b0      	blx	r6
    5ca6:	1c43      	adds	r3, r0, #1
    5ca8:	d030      	beq.n	5d0c <_printf_i+0x224>
    5caa:	3501      	adds	r5, #1
    5cac:	68e3      	ldr	r3, [r4, #12]
    5cae:	9a09      	ldr	r2, [sp, #36]	; 0x24
    5cb0:	1a9b      	subs	r3, r3, r2
    5cb2:	429d      	cmp	r5, r3
    5cb4:	dbf0      	blt.n	5c98 <_printf_i+0x1b0>
    5cb6:	e7e9      	b.n	5c8c <_printf_i+0x1a4>
    5cb8:	2d00      	cmp	r5, #0
    5cba:	d0a9      	beq.n	5c10 <_printf_i+0x128>
    5cbc:	9e04      	ldr	r6, [sp, #16]
    5cbe:	0028      	movs	r0, r5
    5cc0:	0039      	movs	r1, r7
    5cc2:	f7fe f9af 	bl	4024 <__aeabi_uidivmod>
    5cc6:	9b03      	ldr	r3, [sp, #12]
    5cc8:	3e01      	subs	r6, #1
    5cca:	5c5b      	ldrb	r3, [r3, r1]
    5ccc:	0028      	movs	r0, r5
    5cce:	7033      	strb	r3, [r6, #0]
    5cd0:	0039      	movs	r1, r7
    5cd2:	f7fe f921 	bl	3f18 <__udivsi3>
    5cd6:	1e05      	subs	r5, r0, #0
    5cd8:	d1f1      	bne.n	5cbe <_printf_i+0x1d6>
    5cda:	2f08      	cmp	r7, #8
    5cdc:	d109      	bne.n	5cf2 <_printf_i+0x20a>
    5cde:	6823      	ldr	r3, [r4, #0]
    5ce0:	07db      	lsls	r3, r3, #31
    5ce2:	d506      	bpl.n	5cf2 <_printf_i+0x20a>
    5ce4:	6863      	ldr	r3, [r4, #4]
    5ce6:	6922      	ldr	r2, [r4, #16]
    5ce8:	4293      	cmp	r3, r2
    5cea:	dc02      	bgt.n	5cf2 <_printf_i+0x20a>
    5cec:	2330      	movs	r3, #48	; 0x30
    5cee:	3e01      	subs	r6, #1
    5cf0:	7033      	strb	r3, [r6, #0]
    5cf2:	9b04      	ldr	r3, [sp, #16]
    5cf4:	1b9b      	subs	r3, r3, r6
    5cf6:	6123      	str	r3, [r4, #16]
    5cf8:	9b07      	ldr	r3, [sp, #28]
    5cfa:	aa09      	add	r2, sp, #36	; 0x24
    5cfc:	9300      	str	r3, [sp, #0]
    5cfe:	0021      	movs	r1, r4
    5d00:	9b06      	ldr	r3, [sp, #24]
    5d02:	9805      	ldr	r0, [sp, #20]
    5d04:	f7ff fe82 	bl	5a0c <_printf_common>
    5d08:	1c43      	adds	r3, r0, #1
    5d0a:	d1b3      	bne.n	5c74 <_printf_i+0x18c>
    5d0c:	2001      	movs	r0, #1
    5d0e:	4240      	negs	r0, r0
    5d10:	b00b      	add	sp, #44	; 0x2c
    5d12:	bdf0      	pop	{r4, r5, r6, r7, pc}
    5d14:	00007946 	.word	0x00007946
    5d18:	00007935 	.word	0x00007935

00005d1c <_scanf_chars>:
    5d1c:	b5f7      	push	{r0, r1, r2, r4, r5, r6, r7, lr}
    5d1e:	0015      	movs	r5, r2
    5d20:	688a      	ldr	r2, [r1, #8]
    5d22:	9001      	str	r0, [sp, #4]
    5d24:	000c      	movs	r4, r1
    5d26:	2a00      	cmp	r2, #0
    5d28:	d106      	bne.n	5d38 <_scanf_chars+0x1c>
    5d2a:	698a      	ldr	r2, [r1, #24]
    5d2c:	1e51      	subs	r1, r2, #1
    5d2e:	418a      	sbcs	r2, r1
    5d30:	2101      	movs	r1, #1
    5d32:	4252      	negs	r2, r2
    5d34:	430a      	orrs	r2, r1
    5d36:	60a2      	str	r2, [r4, #8]
    5d38:	6822      	ldr	r2, [r4, #0]
    5d3a:	06d2      	lsls	r2, r2, #27
    5d3c:	d403      	bmi.n	5d46 <_scanf_chars+0x2a>
    5d3e:	681a      	ldr	r2, [r3, #0]
    5d40:	1d11      	adds	r1, r2, #4
    5d42:	6019      	str	r1, [r3, #0]
    5d44:	6817      	ldr	r7, [r2, #0]
    5d46:	2600      	movs	r6, #0
    5d48:	69a3      	ldr	r3, [r4, #24]
    5d4a:	2b00      	cmp	r3, #0
    5d4c:	d01c      	beq.n	5d88 <_scanf_chars+0x6c>
    5d4e:	2b01      	cmp	r3, #1
    5d50:	d108      	bne.n	5d64 <_scanf_chars+0x48>
    5d52:	682b      	ldr	r3, [r5, #0]
    5d54:	6962      	ldr	r2, [r4, #20]
    5d56:	781b      	ldrb	r3, [r3, #0]
    5d58:	5cd3      	ldrb	r3, [r2, r3]
    5d5a:	2b00      	cmp	r3, #0
    5d5c:	d114      	bne.n	5d88 <_scanf_chars+0x6c>
    5d5e:	2e00      	cmp	r6, #0
    5d60:	d130      	bne.n	5dc4 <_scanf_chars+0xa8>
    5d62:	e006      	b.n	5d72 <_scanf_chars+0x56>
    5d64:	2b02      	cmp	r3, #2
    5d66:	d006      	beq.n	5d76 <_scanf_chars+0x5a>
    5d68:	2e00      	cmp	r6, #0
    5d6a:	d12b      	bne.n	5dc4 <_scanf_chars+0xa8>
    5d6c:	69a3      	ldr	r3, [r4, #24]
    5d6e:	2b01      	cmp	r3, #1
    5d70:	d128      	bne.n	5dc4 <_scanf_chars+0xa8>
    5d72:	2001      	movs	r0, #1
    5d74:	bdfe      	pop	{r1, r2, r3, r4, r5, r6, r7, pc}
    5d76:	f000 fe87 	bl	6a88 <__locale_ctype_ptr>
    5d7a:	2208      	movs	r2, #8
    5d7c:	682b      	ldr	r3, [r5, #0]
    5d7e:	781b      	ldrb	r3, [r3, #0]
    5d80:	18c0      	adds	r0, r0, r3
    5d82:	7843      	ldrb	r3, [r0, #1]
    5d84:	4213      	tst	r3, r2
    5d86:	d1ef      	bne.n	5d68 <_scanf_chars+0x4c>
    5d88:	2210      	movs	r2, #16
    5d8a:	6823      	ldr	r3, [r4, #0]
    5d8c:	3601      	adds	r6, #1
    5d8e:	4213      	tst	r3, r2
    5d90:	d103      	bne.n	5d9a <_scanf_chars+0x7e>
    5d92:	682b      	ldr	r3, [r5, #0]
    5d94:	781b      	ldrb	r3, [r3, #0]
    5d96:	703b      	strb	r3, [r7, #0]
    5d98:	3701      	adds	r7, #1
    5d9a:	682a      	ldr	r2, [r5, #0]
    5d9c:	686b      	ldr	r3, [r5, #4]
    5d9e:	3201      	adds	r2, #1
    5da0:	602a      	str	r2, [r5, #0]
    5da2:	68a2      	ldr	r2, [r4, #8]
    5da4:	3b01      	subs	r3, #1
    5da6:	3a01      	subs	r2, #1
    5da8:	606b      	str	r3, [r5, #4]
    5daa:	60a2      	str	r2, [r4, #8]
    5dac:	2a00      	cmp	r2, #0
    5dae:	d009      	beq.n	5dc4 <_scanf_chars+0xa8>
    5db0:	2b00      	cmp	r3, #0
    5db2:	dcc9      	bgt.n	5d48 <_scanf_chars+0x2c>
    5db4:	23c0      	movs	r3, #192	; 0xc0
    5db6:	005b      	lsls	r3, r3, #1
    5db8:	58e3      	ldr	r3, [r4, r3]
    5dba:	0029      	movs	r1, r5
    5dbc:	9801      	ldr	r0, [sp, #4]
    5dbe:	4798      	blx	r3
    5dc0:	2800      	cmp	r0, #0
    5dc2:	d0c1      	beq.n	5d48 <_scanf_chars+0x2c>
    5dc4:	2310      	movs	r3, #16
    5dc6:	6822      	ldr	r2, [r4, #0]
    5dc8:	4013      	ands	r3, r2
    5dca:	d106      	bne.n	5dda <_scanf_chars+0xbe>
    5dcc:	68e2      	ldr	r2, [r4, #12]
    5dce:	3201      	adds	r2, #1
    5dd0:	60e2      	str	r2, [r4, #12]
    5dd2:	69a2      	ldr	r2, [r4, #24]
    5dd4:	2a00      	cmp	r2, #0
    5dd6:	d000      	beq.n	5dda <_scanf_chars+0xbe>
    5dd8:	703b      	strb	r3, [r7, #0]
    5dda:	6923      	ldr	r3, [r4, #16]
    5ddc:	2000      	movs	r0, #0
    5dde:	199e      	adds	r6, r3, r6
    5de0:	6126      	str	r6, [r4, #16]
    5de2:	e7c7      	b.n	5d74 <_scanf_chars+0x58>

00005de4 <_scanf_i>:
    5de4:	b5f0      	push	{r4, r5, r6, r7, lr}
    5de6:	000c      	movs	r4, r1
    5de8:	b08d      	sub	sp, #52	; 0x34
    5dea:	9302      	str	r3, [sp, #8]
    5dec:	4b77      	ldr	r3, [pc, #476]	; (5fcc <_scanf_i+0x1e8>)
    5dee:	9005      	str	r0, [sp, #20]
    5df0:	0016      	movs	r6, r2
    5df2:	aa09      	add	r2, sp, #36	; 0x24
    5df4:	cb23      	ldmia	r3!, {r0, r1, r5}
    5df6:	c223      	stmia	r2!, {r0, r1, r5}
    5df8:	4b75      	ldr	r3, [pc, #468]	; (5fd0 <_scanf_i+0x1ec>)
    5dfa:	9306      	str	r3, [sp, #24]
    5dfc:	69a3      	ldr	r3, [r4, #24]
    5dfe:	2b03      	cmp	r3, #3
    5e00:	d001      	beq.n	5e06 <_scanf_i+0x22>
    5e02:	4b74      	ldr	r3, [pc, #464]	; (5fd4 <_scanf_i+0x1f0>)
    5e04:	9306      	str	r3, [sp, #24]
    5e06:	22ae      	movs	r2, #174	; 0xae
    5e08:	2000      	movs	r0, #0
    5e0a:	68a3      	ldr	r3, [r4, #8]
    5e0c:	0052      	lsls	r2, r2, #1
    5e0e:	1e59      	subs	r1, r3, #1
    5e10:	9004      	str	r0, [sp, #16]
    5e12:	4291      	cmp	r1, r2
    5e14:	d905      	bls.n	5e22 <_scanf_i+0x3e>
    5e16:	3b5e      	subs	r3, #94	; 0x5e
    5e18:	3bff      	subs	r3, #255	; 0xff
    5e1a:	9304      	str	r3, [sp, #16]
    5e1c:	235e      	movs	r3, #94	; 0x5e
    5e1e:	33ff      	adds	r3, #255	; 0xff
    5e20:	60a3      	str	r3, [r4, #8]
    5e22:	0023      	movs	r3, r4
    5e24:	331c      	adds	r3, #28
    5e26:	9301      	str	r3, [sp, #4]
    5e28:	23d0      	movs	r3, #208	; 0xd0
    5e2a:	2700      	movs	r7, #0
    5e2c:	6822      	ldr	r2, [r4, #0]
    5e2e:	011b      	lsls	r3, r3, #4
    5e30:	4313      	orrs	r3, r2
    5e32:	6023      	str	r3, [r4, #0]
    5e34:	9b01      	ldr	r3, [sp, #4]
    5e36:	9303      	str	r3, [sp, #12]
    5e38:	6833      	ldr	r3, [r6, #0]
    5e3a:	a809      	add	r0, sp, #36	; 0x24
    5e3c:	7819      	ldrb	r1, [r3, #0]
    5e3e:	00bb      	lsls	r3, r7, #2
    5e40:	2202      	movs	r2, #2
    5e42:	5818      	ldr	r0, [r3, r0]
    5e44:	f7ff fb96 	bl	5574 <memchr>
    5e48:	2800      	cmp	r0, #0
    5e4a:	d02b      	beq.n	5ea4 <_scanf_i+0xc0>
    5e4c:	2f01      	cmp	r7, #1
    5e4e:	d15f      	bne.n	5f10 <_scanf_i+0x12c>
    5e50:	6863      	ldr	r3, [r4, #4]
    5e52:	2b00      	cmp	r3, #0
    5e54:	d106      	bne.n	5e64 <_scanf_i+0x80>
    5e56:	3308      	adds	r3, #8
    5e58:	6822      	ldr	r2, [r4, #0]
    5e5a:	6063      	str	r3, [r4, #4]
    5e5c:	33f9      	adds	r3, #249	; 0xf9
    5e5e:	33ff      	adds	r3, #255	; 0xff
    5e60:	4313      	orrs	r3, r2
    5e62:	6023      	str	r3, [r4, #0]
    5e64:	4b5c      	ldr	r3, [pc, #368]	; (5fd8 <_scanf_i+0x1f4>)
    5e66:	6822      	ldr	r2, [r4, #0]
    5e68:	4013      	ands	r3, r2
    5e6a:	6023      	str	r3, [r4, #0]
    5e6c:	68a3      	ldr	r3, [r4, #8]
    5e6e:	1e5a      	subs	r2, r3, #1
    5e70:	60a2      	str	r2, [r4, #8]
    5e72:	2b00      	cmp	r3, #0
    5e74:	d016      	beq.n	5ea4 <_scanf_i+0xc0>
    5e76:	9b03      	ldr	r3, [sp, #12]
    5e78:	1c5d      	adds	r5, r3, #1
    5e7a:	6833      	ldr	r3, [r6, #0]
    5e7c:	1c5a      	adds	r2, r3, #1
    5e7e:	6032      	str	r2, [r6, #0]
    5e80:	781b      	ldrb	r3, [r3, #0]
    5e82:	9a03      	ldr	r2, [sp, #12]
    5e84:	9503      	str	r5, [sp, #12]
    5e86:	7013      	strb	r3, [r2, #0]
    5e88:	6873      	ldr	r3, [r6, #4]
    5e8a:	3b01      	subs	r3, #1
    5e8c:	6073      	str	r3, [r6, #4]
    5e8e:	2b00      	cmp	r3, #0
    5e90:	dc08      	bgt.n	5ea4 <_scanf_i+0xc0>
    5e92:	23c0      	movs	r3, #192	; 0xc0
    5e94:	005b      	lsls	r3, r3, #1
    5e96:	58e3      	ldr	r3, [r4, r3]
    5e98:	0031      	movs	r1, r6
    5e9a:	9805      	ldr	r0, [sp, #20]
    5e9c:	9307      	str	r3, [sp, #28]
    5e9e:	4798      	blx	r3
    5ea0:	2800      	cmp	r0, #0
    5ea2:	d17d      	bne.n	5fa0 <_scanf_i+0x1bc>
    5ea4:	3701      	adds	r7, #1
    5ea6:	2f03      	cmp	r7, #3
    5ea8:	d1c6      	bne.n	5e38 <_scanf_i+0x54>
    5eaa:	6863      	ldr	r3, [r4, #4]
    5eac:	2b00      	cmp	r3, #0
    5eae:	d101      	bne.n	5eb4 <_scanf_i+0xd0>
    5eb0:	330a      	adds	r3, #10
    5eb2:	6063      	str	r3, [r4, #4]
    5eb4:	2110      	movs	r1, #16
    5eb6:	2700      	movs	r7, #0
    5eb8:	6863      	ldr	r3, [r4, #4]
    5eba:	6960      	ldr	r0, [r4, #20]
    5ebc:	1ac9      	subs	r1, r1, r3
    5ebe:	4b47      	ldr	r3, [pc, #284]	; (5fdc <_scanf_i+0x1f8>)
    5ec0:	18c9      	adds	r1, r1, r3
    5ec2:	f000 f981 	bl	61c8 <__sccl>
    5ec6:	9d03      	ldr	r5, [sp, #12]
    5ec8:	68a3      	ldr	r3, [r4, #8]
    5eca:	2b00      	cmp	r3, #0
    5ecc:	d041      	beq.n	5f52 <_scanf_i+0x16e>
    5ece:	6832      	ldr	r2, [r6, #0]
    5ed0:	6960      	ldr	r0, [r4, #20]
    5ed2:	7811      	ldrb	r1, [r2, #0]
    5ed4:	5c40      	ldrb	r0, [r0, r1]
    5ed6:	2800      	cmp	r0, #0
    5ed8:	d03b      	beq.n	5f52 <_scanf_i+0x16e>
    5eda:	2930      	cmp	r1, #48	; 0x30
    5edc:	d128      	bne.n	5f30 <_scanf_i+0x14c>
    5ede:	2080      	movs	r0, #128	; 0x80
    5ee0:	6821      	ldr	r1, [r4, #0]
    5ee2:	0100      	lsls	r0, r0, #4
    5ee4:	4201      	tst	r1, r0
    5ee6:	d023      	beq.n	5f30 <_scanf_i+0x14c>
    5ee8:	9a04      	ldr	r2, [sp, #16]
    5eea:	3701      	adds	r7, #1
    5eec:	2a00      	cmp	r2, #0
    5eee:	d003      	beq.n	5ef8 <_scanf_i+0x114>
    5ef0:	3a01      	subs	r2, #1
    5ef2:	3301      	adds	r3, #1
    5ef4:	9204      	str	r2, [sp, #16]
    5ef6:	60a3      	str	r3, [r4, #8]
    5ef8:	6873      	ldr	r3, [r6, #4]
    5efa:	3b01      	subs	r3, #1
    5efc:	6073      	str	r3, [r6, #4]
    5efe:	2b00      	cmp	r3, #0
    5f00:	dd1e      	ble.n	5f40 <_scanf_i+0x15c>
    5f02:	6833      	ldr	r3, [r6, #0]
    5f04:	3301      	adds	r3, #1
    5f06:	6033      	str	r3, [r6, #0]
    5f08:	68a3      	ldr	r3, [r4, #8]
    5f0a:	3b01      	subs	r3, #1
    5f0c:	60a3      	str	r3, [r4, #8]
    5f0e:	e7db      	b.n	5ec8 <_scanf_i+0xe4>
    5f10:	2f02      	cmp	r7, #2
    5f12:	d1ab      	bne.n	5e6c <_scanf_i+0x88>
    5f14:	21c0      	movs	r1, #192	; 0xc0
    5f16:	2380      	movs	r3, #128	; 0x80
    5f18:	6822      	ldr	r2, [r4, #0]
    5f1a:	00c9      	lsls	r1, r1, #3
    5f1c:	4011      	ands	r1, r2
    5f1e:	009b      	lsls	r3, r3, #2
    5f20:	4299      	cmp	r1, r3
    5f22:	d1c2      	bne.n	5eaa <_scanf_i+0xc6>
    5f24:	3bf1      	subs	r3, #241	; 0xf1
    5f26:	3bff      	subs	r3, #255	; 0xff
    5f28:	6063      	str	r3, [r4, #4]
    5f2a:	33f0      	adds	r3, #240	; 0xf0
    5f2c:	4313      	orrs	r3, r2
    5f2e:	e79c      	b.n	5e6a <_scanf_i+0x86>
    5f30:	6821      	ldr	r1, [r4, #0]
    5f32:	4b2b      	ldr	r3, [pc, #172]	; (5fe0 <_scanf_i+0x1fc>)
    5f34:	400b      	ands	r3, r1
    5f36:	6023      	str	r3, [r4, #0]
    5f38:	7813      	ldrb	r3, [r2, #0]
    5f3a:	702b      	strb	r3, [r5, #0]
    5f3c:	3501      	adds	r5, #1
    5f3e:	e7db      	b.n	5ef8 <_scanf_i+0x114>
    5f40:	23c0      	movs	r3, #192	; 0xc0
    5f42:	005b      	lsls	r3, r3, #1
    5f44:	58e3      	ldr	r3, [r4, r3]
    5f46:	0031      	movs	r1, r6
    5f48:	9805      	ldr	r0, [sp, #20]
    5f4a:	9303      	str	r3, [sp, #12]
    5f4c:	4798      	blx	r3
    5f4e:	2800      	cmp	r0, #0
    5f50:	d0da      	beq.n	5f08 <_scanf_i+0x124>
    5f52:	6823      	ldr	r3, [r4, #0]
    5f54:	05db      	lsls	r3, r3, #23
    5f56:	d50e      	bpl.n	5f76 <_scanf_i+0x192>
    5f58:	9b01      	ldr	r3, [sp, #4]
    5f5a:	429d      	cmp	r5, r3
    5f5c:	d907      	bls.n	5f6e <_scanf_i+0x18a>
    5f5e:	23be      	movs	r3, #190	; 0xbe
    5f60:	3d01      	subs	r5, #1
    5f62:	005b      	lsls	r3, r3, #1
    5f64:	7829      	ldrb	r1, [r5, #0]
    5f66:	58e3      	ldr	r3, [r4, r3]
    5f68:	0032      	movs	r2, r6
    5f6a:	9805      	ldr	r0, [sp, #20]
    5f6c:	4798      	blx	r3
    5f6e:	9b01      	ldr	r3, [sp, #4]
    5f70:	2001      	movs	r0, #1
    5f72:	429d      	cmp	r5, r3
    5f74:	d027      	beq.n	5fc6 <_scanf_i+0x1e2>
    5f76:	2210      	movs	r2, #16
    5f78:	6823      	ldr	r3, [r4, #0]
    5f7a:	401a      	ands	r2, r3
    5f7c:	d11c      	bne.n	5fb8 <_scanf_i+0x1d4>
    5f7e:	702a      	strb	r2, [r5, #0]
    5f80:	6863      	ldr	r3, [r4, #4]
    5f82:	9901      	ldr	r1, [sp, #4]
    5f84:	9805      	ldr	r0, [sp, #20]
    5f86:	9e06      	ldr	r6, [sp, #24]
    5f88:	47b0      	blx	r6
    5f8a:	9b02      	ldr	r3, [sp, #8]
    5f8c:	6822      	ldr	r2, [r4, #0]
    5f8e:	681b      	ldr	r3, [r3, #0]
    5f90:	0691      	lsls	r1, r2, #26
    5f92:	d507      	bpl.n	5fa4 <_scanf_i+0x1c0>
    5f94:	9902      	ldr	r1, [sp, #8]
    5f96:	1d1a      	adds	r2, r3, #4
    5f98:	600a      	str	r2, [r1, #0]
    5f9a:	681b      	ldr	r3, [r3, #0]
    5f9c:	6018      	str	r0, [r3, #0]
    5f9e:	e008      	b.n	5fb2 <_scanf_i+0x1ce>
    5fa0:	2700      	movs	r7, #0
    5fa2:	e7d6      	b.n	5f52 <_scanf_i+0x16e>
    5fa4:	07d1      	lsls	r1, r2, #31
    5fa6:	d5f5      	bpl.n	5f94 <_scanf_i+0x1b0>
    5fa8:	9902      	ldr	r1, [sp, #8]
    5faa:	1d1a      	adds	r2, r3, #4
    5fac:	600a      	str	r2, [r1, #0]
    5fae:	681b      	ldr	r3, [r3, #0]
    5fb0:	8018      	strh	r0, [r3, #0]
    5fb2:	68e3      	ldr	r3, [r4, #12]
    5fb4:	3301      	adds	r3, #1
    5fb6:	60e3      	str	r3, [r4, #12]
    5fb8:	2000      	movs	r0, #0
    5fba:	9b01      	ldr	r3, [sp, #4]
    5fbc:	1aed      	subs	r5, r5, r3
    5fbe:	6923      	ldr	r3, [r4, #16]
    5fc0:	19ef      	adds	r7, r5, r7
    5fc2:	19df      	adds	r7, r3, r7
    5fc4:	6127      	str	r7, [r4, #16]
    5fc6:	b00d      	add	sp, #52	; 0x34
    5fc8:	bdf0      	pop	{r4, r5, r6, r7, pc}
    5fca:	46c0      	nop			; (mov r8, r8)
    5fcc:	00007958 	.word	0x00007958
    5fd0:	00006615 	.word	0x00006615
    5fd4:	00006745 	.word	0x00006745
    5fd8:	fffffaff 	.word	0xfffffaff
    5fdc:	00007964 	.word	0x00007964
    5fe0:	fffff6ff 	.word	0xfffff6ff

00005fe4 <_open_r>:
    5fe4:	b570      	push	{r4, r5, r6, lr}
    5fe6:	0005      	movs	r5, r0
    5fe8:	0008      	movs	r0, r1
    5fea:	0011      	movs	r1, r2
    5fec:	2200      	movs	r2, #0
    5fee:	4c06      	ldr	r4, [pc, #24]	; (6008 <_open_r+0x24>)
    5ff0:	6022      	str	r2, [r4, #0]
    5ff2:	001a      	movs	r2, r3
    5ff4:	f7fd fdd2 	bl	3b9c <_open>
    5ff8:	1c43      	adds	r3, r0, #1
    5ffa:	d103      	bne.n	6004 <_open_r+0x20>
    5ffc:	6823      	ldr	r3, [r4, #0]
    5ffe:	2b00      	cmp	r3, #0
    6000:	d000      	beq.n	6004 <_open_r+0x20>
    6002:	602b      	str	r3, [r5, #0]
    6004:	bd70      	pop	{r4, r5, r6, pc}
    6006:	46c0      	nop			; (mov r8, r8)
    6008:	20000e60 	.word	0x20000e60

0000600c <lflush>:
    600c:	2209      	movs	r2, #9
    600e:	b510      	push	{r4, lr}
    6010:	8983      	ldrh	r3, [r0, #12]
    6012:	4013      	ands	r3, r2
    6014:	2200      	movs	r2, #0
    6016:	2b09      	cmp	r3, #9
    6018:	d102      	bne.n	6020 <lflush+0x14>
    601a:	f7fe ffe3 	bl	4fe4 <fflush>
    601e:	0002      	movs	r2, r0
    6020:	0010      	movs	r0, r2
    6022:	bd10      	pop	{r4, pc}

00006024 <__srefill_r>:
    6024:	b5f8      	push	{r3, r4, r5, r6, r7, lr}
    6026:	0005      	movs	r5, r0
    6028:	000c      	movs	r4, r1
    602a:	2800      	cmp	r0, #0
    602c:	d004      	beq.n	6038 <__srefill_r+0x14>
    602e:	6983      	ldr	r3, [r0, #24]
    6030:	2b00      	cmp	r3, #0
    6032:	d101      	bne.n	6038 <__srefill_r+0x14>
    6034:	f7ff f864 	bl	5100 <__sinit>
    6038:	4b3d      	ldr	r3, [pc, #244]	; (6130 <__srefill_r+0x10c>)
    603a:	429c      	cmp	r4, r3
    603c:	d10a      	bne.n	6054 <__srefill_r+0x30>
    603e:	686c      	ldr	r4, [r5, #4]
    6040:	2300      	movs	r3, #0
    6042:	6063      	str	r3, [r4, #4]
    6044:	230c      	movs	r3, #12
    6046:	5ee2      	ldrsh	r2, [r4, r3]
    6048:	b293      	uxth	r3, r2
    604a:	0699      	lsls	r1, r3, #26
    604c:	d50c      	bpl.n	6068 <__srefill_r+0x44>
    604e:	2001      	movs	r0, #1
    6050:	4240      	negs	r0, r0
    6052:	e068      	b.n	6126 <__srefill_r+0x102>
    6054:	4b37      	ldr	r3, [pc, #220]	; (6134 <__srefill_r+0x110>)
    6056:	429c      	cmp	r4, r3
    6058:	d101      	bne.n	605e <__srefill_r+0x3a>
    605a:	68ac      	ldr	r4, [r5, #8]
    605c:	e7f0      	b.n	6040 <__srefill_r+0x1c>
    605e:	4b36      	ldr	r3, [pc, #216]	; (6138 <__srefill_r+0x114>)
    6060:	429c      	cmp	r4, r3
    6062:	d1ed      	bne.n	6040 <__srefill_r+0x1c>
    6064:	68ec      	ldr	r4, [r5, #12]
    6066:	e7eb      	b.n	6040 <__srefill_r+0x1c>
    6068:	0759      	lsls	r1, r3, #29
    606a:	d44a      	bmi.n	6102 <__srefill_r+0xde>
    606c:	06d9      	lsls	r1, r3, #27
    606e:	d405      	bmi.n	607c <__srefill_r+0x58>
    6070:	2309      	movs	r3, #9
    6072:	602b      	str	r3, [r5, #0]
    6074:	3337      	adds	r3, #55	; 0x37
    6076:	4313      	orrs	r3, r2
    6078:	81a3      	strh	r3, [r4, #12]
    607a:	e7e8      	b.n	604e <__srefill_r+0x2a>
    607c:	2608      	movs	r6, #8
    607e:	4233      	tst	r3, r6
    6080:	d00a      	beq.n	6098 <__srefill_r+0x74>
    6082:	0021      	movs	r1, r4
    6084:	0028      	movs	r0, r5
    6086:	f7fe ff81 	bl	4f8c <_fflush_r>
    608a:	2800      	cmp	r0, #0
    608c:	d1df      	bne.n	604e <__srefill_r+0x2a>
    608e:	89a3      	ldrh	r3, [r4, #12]
    6090:	60a0      	str	r0, [r4, #8]
    6092:	43b3      	bics	r3, r6
    6094:	81a3      	strh	r3, [r4, #12]
    6096:	61a0      	str	r0, [r4, #24]
    6098:	2304      	movs	r3, #4
    609a:	89a2      	ldrh	r2, [r4, #12]
    609c:	4313      	orrs	r3, r2
    609e:	81a3      	strh	r3, [r4, #12]
    60a0:	6923      	ldr	r3, [r4, #16]
    60a2:	2b00      	cmp	r3, #0
    60a4:	d103      	bne.n	60ae <__srefill_r+0x8a>
    60a6:	0021      	movs	r1, r4
    60a8:	0028      	movs	r0, r5
    60aa:	f7ff fa0b 	bl	54c4 <__smakebuf_r>
    60ae:	230c      	movs	r3, #12
    60b0:	5ee7      	ldrsh	r7, [r4, r3]
    60b2:	b2be      	uxth	r6, r7
    60b4:	07b3      	lsls	r3, r6, #30
    60b6:	d00f      	beq.n	60d8 <__srefill_r+0xb4>
    60b8:	2301      	movs	r3, #1
    60ba:	81a3      	strh	r3, [r4, #12]
    60bc:	4b1f      	ldr	r3, [pc, #124]	; (613c <__srefill_r+0x118>)
    60be:	4920      	ldr	r1, [pc, #128]	; (6140 <__srefill_r+0x11c>)
    60c0:	6818      	ldr	r0, [r3, #0]
    60c2:	f7ff f975 	bl	53b0 <_fwalk>
    60c6:	2309      	movs	r3, #9
    60c8:	81a7      	strh	r7, [r4, #12]
    60ca:	401e      	ands	r6, r3
    60cc:	429e      	cmp	r6, r3
    60ce:	d103      	bne.n	60d8 <__srefill_r+0xb4>
    60d0:	0021      	movs	r1, r4
    60d2:	0028      	movs	r0, r5
    60d4:	f7fe fed0 	bl	4e78 <__sflush_r>
    60d8:	6923      	ldr	r3, [r4, #16]
    60da:	6922      	ldr	r2, [r4, #16]
    60dc:	6023      	str	r3, [r4, #0]
    60de:	0028      	movs	r0, r5
    60e0:	6963      	ldr	r3, [r4, #20]
    60e2:	6a21      	ldr	r1, [r4, #32]
    60e4:	6a65      	ldr	r5, [r4, #36]	; 0x24
    60e6:	47a8      	blx	r5
    60e8:	0002      	movs	r2, r0
    60ea:	6060      	str	r0, [r4, #4]
    60ec:	2000      	movs	r0, #0
    60ee:	4282      	cmp	r2, r0
    60f0:	dc19      	bgt.n	6126 <__srefill_r+0x102>
    60f2:	89a1      	ldrh	r1, [r4, #12]
    60f4:	4282      	cmp	r2, r0
    60f6:	d117      	bne.n	6128 <__srefill_r+0x104>
    60f8:	2320      	movs	r3, #32
    60fa:	430b      	orrs	r3, r1
    60fc:	81a3      	strh	r3, [r4, #12]
    60fe:	3801      	subs	r0, #1
    6100:	e011      	b.n	6126 <__srefill_r+0x102>
    6102:	6b61      	ldr	r1, [r4, #52]	; 0x34
    6104:	2900      	cmp	r1, #0
    6106:	d0cb      	beq.n	60a0 <__srefill_r+0x7c>
    6108:	0023      	movs	r3, r4
    610a:	3344      	adds	r3, #68	; 0x44
    610c:	4299      	cmp	r1, r3
    610e:	d002      	beq.n	6116 <__srefill_r+0xf2>
    6110:	0028      	movs	r0, r5
    6112:	f7fd fb7f 	bl	3814 <__wrap__free_r>
    6116:	2000      	movs	r0, #0
    6118:	6c23      	ldr	r3, [r4, #64]	; 0x40
    611a:	6360      	str	r0, [r4, #52]	; 0x34
    611c:	6063      	str	r3, [r4, #4]
    611e:	4283      	cmp	r3, r0
    6120:	d0be      	beq.n	60a0 <__srefill_r+0x7c>
    6122:	6be3      	ldr	r3, [r4, #60]	; 0x3c
    6124:	6023      	str	r3, [r4, #0]
    6126:	bdf8      	pop	{r3, r4, r5, r6, r7, pc}
    6128:	2340      	movs	r3, #64	; 0x40
    612a:	6060      	str	r0, [r4, #4]
    612c:	430b      	orrs	r3, r1
    612e:	e7a3      	b.n	6078 <__srefill_r+0x54>
    6130:	000078e0 	.word	0x000078e0
    6134:	00007900 	.word	0x00007900
    6138:	000078c0 	.word	0x000078c0
    613c:	00007920 	.word	0x00007920
    6140:	0000600d 	.word	0x0000600d

00006144 <__srget_r>:
    6144:	b570      	push	{r4, r5, r6, lr}
    6146:	0005      	movs	r5, r0
    6148:	000c      	movs	r4, r1
    614a:	2800      	cmp	r0, #0
    614c:	d004      	beq.n	6158 <__srget_r+0x14>
    614e:	6983      	ldr	r3, [r0, #24]
    6150:	2b00      	cmp	r3, #0
    6152:	d101      	bne.n	6158 <__srget_r+0x14>
    6154:	f7fe ffd4 	bl	5100 <__sinit>
    6158:	4b0f      	ldr	r3, [pc, #60]	; (6198 <__srget_r+0x54>)
    615a:	429c      	cmp	r4, r3
    615c:	d10e      	bne.n	617c <__srget_r+0x38>
    615e:	686c      	ldr	r4, [r5, #4]
    6160:	0021      	movs	r1, r4
    6162:	0028      	movs	r0, r5
    6164:	f7ff ff5e 	bl	6024 <__srefill_r>
    6168:	2800      	cmp	r0, #0
    616a:	d111      	bne.n	6190 <__srget_r+0x4c>
    616c:	6863      	ldr	r3, [r4, #4]
    616e:	3b01      	subs	r3, #1
    6170:	6063      	str	r3, [r4, #4]
    6172:	6823      	ldr	r3, [r4, #0]
    6174:	1c5a      	adds	r2, r3, #1
    6176:	6022      	str	r2, [r4, #0]
    6178:	7818      	ldrb	r0, [r3, #0]
    617a:	bd70      	pop	{r4, r5, r6, pc}
    617c:	4b07      	ldr	r3, [pc, #28]	; (619c <__srget_r+0x58>)
    617e:	429c      	cmp	r4, r3
    6180:	d101      	bne.n	6186 <__srget_r+0x42>
    6182:	68ac      	ldr	r4, [r5, #8]
    6184:	e7ec      	b.n	6160 <__srget_r+0x1c>
    6186:	4b06      	ldr	r3, [pc, #24]	; (61a0 <__srget_r+0x5c>)
    6188:	429c      	cmp	r4, r3
    618a:	d1e9      	bne.n	6160 <__srget_r+0x1c>
    618c:	68ec      	ldr	r4, [r5, #12]
    618e:	e7e7      	b.n	6160 <__srget_r+0x1c>
    6190:	2001      	movs	r0, #1
    6192:	4240      	negs	r0, r0
    6194:	e7f1      	b.n	617a <__srget_r+0x36>
    6196:	46c0      	nop			; (mov r8, r8)
    6198:	000078e0 	.word	0x000078e0
    619c:	00007900 	.word	0x00007900
    61a0:	000078c0 	.word	0x000078c0

000061a4 <_sbrk_r>:
    61a4:	2300      	movs	r3, #0
    61a6:	b570      	push	{r4, r5, r6, lr}
    61a8:	4c06      	ldr	r4, [pc, #24]	; (61c4 <_sbrk_r+0x20>)
    61aa:	0005      	movs	r5, r0
    61ac:	0008      	movs	r0, r1
    61ae:	6023      	str	r3, [r4, #0]
    61b0:	f7fd fc64 	bl	3a7c <_sbrk>
    61b4:	1c43      	adds	r3, r0, #1
    61b6:	d103      	bne.n	61c0 <_sbrk_r+0x1c>
    61b8:	6823      	ldr	r3, [r4, #0]
    61ba:	2b00      	cmp	r3, #0
    61bc:	d000      	beq.n	61c0 <_sbrk_r+0x1c>
    61be:	602b      	str	r3, [r5, #0]
    61c0:	bd70      	pop	{r4, r5, r6, pc}
    61c2:	46c0      	nop			; (mov r8, r8)
    61c4:	20000e60 	.word	0x20000e60

000061c8 <__sccl>:
    61c8:	b570      	push	{r4, r5, r6, lr}
    61ca:	780b      	ldrb	r3, [r1, #0]
    61cc:	2b5e      	cmp	r3, #94	; 0x5e
    61ce:	d00d      	beq.n	61ec <__sccl+0x24>
    61d0:	1c4a      	adds	r2, r1, #1
    61d2:	2100      	movs	r1, #0
    61d4:	0004      	movs	r4, r0
    61d6:	1c45      	adds	r5, r0, #1
    61d8:	35ff      	adds	r5, #255	; 0xff
    61da:	7021      	strb	r1, [r4, #0]
    61dc:	3401      	adds	r4, #1
    61de:	42a5      	cmp	r5, r4
    61e0:	d1fb      	bne.n	61da <__sccl+0x12>
    61e2:	2b00      	cmp	r3, #0
    61e4:	d106      	bne.n	61f4 <__sccl+0x2c>
    61e6:	3a01      	subs	r2, #1
    61e8:	0010      	movs	r0, r2
    61ea:	bd70      	pop	{r4, r5, r6, pc}
    61ec:	1c8a      	adds	r2, r1, #2
    61ee:	784b      	ldrb	r3, [r1, #1]
    61f0:	2101      	movs	r1, #1
    61f2:	e7ef      	b.n	61d4 <__sccl+0xc>
    61f4:	2401      	movs	r4, #1
    61f6:	404c      	eors	r4, r1
    61f8:	0011      	movs	r1, r2
    61fa:	54c4      	strb	r4, [r0, r3]
    61fc:	780d      	ldrb	r5, [r1, #0]
    61fe:	1c4a      	adds	r2, r1, #1
    6200:	2d2d      	cmp	r5, #45	; 0x2d
    6202:	d007      	beq.n	6214 <__sccl+0x4c>
    6204:	2d5d      	cmp	r5, #93	; 0x5d
    6206:	d0ef      	beq.n	61e8 <__sccl+0x20>
    6208:	2d00      	cmp	r5, #0
    620a:	d101      	bne.n	6210 <__sccl+0x48>
    620c:	000a      	movs	r2, r1
    620e:	e7eb      	b.n	61e8 <__sccl+0x20>
    6210:	002b      	movs	r3, r5
    6212:	e7f1      	b.n	61f8 <__sccl+0x30>
    6214:	784e      	ldrb	r6, [r1, #1]
    6216:	2e5d      	cmp	r6, #93	; 0x5d
    6218:	d0fa      	beq.n	6210 <__sccl+0x48>
    621a:	42b3      	cmp	r3, r6
    621c:	dcf8      	bgt.n	6210 <__sccl+0x48>
    621e:	3102      	adds	r1, #2
    6220:	3301      	adds	r3, #1
    6222:	54c4      	strb	r4, [r0, r3]
    6224:	429e      	cmp	r6, r3
    6226:	dcfb      	bgt.n	6220 <__sccl+0x58>
    6228:	e7e8      	b.n	61fc <__sccl+0x34>

0000622a <setbuf>:
    622a:	424a      	negs	r2, r1
    622c:	414a      	adcs	r2, r1
    622e:	2380      	movs	r3, #128	; 0x80
    6230:	b510      	push	{r4, lr}
    6232:	0052      	lsls	r2, r2, #1
    6234:	00db      	lsls	r3, r3, #3
    6236:	f000 f801 	bl	623c <setvbuf>
    623a:	bd10      	pop	{r4, pc}

0000623c <setvbuf>:
    623c:	b5f0      	push	{r4, r5, r6, r7, lr}
    623e:	001d      	movs	r5, r3
    6240:	4b4f      	ldr	r3, [pc, #316]	; (6380 <setvbuf+0x144>)
    6242:	b085      	sub	sp, #20
    6244:	681e      	ldr	r6, [r3, #0]
    6246:	0004      	movs	r4, r0
    6248:	000f      	movs	r7, r1
    624a:	9200      	str	r2, [sp, #0]
    624c:	2e00      	cmp	r6, #0
    624e:	d005      	beq.n	625c <setvbuf+0x20>
    6250:	69b3      	ldr	r3, [r6, #24]
    6252:	2b00      	cmp	r3, #0
    6254:	d102      	bne.n	625c <setvbuf+0x20>
    6256:	0030      	movs	r0, r6
    6258:	f7fe ff52 	bl	5100 <__sinit>
    625c:	4b49      	ldr	r3, [pc, #292]	; (6384 <setvbuf+0x148>)
    625e:	429c      	cmp	r4, r3
    6260:	d150      	bne.n	6304 <setvbuf+0xc8>
    6262:	6874      	ldr	r4, [r6, #4]
    6264:	9b00      	ldr	r3, [sp, #0]
    6266:	2b02      	cmp	r3, #2
    6268:	d005      	beq.n	6276 <setvbuf+0x3a>
    626a:	2b01      	cmp	r3, #1
    626c:	d900      	bls.n	6270 <setvbuf+0x34>
    626e:	e084      	b.n	637a <setvbuf+0x13e>
    6270:	2d00      	cmp	r5, #0
    6272:	da00      	bge.n	6276 <setvbuf+0x3a>
    6274:	e081      	b.n	637a <setvbuf+0x13e>
    6276:	0021      	movs	r1, r4
    6278:	0030      	movs	r0, r6
    627a:	f7fe fe87 	bl	4f8c <_fflush_r>
    627e:	6b61      	ldr	r1, [r4, #52]	; 0x34
    6280:	2900      	cmp	r1, #0
    6282:	d008      	beq.n	6296 <setvbuf+0x5a>
    6284:	0023      	movs	r3, r4
    6286:	3344      	adds	r3, #68	; 0x44
    6288:	4299      	cmp	r1, r3
    628a:	d002      	beq.n	6292 <setvbuf+0x56>
    628c:	0030      	movs	r0, r6
    628e:	f7fd fac1 	bl	3814 <__wrap__free_r>
    6292:	2300      	movs	r3, #0
    6294:	6363      	str	r3, [r4, #52]	; 0x34
    6296:	2300      	movs	r3, #0
    6298:	61a3      	str	r3, [r4, #24]
    629a:	6063      	str	r3, [r4, #4]
    629c:	89a3      	ldrh	r3, [r4, #12]
    629e:	061b      	lsls	r3, r3, #24
    62a0:	d503      	bpl.n	62aa <setvbuf+0x6e>
    62a2:	6921      	ldr	r1, [r4, #16]
    62a4:	0030      	movs	r0, r6
    62a6:	f7fd fab5 	bl	3814 <__wrap__free_r>
    62aa:	89a3      	ldrh	r3, [r4, #12]
    62ac:	4a36      	ldr	r2, [pc, #216]	; (6388 <setvbuf+0x14c>)
    62ae:	4013      	ands	r3, r2
    62b0:	81a3      	strh	r3, [r4, #12]
    62b2:	9b00      	ldr	r3, [sp, #0]
    62b4:	2b02      	cmp	r3, #2
    62b6:	d05a      	beq.n	636e <setvbuf+0x132>
    62b8:	ab03      	add	r3, sp, #12
    62ba:	aa02      	add	r2, sp, #8
    62bc:	0021      	movs	r1, r4
    62be:	0030      	movs	r0, r6
    62c0:	f7ff f8d8 	bl	5474 <__swhatbuf_r>
    62c4:	89a3      	ldrh	r3, [r4, #12]
    62c6:	4318      	orrs	r0, r3
    62c8:	81a0      	strh	r0, [r4, #12]
    62ca:	2d00      	cmp	r5, #0
    62cc:	d124      	bne.n	6318 <setvbuf+0xdc>
    62ce:	9d02      	ldr	r5, [sp, #8]
    62d0:	0028      	movs	r0, r5
    62d2:	f7ff f93b 	bl	554c <malloc>
    62d6:	9501      	str	r5, [sp, #4]
    62d8:	1e07      	subs	r7, r0, #0
    62da:	d142      	bne.n	6362 <setvbuf+0x126>
    62dc:	9b02      	ldr	r3, [sp, #8]
    62de:	9301      	str	r3, [sp, #4]
    62e0:	42ab      	cmp	r3, r5
    62e2:	d139      	bne.n	6358 <setvbuf+0x11c>
    62e4:	2001      	movs	r0, #1
    62e6:	4240      	negs	r0, r0
    62e8:	2302      	movs	r3, #2
    62ea:	89a2      	ldrh	r2, [r4, #12]
    62ec:	4313      	orrs	r3, r2
    62ee:	81a3      	strh	r3, [r4, #12]
    62f0:	2300      	movs	r3, #0
    62f2:	60a3      	str	r3, [r4, #8]
    62f4:	0023      	movs	r3, r4
    62f6:	3347      	adds	r3, #71	; 0x47
    62f8:	6023      	str	r3, [r4, #0]
    62fa:	6123      	str	r3, [r4, #16]
    62fc:	2301      	movs	r3, #1
    62fe:	6163      	str	r3, [r4, #20]
    6300:	b005      	add	sp, #20
    6302:	bdf0      	pop	{r4, r5, r6, r7, pc}
    6304:	4b21      	ldr	r3, [pc, #132]	; (638c <setvbuf+0x150>)
    6306:	429c      	cmp	r4, r3
    6308:	d101      	bne.n	630e <setvbuf+0xd2>
    630a:	68b4      	ldr	r4, [r6, #8]
    630c:	e7aa      	b.n	6264 <setvbuf+0x28>
    630e:	4b20      	ldr	r3, [pc, #128]	; (6390 <setvbuf+0x154>)
    6310:	429c      	cmp	r4, r3
    6312:	d1a7      	bne.n	6264 <setvbuf+0x28>
    6314:	68f4      	ldr	r4, [r6, #12]
    6316:	e7a5      	b.n	6264 <setvbuf+0x28>
    6318:	2f00      	cmp	r7, #0
    631a:	d0d9      	beq.n	62d0 <setvbuf+0x94>
    631c:	69b3      	ldr	r3, [r6, #24]
    631e:	2b00      	cmp	r3, #0
    6320:	d102      	bne.n	6328 <setvbuf+0xec>
    6322:	0030      	movs	r0, r6
    6324:	f7fe feec 	bl	5100 <__sinit>
    6328:	9b00      	ldr	r3, [sp, #0]
    632a:	2b01      	cmp	r3, #1
    632c:	d103      	bne.n	6336 <setvbuf+0xfa>
    632e:	89a3      	ldrh	r3, [r4, #12]
    6330:	9a00      	ldr	r2, [sp, #0]
    6332:	431a      	orrs	r2, r3
    6334:	81a2      	strh	r2, [r4, #12]
    6336:	2008      	movs	r0, #8
    6338:	89a3      	ldrh	r3, [r4, #12]
    633a:	6027      	str	r7, [r4, #0]
    633c:	6127      	str	r7, [r4, #16]
    633e:	6165      	str	r5, [r4, #20]
    6340:	4018      	ands	r0, r3
    6342:	d018      	beq.n	6376 <setvbuf+0x13a>
    6344:	2001      	movs	r0, #1
    6346:	4018      	ands	r0, r3
    6348:	2300      	movs	r3, #0
    634a:	4298      	cmp	r0, r3
    634c:	d011      	beq.n	6372 <setvbuf+0x136>
    634e:	426d      	negs	r5, r5
    6350:	60a3      	str	r3, [r4, #8]
    6352:	61a5      	str	r5, [r4, #24]
    6354:	0018      	movs	r0, r3
    6356:	e7d3      	b.n	6300 <setvbuf+0xc4>
    6358:	9801      	ldr	r0, [sp, #4]
    635a:	f7ff f8f7 	bl	554c <malloc>
    635e:	1e07      	subs	r7, r0, #0
    6360:	d0c0      	beq.n	62e4 <setvbuf+0xa8>
    6362:	2380      	movs	r3, #128	; 0x80
    6364:	89a2      	ldrh	r2, [r4, #12]
    6366:	9d01      	ldr	r5, [sp, #4]
    6368:	4313      	orrs	r3, r2
    636a:	81a3      	strh	r3, [r4, #12]
    636c:	e7d6      	b.n	631c <setvbuf+0xe0>
    636e:	2000      	movs	r0, #0
    6370:	e7ba      	b.n	62e8 <setvbuf+0xac>
    6372:	60a5      	str	r5, [r4, #8]
    6374:	e7c4      	b.n	6300 <setvbuf+0xc4>
    6376:	60a0      	str	r0, [r4, #8]
    6378:	e7c2      	b.n	6300 <setvbuf+0xc4>
    637a:	2001      	movs	r0, #1
    637c:	4240      	negs	r0, r0
    637e:	e7bf      	b.n	6300 <setvbuf+0xc4>
    6380:	1ffff0e8 	.word	0x1ffff0e8
    6384:	000078e0 	.word	0x000078e0
    6388:	fffff35c 	.word	0xfffff35c
    638c:	00007900 	.word	0x00007900
    6390:	000078c0 	.word	0x000078c0

00006394 <siprintf>:
    6394:	b40e      	push	{r1, r2, r3}
    6396:	b510      	push	{r4, lr}
    6398:	b09d      	sub	sp, #116	; 0x74
    639a:	a902      	add	r1, sp, #8
    639c:	9002      	str	r0, [sp, #8]
    639e:	6108      	str	r0, [r1, #16]
    63a0:	480b      	ldr	r0, [pc, #44]	; (63d0 <siprintf+0x3c>)
    63a2:	2482      	movs	r4, #130	; 0x82
    63a4:	6088      	str	r0, [r1, #8]
    63a6:	6148      	str	r0, [r1, #20]
    63a8:	2001      	movs	r0, #1
    63aa:	4240      	negs	r0, r0
    63ac:	ab1f      	add	r3, sp, #124	; 0x7c
    63ae:	81c8      	strh	r0, [r1, #14]
    63b0:	4808      	ldr	r0, [pc, #32]	; (63d4 <siprintf+0x40>)
    63b2:	cb04      	ldmia	r3!, {r2}
    63b4:	00a4      	lsls	r4, r4, #2
    63b6:	6800      	ldr	r0, [r0, #0]
    63b8:	9301      	str	r3, [sp, #4]
    63ba:	818c      	strh	r4, [r1, #12]
    63bc:	f000 fc02 	bl	6bc4 <_svfiprintf_r>
    63c0:	2300      	movs	r3, #0
    63c2:	9a02      	ldr	r2, [sp, #8]
    63c4:	7013      	strb	r3, [r2, #0]
    63c6:	b01d      	add	sp, #116	; 0x74
    63c8:	bc10      	pop	{r4}
    63ca:	bc08      	pop	{r3}
    63cc:	b003      	add	sp, #12
    63ce:	4718      	bx	r3
    63d0:	7fffffff 	.word	0x7fffffff
    63d4:	1ffff0e8 	.word	0x1ffff0e8

000063d8 <siscanf>:
    63d8:	b40e      	push	{r1, r2, r3}
    63da:	2381      	movs	r3, #129	; 0x81
    63dc:	b570      	push	{r4, r5, r6, lr}
    63de:	b09d      	sub	sp, #116	; 0x74
    63e0:	ac02      	add	r4, sp, #8
    63e2:	ad21      	add	r5, sp, #132	; 0x84
    63e4:	009b      	lsls	r3, r3, #2
    63e6:	cd40      	ldmia	r5!, {r6}
    63e8:	81a3      	strh	r3, [r4, #12]
    63ea:	9002      	str	r0, [sp, #8]
    63ec:	9006      	str	r0, [sp, #24]
    63ee:	f000 f873 	bl	64d8 <strlen>
    63f2:	4b0b      	ldr	r3, [pc, #44]	; (6420 <siscanf+0x48>)
    63f4:	6060      	str	r0, [r4, #4]
    63f6:	6263      	str	r3, [r4, #36]	; 0x24
    63f8:	2300      	movs	r3, #0
    63fa:	6160      	str	r0, [r4, #20]
    63fc:	4809      	ldr	r0, [pc, #36]	; (6424 <siscanf+0x4c>)
    63fe:	6363      	str	r3, [r4, #52]	; 0x34
    6400:	64a3      	str	r3, [r4, #72]	; 0x48
    6402:	3b01      	subs	r3, #1
    6404:	81e3      	strh	r3, [r4, #14]
    6406:	0032      	movs	r2, r6
    6408:	002b      	movs	r3, r5
    640a:	0021      	movs	r1, r4
    640c:	6800      	ldr	r0, [r0, #0]
    640e:	9501      	str	r5, [sp, #4]
    6410:	f000 fd38 	bl	6e84 <__ssvfiscanf_r>
    6414:	b01d      	add	sp, #116	; 0x74
    6416:	bc70      	pop	{r4, r5, r6}
    6418:	bc08      	pop	{r3}
    641a:	b003      	add	sp, #12
    641c:	4718      	bx	r3
    641e:	46c0      	nop			; (mov r8, r8)
    6420:	00006451 	.word	0x00006451
    6424:	1ffff0e8 	.word	0x1ffff0e8

00006428 <__sread>:
    6428:	b570      	push	{r4, r5, r6, lr}
    642a:	000c      	movs	r4, r1
    642c:	250e      	movs	r5, #14
    642e:	5f49      	ldrsh	r1, [r1, r5]
    6430:	f000 feae 	bl	7190 <_read_r>
    6434:	2800      	cmp	r0, #0
    6436:	db03      	blt.n	6440 <__sread+0x18>
    6438:	6d63      	ldr	r3, [r4, #84]	; 0x54
    643a:	181b      	adds	r3, r3, r0
    643c:	6563      	str	r3, [r4, #84]	; 0x54
    643e:	bd70      	pop	{r4, r5, r6, pc}
    6440:	89a3      	ldrh	r3, [r4, #12]
    6442:	4a02      	ldr	r2, [pc, #8]	; (644c <__sread+0x24>)
    6444:	4013      	ands	r3, r2
    6446:	81a3      	strh	r3, [r4, #12]
    6448:	e7f9      	b.n	643e <__sread+0x16>
    644a:	46c0      	nop			; (mov r8, r8)
    644c:	ffffefff 	.word	0xffffefff

00006450 <__seofread>:
    6450:	2000      	movs	r0, #0
    6452:	4770      	bx	lr

00006454 <__swrite>:
    6454:	b5f8      	push	{r3, r4, r5, r6, r7, lr}
    6456:	001f      	movs	r7, r3
    6458:	898b      	ldrh	r3, [r1, #12]
    645a:	0005      	movs	r5, r0
    645c:	000c      	movs	r4, r1
    645e:	0016      	movs	r6, r2
    6460:	05db      	lsls	r3, r3, #23
    6462:	d505      	bpl.n	6470 <__swrite+0x1c>
    6464:	230e      	movs	r3, #14
    6466:	5ec9      	ldrsh	r1, [r1, r3]
    6468:	2200      	movs	r2, #0
    646a:	2302      	movs	r3, #2
    646c:	f000 fb1a 	bl	6aa4 <_lseek_r>
    6470:	89a3      	ldrh	r3, [r4, #12]
    6472:	4a05      	ldr	r2, [pc, #20]	; (6488 <__swrite+0x34>)
    6474:	0028      	movs	r0, r5
    6476:	4013      	ands	r3, r2
    6478:	81a3      	strh	r3, [r4, #12]
    647a:	0032      	movs	r2, r6
    647c:	230e      	movs	r3, #14
    647e:	5ee1      	ldrsh	r1, [r4, r3]
    6480:	003b      	movs	r3, r7
    6482:	f000 fa03 	bl	688c <_write_r>
    6486:	bdf8      	pop	{r3, r4, r5, r6, r7, pc}
    6488:	ffffefff 	.word	0xffffefff

0000648c <__sseek>:
    648c:	b570      	push	{r4, r5, r6, lr}
    648e:	000c      	movs	r4, r1
    6490:	250e      	movs	r5, #14
    6492:	5f49      	ldrsh	r1, [r1, r5]
    6494:	f000 fb06 	bl	6aa4 <_lseek_r>
    6498:	89a3      	ldrh	r3, [r4, #12]
    649a:	1c42      	adds	r2, r0, #1
    649c:	d103      	bne.n	64a6 <__sseek+0x1a>
    649e:	4a05      	ldr	r2, [pc, #20]	; (64b4 <__sseek+0x28>)
    64a0:	4013      	ands	r3, r2
    64a2:	81a3      	strh	r3, [r4, #12]
    64a4:	bd70      	pop	{r4, r5, r6, pc}
    64a6:	2280      	movs	r2, #128	; 0x80
    64a8:	0152      	lsls	r2, r2, #5
    64aa:	4313      	orrs	r3, r2
    64ac:	81a3      	strh	r3, [r4, #12]
    64ae:	6560      	str	r0, [r4, #84]	; 0x54
    64b0:	e7f8      	b.n	64a4 <__sseek+0x18>
    64b2:	46c0      	nop			; (mov r8, r8)
    64b4:	ffffefff 	.word	0xffffefff

000064b8 <__sclose>:
    64b8:	b510      	push	{r4, lr}
    64ba:	230e      	movs	r3, #14
    64bc:	5ec9      	ldrsh	r1, [r1, r3]
    64be:	f000 fa6f 	bl	69a0 <_close_r>
    64c2:	bd10      	pop	{r4, pc}

000064c4 <strcmp>:
    64c4:	7802      	ldrb	r2, [r0, #0]
    64c6:	780b      	ldrb	r3, [r1, #0]
    64c8:	2a00      	cmp	r2, #0
    64ca:	d003      	beq.n	64d4 <strcmp+0x10>
    64cc:	3001      	adds	r0, #1
    64ce:	3101      	adds	r1, #1
    64d0:	429a      	cmp	r2, r3
    64d2:	d0f7      	beq.n	64c4 <strcmp>
    64d4:	1ad0      	subs	r0, r2, r3
    64d6:	4770      	bx	lr

000064d8 <strlen>:
    64d8:	2300      	movs	r3, #0
    64da:	5cc2      	ldrb	r2, [r0, r3]
    64dc:	3301      	adds	r3, #1
    64de:	2a00      	cmp	r2, #0
    64e0:	d1fb      	bne.n	64da <strlen+0x2>
    64e2:	1e58      	subs	r0, r3, #1
    64e4:	4770      	bx	lr

000064e6 <strncmp>:
    64e6:	2300      	movs	r3, #0
    64e8:	b530      	push	{r4, r5, lr}
    64ea:	429a      	cmp	r2, r3
    64ec:	d00a      	beq.n	6504 <strncmp+0x1e>
    64ee:	3a01      	subs	r2, #1
    64f0:	5cc4      	ldrb	r4, [r0, r3]
    64f2:	5ccd      	ldrb	r5, [r1, r3]
    64f4:	42ac      	cmp	r4, r5
    64f6:	d104      	bne.n	6502 <strncmp+0x1c>
    64f8:	429a      	cmp	r2, r3
    64fa:	d002      	beq.n	6502 <strncmp+0x1c>
    64fc:	3301      	adds	r3, #1
    64fe:	2c00      	cmp	r4, #0
    6500:	d1f6      	bne.n	64f0 <strncmp+0xa>
    6502:	1b63      	subs	r3, r4, r5
    6504:	0018      	movs	r0, r3
    6506:	bd30      	pop	{r4, r5, pc}

00006508 <_strtol_l.isra.0>:
    6508:	b5f0      	push	{r4, r5, r6, r7, lr}
    650a:	001f      	movs	r7, r3
    650c:	000e      	movs	r6, r1
    650e:	b087      	sub	sp, #28
    6510:	9005      	str	r0, [sp, #20]
    6512:	9103      	str	r1, [sp, #12]
    6514:	9202      	str	r2, [sp, #8]
    6516:	980c      	ldr	r0, [sp, #48]	; 0x30
    6518:	7834      	ldrb	r4, [r6, #0]
    651a:	f000 fab1 	bl	6a80 <__locale_ctype_ptr_l>
    651e:	2208      	movs	r2, #8
    6520:	1900      	adds	r0, r0, r4
    6522:	7843      	ldrb	r3, [r0, #1]
    6524:	1c75      	adds	r5, r6, #1
    6526:	4013      	ands	r3, r2
    6528:	d10c      	bne.n	6544 <_strtol_l.isra.0+0x3c>
    652a:	2c2d      	cmp	r4, #45	; 0x2d
    652c:	d10c      	bne.n	6548 <_strtol_l.isra.0+0x40>
    652e:	3301      	adds	r3, #1
    6530:	782c      	ldrb	r4, [r5, #0]
    6532:	9301      	str	r3, [sp, #4]
    6534:	1cb5      	adds	r5, r6, #2
    6536:	2f00      	cmp	r7, #0
    6538:	d00c      	beq.n	6554 <_strtol_l.isra.0+0x4c>
    653a:	2f10      	cmp	r7, #16
    653c:	d114      	bne.n	6568 <_strtol_l.isra.0+0x60>
    653e:	2c30      	cmp	r4, #48	; 0x30
    6540:	d00a      	beq.n	6558 <_strtol_l.isra.0+0x50>
    6542:	e011      	b.n	6568 <_strtol_l.isra.0+0x60>
    6544:	002e      	movs	r6, r5
    6546:	e7e6      	b.n	6516 <_strtol_l.isra.0+0xe>
    6548:	9301      	str	r3, [sp, #4]
    654a:	2c2b      	cmp	r4, #43	; 0x2b
    654c:	d1f3      	bne.n	6536 <_strtol_l.isra.0+0x2e>
    654e:	782c      	ldrb	r4, [r5, #0]
    6550:	1cb5      	adds	r5, r6, #2
    6552:	e7f0      	b.n	6536 <_strtol_l.isra.0+0x2e>
    6554:	2c30      	cmp	r4, #48	; 0x30
    6556:	d12f      	bne.n	65b8 <_strtol_l.isra.0+0xb0>
    6558:	2220      	movs	r2, #32
    655a:	782b      	ldrb	r3, [r5, #0]
    655c:	4393      	bics	r3, r2
    655e:	2b58      	cmp	r3, #88	; 0x58
    6560:	d151      	bne.n	6606 <_strtol_l.isra.0+0xfe>
    6562:	2710      	movs	r7, #16
    6564:	786c      	ldrb	r4, [r5, #1]
    6566:	3502      	adds	r5, #2
    6568:	9b01      	ldr	r3, [sp, #4]
    656a:	4a29      	ldr	r2, [pc, #164]	; (6610 <_strtol_l.isra.0+0x108>)
    656c:	0039      	movs	r1, r7
    656e:	189e      	adds	r6, r3, r2
    6570:	0030      	movs	r0, r6
    6572:	f7fd fd57 	bl	4024 <__aeabi_uidivmod>
    6576:	0030      	movs	r0, r6
    6578:	9104      	str	r1, [sp, #16]
    657a:	0039      	movs	r1, r7
    657c:	f7fd fccc 	bl	3f18 <__udivsi3>
    6580:	2101      	movs	r1, #1
    6582:	2300      	movs	r3, #0
    6584:	4249      	negs	r1, r1
    6586:	0002      	movs	r2, r0
    6588:	468c      	mov	r12, r1
    658a:	0018      	movs	r0, r3
    658c:	0021      	movs	r1, r4
    658e:	3930      	subs	r1, #48	; 0x30
    6590:	2909      	cmp	r1, #9
    6592:	d813      	bhi.n	65bc <_strtol_l.isra.0+0xb4>
    6594:	000c      	movs	r4, r1
    6596:	42a7      	cmp	r7, r4
    6598:	dd1c      	ble.n	65d4 <_strtol_l.isra.0+0xcc>
    659a:	1c59      	adds	r1, r3, #1
    659c:	d009      	beq.n	65b2 <_strtol_l.isra.0+0xaa>
    659e:	4663      	mov	r3, r12
    65a0:	4282      	cmp	r2, r0
    65a2:	d306      	bcc.n	65b2 <_strtol_l.isra.0+0xaa>
    65a4:	d102      	bne.n	65ac <_strtol_l.isra.0+0xa4>
    65a6:	9904      	ldr	r1, [sp, #16]
    65a8:	42a1      	cmp	r1, r4
    65aa:	db02      	blt.n	65b2 <_strtol_l.isra.0+0xaa>
    65ac:	2301      	movs	r3, #1
    65ae:	4378      	muls	r0, r7
    65b0:	1820      	adds	r0, r4, r0
    65b2:	782c      	ldrb	r4, [r5, #0]
    65b4:	3501      	adds	r5, #1
    65b6:	e7e9      	b.n	658c <_strtol_l.isra.0+0x84>
    65b8:	270a      	movs	r7, #10
    65ba:	e7d5      	b.n	6568 <_strtol_l.isra.0+0x60>
    65bc:	0021      	movs	r1, r4
    65be:	3941      	subs	r1, #65	; 0x41
    65c0:	2919      	cmp	r1, #25
    65c2:	d801      	bhi.n	65c8 <_strtol_l.isra.0+0xc0>
    65c4:	3c37      	subs	r4, #55	; 0x37
    65c6:	e7e6      	b.n	6596 <_strtol_l.isra.0+0x8e>
    65c8:	0021      	movs	r1, r4
    65ca:	3961      	subs	r1, #97	; 0x61
    65cc:	2919      	cmp	r1, #25
    65ce:	d801      	bhi.n	65d4 <_strtol_l.isra.0+0xcc>
    65d0:	3c57      	subs	r4, #87	; 0x57
    65d2:	e7e0      	b.n	6596 <_strtol_l.isra.0+0x8e>
    65d4:	1c5a      	adds	r2, r3, #1
    65d6:	d108      	bne.n	65ea <_strtol_l.isra.0+0xe2>
    65d8:	9a05      	ldr	r2, [sp, #20]
    65da:	3323      	adds	r3, #35	; 0x23
    65dc:	6013      	str	r3, [r2, #0]
    65de:	9b02      	ldr	r3, [sp, #8]
    65e0:	0030      	movs	r0, r6
    65e2:	2b00      	cmp	r3, #0
    65e4:	d10b      	bne.n	65fe <_strtol_l.isra.0+0xf6>
    65e6:	b007      	add	sp, #28
    65e8:	bdf0      	pop	{r4, r5, r6, r7, pc}
    65ea:	9a01      	ldr	r2, [sp, #4]
    65ec:	2a00      	cmp	r2, #0
    65ee:	d000      	beq.n	65f2 <_strtol_l.isra.0+0xea>
    65f0:	4240      	negs	r0, r0
    65f2:	9a02      	ldr	r2, [sp, #8]
    65f4:	2a00      	cmp	r2, #0
    65f6:	d0f6      	beq.n	65e6 <_strtol_l.isra.0+0xde>
    65f8:	9a03      	ldr	r2, [sp, #12]
    65fa:	2b00      	cmp	r3, #0
    65fc:	d000      	beq.n	6600 <_strtol_l.isra.0+0xf8>
    65fe:	1e6a      	subs	r2, r5, #1
    6600:	9b02      	ldr	r3, [sp, #8]
    6602:	601a      	str	r2, [r3, #0]
    6604:	e7ef      	b.n	65e6 <_strtol_l.isra.0+0xde>
    6606:	2430      	movs	r4, #48	; 0x30
    6608:	2f00      	cmp	r7, #0
    660a:	d1ad      	bne.n	6568 <_strtol_l.isra.0+0x60>
    660c:	3708      	adds	r7, #8
    660e:	e7ab      	b.n	6568 <_strtol_l.isra.0+0x60>
    6610:	7fffffff 	.word	0x7fffffff

00006614 <_strtol_r>:
    6614:	b513      	push	{r0, r1, r4, lr}
    6616:	4c05      	ldr	r4, [pc, #20]	; (662c <_strtol_r+0x18>)
    6618:	6824      	ldr	r4, [r4, #0]
    661a:	6a24      	ldr	r4, [r4, #32]
    661c:	2c00      	cmp	r4, #0
    661e:	d100      	bne.n	6622 <_strtol_r+0xe>
    6620:	4c03      	ldr	r4, [pc, #12]	; (6630 <_strtol_r+0x1c>)
    6622:	9400      	str	r4, [sp, #0]
    6624:	f7ff ff70 	bl	6508 <_strtol_l.isra.0>
    6628:	bd16      	pop	{r1, r2, r4, pc}
    662a:	46c0      	nop			; (mov r8, r8)
    662c:	1ffff0e8 	.word	0x1ffff0e8
    6630:	1ffff14c 	.word	0x1ffff14c

00006634 <_strtoul_l.isra.0>:
    6634:	b5f0      	push	{r4, r5, r6, r7, lr}
    6636:	001f      	movs	r7, r3
    6638:	000e      	movs	r6, r1
    663a:	b087      	sub	sp, #28
    663c:	9005      	str	r0, [sp, #20]
    663e:	9103      	str	r1, [sp, #12]
    6640:	9201      	str	r2, [sp, #4]
    6642:	980c      	ldr	r0, [sp, #48]	; 0x30
    6644:	7834      	ldrb	r4, [r6, #0]
    6646:	f000 fa1b 	bl	6a80 <__locale_ctype_ptr_l>
    664a:	2208      	movs	r2, #8
    664c:	1900      	adds	r0, r0, r4
    664e:	7843      	ldrb	r3, [r0, #1]
    6650:	1c75      	adds	r5, r6, #1
    6652:	4013      	ands	r3, r2
    6654:	d10c      	bne.n	6670 <_strtoul_l.isra.0+0x3c>
    6656:	2c2d      	cmp	r4, #45	; 0x2d
    6658:	d10c      	bne.n	6674 <_strtoul_l.isra.0+0x40>
    665a:	3301      	adds	r3, #1
    665c:	782c      	ldrb	r4, [r5, #0]
    665e:	9302      	str	r3, [sp, #8]
    6660:	1cb5      	adds	r5, r6, #2
    6662:	2f00      	cmp	r7, #0
    6664:	d00c      	beq.n	6680 <_strtoul_l.isra.0+0x4c>
    6666:	2f10      	cmp	r7, #16
    6668:	d114      	bne.n	6694 <_strtoul_l.isra.0+0x60>
    666a:	2c30      	cmp	r4, #48	; 0x30
    666c:	d00a      	beq.n	6684 <_strtoul_l.isra.0+0x50>
    666e:	e011      	b.n	6694 <_strtoul_l.isra.0+0x60>
    6670:	002e      	movs	r6, r5
    6672:	e7e6      	b.n	6642 <_strtoul_l.isra.0+0xe>
    6674:	9302      	str	r3, [sp, #8]
    6676:	2c2b      	cmp	r4, #43	; 0x2b
    6678:	d1f3      	bne.n	6662 <_strtoul_l.isra.0+0x2e>
    667a:	782c      	ldrb	r4, [r5, #0]
    667c:	1cb5      	adds	r5, r6, #2
    667e:	e7f0      	b.n	6662 <_strtoul_l.isra.0+0x2e>
    6680:	2c30      	cmp	r4, #48	; 0x30
    6682:	d12f      	bne.n	66e4 <_strtoul_l.isra.0+0xb0>
    6684:	2220      	movs	r2, #32
    6686:	782b      	ldrb	r3, [r5, #0]
    6688:	4393      	bics	r3, r2
    668a:	2b58      	cmp	r3, #88	; 0x58
    668c:	d154      	bne.n	6738 <_strtoul_l.isra.0+0x104>
    668e:	2710      	movs	r7, #16
    6690:	786c      	ldrb	r4, [r5, #1]
    6692:	3502      	adds	r5, #2
    6694:	2001      	movs	r0, #1
    6696:	0039      	movs	r1, r7
    6698:	4240      	negs	r0, r0
    669a:	f7fd fc3d 	bl	3f18 <__udivsi3>
    669e:	0006      	movs	r6, r0
    66a0:	2001      	movs	r0, #1
    66a2:	0039      	movs	r1, r7
    66a4:	4240      	negs	r0, r0
    66a6:	f7fd fcbd 	bl	4024 <__aeabi_uidivmod>
    66aa:	2300      	movs	r3, #0
    66ac:	9104      	str	r1, [sp, #16]
    66ae:	2101      	movs	r1, #1
    66b0:	2201      	movs	r2, #1
    66b2:	0018      	movs	r0, r3
    66b4:	468c      	mov	r12, r1
    66b6:	4252      	negs	r2, r2
    66b8:	0021      	movs	r1, r4
    66ba:	3930      	subs	r1, #48	; 0x30
    66bc:	2909      	cmp	r1, #9
    66be:	d813      	bhi.n	66e8 <_strtoul_l.isra.0+0xb4>
    66c0:	000c      	movs	r4, r1
    66c2:	42a7      	cmp	r7, r4
    66c4:	dd1e      	ble.n	6704 <_strtoul_l.isra.0+0xd0>
    66c6:	2b00      	cmp	r3, #0
    66c8:	db1a      	blt.n	6700 <_strtoul_l.isra.0+0xcc>
    66ca:	0013      	movs	r3, r2
    66cc:	4286      	cmp	r6, r0
    66ce:	d306      	bcc.n	66de <_strtoul_l.isra.0+0xaa>
    66d0:	d102      	bne.n	66d8 <_strtoul_l.isra.0+0xa4>
    66d2:	9904      	ldr	r1, [sp, #16]
    66d4:	42a1      	cmp	r1, r4
    66d6:	db02      	blt.n	66de <_strtoul_l.isra.0+0xaa>
    66d8:	4663      	mov	r3, r12
    66da:	4378      	muls	r0, r7
    66dc:	1820      	adds	r0, r4, r0
    66de:	782c      	ldrb	r4, [r5, #0]
    66e0:	3501      	adds	r5, #1
    66e2:	e7e9      	b.n	66b8 <_strtoul_l.isra.0+0x84>
    66e4:	270a      	movs	r7, #10
    66e6:	e7d5      	b.n	6694 <_strtoul_l.isra.0+0x60>
    66e8:	0021      	movs	r1, r4
    66ea:	3941      	subs	r1, #65	; 0x41
    66ec:	2919      	cmp	r1, #25
    66ee:	d801      	bhi.n	66f4 <_strtoul_l.isra.0+0xc0>
    66f0:	3c37      	subs	r4, #55	; 0x37
    66f2:	e7e6      	b.n	66c2 <_strtoul_l.isra.0+0x8e>
    66f4:	0021      	movs	r1, r4
    66f6:	3961      	subs	r1, #97	; 0x61
    66f8:	2919      	cmp	r1, #25
    66fa:	d803      	bhi.n	6704 <_strtoul_l.isra.0+0xd0>
    66fc:	3c57      	subs	r4, #87	; 0x57
    66fe:	e7e0      	b.n	66c2 <_strtoul_l.isra.0+0x8e>
    6700:	0013      	movs	r3, r2
    6702:	e7ec      	b.n	66de <_strtoul_l.isra.0+0xaa>
    6704:	2b00      	cmp	r3, #0
    6706:	da09      	bge.n	671c <_strtoul_l.isra.0+0xe8>
    6708:	2322      	movs	r3, #34	; 0x22
    670a:	2001      	movs	r0, #1
    670c:	9a05      	ldr	r2, [sp, #20]
    670e:	4240      	negs	r0, r0
    6710:	6013      	str	r3, [r2, #0]
    6712:	9b01      	ldr	r3, [sp, #4]
    6714:	2b00      	cmp	r3, #0
    6716:	d10b      	bne.n	6730 <_strtoul_l.isra.0+0xfc>
    6718:	b007      	add	sp, #28
    671a:	bdf0      	pop	{r4, r5, r6, r7, pc}
    671c:	9a02      	ldr	r2, [sp, #8]
    671e:	2a00      	cmp	r2, #0
    6720:	d000      	beq.n	6724 <_strtoul_l.isra.0+0xf0>
    6722:	4240      	negs	r0, r0
    6724:	9a01      	ldr	r2, [sp, #4]
    6726:	2a00      	cmp	r2, #0
    6728:	d0f6      	beq.n	6718 <_strtoul_l.isra.0+0xe4>
    672a:	9a03      	ldr	r2, [sp, #12]
    672c:	2b00      	cmp	r3, #0
    672e:	d000      	beq.n	6732 <_strtoul_l.isra.0+0xfe>
    6730:	1e6a      	subs	r2, r5, #1
    6732:	9b01      	ldr	r3, [sp, #4]
    6734:	601a      	str	r2, [r3, #0]
    6736:	e7ef      	b.n	6718 <_strtoul_l.isra.0+0xe4>
    6738:	2430      	movs	r4, #48	; 0x30
    673a:	2f00      	cmp	r7, #0
    673c:	d1aa      	bne.n	6694 <_strtoul_l.isra.0+0x60>
    673e:	3708      	adds	r7, #8
    6740:	e7a8      	b.n	6694 <_strtoul_l.isra.0+0x60>
	...

00006744 <_strtoul_r>:
    6744:	b513      	push	{r0, r1, r4, lr}
    6746:	4c05      	ldr	r4, [pc, #20]	; (675c <_strtoul_r+0x18>)
    6748:	6824      	ldr	r4, [r4, #0]
    674a:	6a24      	ldr	r4, [r4, #32]
    674c:	2c00      	cmp	r4, #0
    674e:	d100      	bne.n	6752 <_strtoul_r+0xe>
    6750:	4c03      	ldr	r4, [pc, #12]	; (6760 <_strtoul_r+0x1c>)
    6752:	9400      	str	r4, [sp, #0]
    6754:	f7ff ff6e 	bl	6634 <_strtoul_l.isra.0>
    6758:	bd16      	pop	{r1, r2, r4, pc}
    675a:	46c0      	nop			; (mov r8, r8)
    675c:	1ffff0e8 	.word	0x1ffff0e8
    6760:	1ffff14c 	.word	0x1ffff14c

00006764 <__submore>:
    6764:	000b      	movs	r3, r1
    6766:	b5f7      	push	{r0, r1, r2, r4, r5, r6, r7, lr}
    6768:	6b4d      	ldr	r5, [r1, #52]	; 0x34
    676a:	3344      	adds	r3, #68	; 0x44
    676c:	000c      	movs	r4, r1
    676e:	429d      	cmp	r5, r3
    6770:	d11c      	bne.n	67ac <__submore+0x48>
    6772:	2680      	movs	r6, #128	; 0x80
    6774:	00f6      	lsls	r6, r6, #3
    6776:	0031      	movs	r1, r6
    6778:	f7fd f844 	bl	3804 <__wrap__malloc_r>
    677c:	2800      	cmp	r0, #0
    677e:	d102      	bne.n	6786 <__submore+0x22>
    6780:	2001      	movs	r0, #1
    6782:	4240      	negs	r0, r0
    6784:	bdfe      	pop	{r1, r2, r3, r4, r5, r6, r7, pc}
    6786:	0023      	movs	r3, r4
    6788:	6360      	str	r0, [r4, #52]	; 0x34
    678a:	63a6      	str	r6, [r4, #56]	; 0x38
    678c:	3346      	adds	r3, #70	; 0x46
    678e:	781a      	ldrb	r2, [r3, #0]
    6790:	4b10      	ldr	r3, [pc, #64]	; (67d4 <__submore+0x70>)
    6792:	54c2      	strb	r2, [r0, r3]
    6794:	0023      	movs	r3, r4
    6796:	3345      	adds	r3, #69	; 0x45
    6798:	781a      	ldrb	r2, [r3, #0]
    679a:	4b0f      	ldr	r3, [pc, #60]	; (67d8 <__submore+0x74>)
    679c:	54c2      	strb	r2, [r0, r3]
    679e:	782a      	ldrb	r2, [r5, #0]
    67a0:	4b0e      	ldr	r3, [pc, #56]	; (67dc <__submore+0x78>)
    67a2:	54c2      	strb	r2, [r0, r3]
    67a4:	18c0      	adds	r0, r0, r3
    67a6:	6020      	str	r0, [r4, #0]
    67a8:	2000      	movs	r0, #0
    67aa:	e7eb      	b.n	6784 <__submore+0x20>
    67ac:	6b8e      	ldr	r6, [r1, #56]	; 0x38
    67ae:	0029      	movs	r1, r5
    67b0:	0073      	lsls	r3, r6, #1
    67b2:	001a      	movs	r2, r3
    67b4:	9301      	str	r3, [sp, #4]
    67b6:	f7fd f829 	bl	380c <__wrap__realloc_r>
    67ba:	1e05      	subs	r5, r0, #0
    67bc:	d0e0      	beq.n	6780 <__submore+0x1c>
    67be:	1987      	adds	r7, r0, r6
    67c0:	0001      	movs	r1, r0
    67c2:	0032      	movs	r2, r6
    67c4:	0038      	movs	r0, r7
    67c6:	f7fe fee0 	bl	558a <memcpy>
    67ca:	9b01      	ldr	r3, [sp, #4]
    67cc:	6027      	str	r7, [r4, #0]
    67ce:	6365      	str	r5, [r4, #52]	; 0x34
    67d0:	63a3      	str	r3, [r4, #56]	; 0x38
    67d2:	e7e9      	b.n	67a8 <__submore+0x44>
    67d4:	000003ff 	.word	0x000003ff
    67d8:	000003fe 	.word	0x000003fe
    67dc:	000003fd 	.word	0x000003fd

000067e0 <__swbuf_r>:
    67e0:	b5f8      	push	{r3, r4, r5, r6, r7, lr}
    67e2:	0005      	movs	r5, r0
    67e4:	000e      	movs	r6, r1
    67e6:	0014      	movs	r4, r2
    67e8:	2800      	cmp	r0, #0
    67ea:	d004      	beq.n	67f6 <__swbuf_r+0x16>
    67ec:	6983      	ldr	r3, [r0, #24]
    67ee:	2b00      	cmp	r3, #0
    67f0:	d101      	bne.n	67f6 <__swbuf_r+0x16>
    67f2:	f7fe fc85 	bl	5100 <__sinit>
    67f6:	4b22      	ldr	r3, [pc, #136]	; (6880 <__swbuf_r+0xa0>)
    67f8:	429c      	cmp	r4, r3
    67fa:	d12d      	bne.n	6858 <__swbuf_r+0x78>
    67fc:	686c      	ldr	r4, [r5, #4]
    67fe:	69a3      	ldr	r3, [r4, #24]
    6800:	60a3      	str	r3, [r4, #8]
    6802:	89a3      	ldrh	r3, [r4, #12]
    6804:	071b      	lsls	r3, r3, #28
    6806:	d531      	bpl.n	686c <__swbuf_r+0x8c>
    6808:	6923      	ldr	r3, [r4, #16]
    680a:	2b00      	cmp	r3, #0
    680c:	d02e      	beq.n	686c <__swbuf_r+0x8c>
    680e:	6823      	ldr	r3, [r4, #0]
    6810:	6922      	ldr	r2, [r4, #16]
    6812:	b2f7      	uxtb	r7, r6
    6814:	1a98      	subs	r0, r3, r2
    6816:	6963      	ldr	r3, [r4, #20]
    6818:	b2f6      	uxtb	r6, r6
    681a:	4298      	cmp	r0, r3
    681c:	db05      	blt.n	682a <__swbuf_r+0x4a>
    681e:	0021      	movs	r1, r4
    6820:	0028      	movs	r0, r5
    6822:	f7fe fbb3 	bl	4f8c <_fflush_r>
    6826:	2800      	cmp	r0, #0
    6828:	d126      	bne.n	6878 <__swbuf_r+0x98>
    682a:	68a3      	ldr	r3, [r4, #8]
    682c:	3001      	adds	r0, #1
    682e:	3b01      	subs	r3, #1
    6830:	60a3      	str	r3, [r4, #8]
    6832:	6823      	ldr	r3, [r4, #0]
    6834:	1c5a      	adds	r2, r3, #1
    6836:	6022      	str	r2, [r4, #0]
    6838:	701f      	strb	r7, [r3, #0]
    683a:	6963      	ldr	r3, [r4, #20]
    683c:	4298      	cmp	r0, r3
    683e:	d004      	beq.n	684a <__swbuf_r+0x6a>
    6840:	89a3      	ldrh	r3, [r4, #12]
    6842:	07db      	lsls	r3, r3, #31
    6844:	d51a      	bpl.n	687c <__swbuf_r+0x9c>
    6846:	2e0a      	cmp	r6, #10
    6848:	d118      	bne.n	687c <__swbuf_r+0x9c>
    684a:	0021      	movs	r1, r4
    684c:	0028      	movs	r0, r5
    684e:	f7fe fb9d 	bl	4f8c <_fflush_r>
    6852:	2800      	cmp	r0, #0
    6854:	d012      	beq.n	687c <__swbuf_r+0x9c>
    6856:	e00f      	b.n	6878 <__swbuf_r+0x98>
    6858:	4b0a      	ldr	r3, [pc, #40]	; (6884 <__swbuf_r+0xa4>)
    685a:	429c      	cmp	r4, r3
    685c:	d101      	bne.n	6862 <__swbuf_r+0x82>
    685e:	68ac      	ldr	r4, [r5, #8]
    6860:	e7cd      	b.n	67fe <__swbuf_r+0x1e>
    6862:	4b09      	ldr	r3, [pc, #36]	; (6888 <__swbuf_r+0xa8>)
    6864:	429c      	cmp	r4, r3
    6866:	d1ca      	bne.n	67fe <__swbuf_r+0x1e>
    6868:	68ec      	ldr	r4, [r5, #12]
    686a:	e7c8      	b.n	67fe <__swbuf_r+0x1e>
    686c:	0021      	movs	r1, r4
    686e:	0028      	movs	r0, r5
    6870:	f000 f820 	bl	68b4 <__swsetup_r>
    6874:	2800      	cmp	r0, #0
    6876:	d0ca      	beq.n	680e <__swbuf_r+0x2e>
    6878:	2601      	movs	r6, #1
    687a:	4276      	negs	r6, r6
    687c:	0030      	movs	r0, r6
    687e:	bdf8      	pop	{r3, r4, r5, r6, r7, pc}
    6880:	000078e0 	.word	0x000078e0
    6884:	00007900 	.word	0x00007900
    6888:	000078c0 	.word	0x000078c0

0000688c <_write_r>:
    688c:	b570      	push	{r4, r5, r6, lr}
    688e:	0005      	movs	r5, r0
    6890:	0008      	movs	r0, r1
    6892:	0011      	movs	r1, r2
    6894:	2200      	movs	r2, #0
    6896:	4c06      	ldr	r4, [pc, #24]	; (68b0 <_write_r+0x24>)
    6898:	6022      	str	r2, [r4, #0]
    689a:	001a      	movs	r2, r3
    689c:	f7fd f82e 	bl	38fc <_write>
    68a0:	1c43      	adds	r3, r0, #1
    68a2:	d103      	bne.n	68ac <_write_r+0x20>
    68a4:	6823      	ldr	r3, [r4, #0]
    68a6:	2b00      	cmp	r3, #0
    68a8:	d000      	beq.n	68ac <_write_r+0x20>
    68aa:	602b      	str	r3, [r5, #0]
    68ac:	bd70      	pop	{r4, r5, r6, pc}
    68ae:	46c0      	nop			; (mov r8, r8)
    68b0:	20000e60 	.word	0x20000e60

000068b4 <__swsetup_r>:
    68b4:	4b36      	ldr	r3, [pc, #216]	; (6990 <__swsetup_r+0xdc>)
    68b6:	b570      	push	{r4, r5, r6, lr}
    68b8:	681d      	ldr	r5, [r3, #0]
    68ba:	0006      	movs	r6, r0
    68bc:	000c      	movs	r4, r1
    68be:	2d00      	cmp	r5, #0
    68c0:	d005      	beq.n	68ce <__swsetup_r+0x1a>
    68c2:	69ab      	ldr	r3, [r5, #24]
    68c4:	2b00      	cmp	r3, #0
    68c6:	d102      	bne.n	68ce <__swsetup_r+0x1a>
    68c8:	0028      	movs	r0, r5
    68ca:	f7fe fc19 	bl	5100 <__sinit>
    68ce:	4b31      	ldr	r3, [pc, #196]	; (6994 <__swsetup_r+0xe0>)
    68d0:	429c      	cmp	r4, r3
    68d2:	d10f      	bne.n	68f4 <__swsetup_r+0x40>
    68d4:	686c      	ldr	r4, [r5, #4]
    68d6:	230c      	movs	r3, #12
    68d8:	5ee2      	ldrsh	r2, [r4, r3]
    68da:	b293      	uxth	r3, r2
    68dc:	0719      	lsls	r1, r3, #28
    68de:	d42d      	bmi.n	693c <__swsetup_r+0x88>
    68e0:	06d9      	lsls	r1, r3, #27
    68e2:	d411      	bmi.n	6908 <__swsetup_r+0x54>
    68e4:	2309      	movs	r3, #9
    68e6:	2001      	movs	r0, #1
    68e8:	6033      	str	r3, [r6, #0]
    68ea:	3337      	adds	r3, #55	; 0x37
    68ec:	4313      	orrs	r3, r2
    68ee:	81a3      	strh	r3, [r4, #12]
    68f0:	4240      	negs	r0, r0
    68f2:	bd70      	pop	{r4, r5, r6, pc}
    68f4:	4b28      	ldr	r3, [pc, #160]	; (6998 <__swsetup_r+0xe4>)
    68f6:	429c      	cmp	r4, r3
    68f8:	d101      	bne.n	68fe <__swsetup_r+0x4a>
    68fa:	68ac      	ldr	r4, [r5, #8]
    68fc:	e7eb      	b.n	68d6 <__swsetup_r+0x22>
    68fe:	4b27      	ldr	r3, [pc, #156]	; (699c <__swsetup_r+0xe8>)
    6900:	429c      	cmp	r4, r3
    6902:	d1e8      	bne.n	68d6 <__swsetup_r+0x22>
    6904:	68ec      	ldr	r4, [r5, #12]
    6906:	e7e6      	b.n	68d6 <__swsetup_r+0x22>
    6908:	075b      	lsls	r3, r3, #29
    690a:	d513      	bpl.n	6934 <__swsetup_r+0x80>
    690c:	6b61      	ldr	r1, [r4, #52]	; 0x34
    690e:	2900      	cmp	r1, #0
    6910:	d008      	beq.n	6924 <__swsetup_r+0x70>
    6912:	0023      	movs	r3, r4
    6914:	3344      	adds	r3, #68	; 0x44
    6916:	4299      	cmp	r1, r3
    6918:	d002      	beq.n	6920 <__swsetup_r+0x6c>
    691a:	0030      	movs	r0, r6
    691c:	f7fc ff7a 	bl	3814 <__wrap__free_r>
    6920:	2300      	movs	r3, #0
    6922:	6363      	str	r3, [r4, #52]	; 0x34
    6924:	2224      	movs	r2, #36	; 0x24
    6926:	89a3      	ldrh	r3, [r4, #12]
    6928:	4393      	bics	r3, r2
    692a:	81a3      	strh	r3, [r4, #12]
    692c:	2300      	movs	r3, #0
    692e:	6063      	str	r3, [r4, #4]
    6930:	6923      	ldr	r3, [r4, #16]
    6932:	6023      	str	r3, [r4, #0]
    6934:	2308      	movs	r3, #8
    6936:	89a2      	ldrh	r2, [r4, #12]
    6938:	4313      	orrs	r3, r2
    693a:	81a3      	strh	r3, [r4, #12]
    693c:	6923      	ldr	r3, [r4, #16]
    693e:	2b00      	cmp	r3, #0
    6940:	d10b      	bne.n	695a <__swsetup_r+0xa6>
    6942:	21a0      	movs	r1, #160	; 0xa0
    6944:	2280      	movs	r2, #128	; 0x80
    6946:	89a3      	ldrh	r3, [r4, #12]
    6948:	0089      	lsls	r1, r1, #2
    694a:	0092      	lsls	r2, r2, #2
    694c:	400b      	ands	r3, r1
    694e:	4293      	cmp	r3, r2
    6950:	d003      	beq.n	695a <__swsetup_r+0xa6>
    6952:	0021      	movs	r1, r4
    6954:	0030      	movs	r0, r6
    6956:	f7fe fdb5 	bl	54c4 <__smakebuf_r>
    695a:	2301      	movs	r3, #1
    695c:	89a2      	ldrh	r2, [r4, #12]
    695e:	4013      	ands	r3, r2
    6960:	d011      	beq.n	6986 <__swsetup_r+0xd2>
    6962:	2300      	movs	r3, #0
    6964:	60a3      	str	r3, [r4, #8]
    6966:	6963      	ldr	r3, [r4, #20]
    6968:	425b      	negs	r3, r3
    696a:	61a3      	str	r3, [r4, #24]
    696c:	2000      	movs	r0, #0
    696e:	6923      	ldr	r3, [r4, #16]
    6970:	4283      	cmp	r3, r0
    6972:	d1be      	bne.n	68f2 <__swsetup_r+0x3e>
    6974:	230c      	movs	r3, #12
    6976:	5ee2      	ldrsh	r2, [r4, r3]
    6978:	0613      	lsls	r3, r2, #24
    697a:	d5ba      	bpl.n	68f2 <__swsetup_r+0x3e>
    697c:	2340      	movs	r3, #64	; 0x40
    697e:	4313      	orrs	r3, r2
    6980:	81a3      	strh	r3, [r4, #12]
    6982:	3801      	subs	r0, #1
    6984:	e7b5      	b.n	68f2 <__swsetup_r+0x3e>
    6986:	0792      	lsls	r2, r2, #30
    6988:	d400      	bmi.n	698c <__swsetup_r+0xd8>
    698a:	6963      	ldr	r3, [r4, #20]
    698c:	60a3      	str	r3, [r4, #8]
    698e:	e7ed      	b.n	696c <__swsetup_r+0xb8>
    6990:	1ffff0e8 	.word	0x1ffff0e8
    6994:	000078e0 	.word	0x000078e0
    6998:	00007900 	.word	0x00007900
    699c:	000078c0 	.word	0x000078c0

000069a0 <_close_r>:
    69a0:	2300      	movs	r3, #0
    69a2:	b570      	push	{r4, r5, r6, lr}
    69a4:	4c06      	ldr	r4, [pc, #24]	; (69c0 <_close_r+0x20>)
    69a6:	0005      	movs	r5, r0
    69a8:	0008      	movs	r0, r1
    69aa:	6023      	str	r3, [r4, #0]
    69ac:	f7fc ff86 	bl	38bc <_close>
    69b0:	1c43      	adds	r3, r0, #1
    69b2:	d103      	bne.n	69bc <_close_r+0x1c>
    69b4:	6823      	ldr	r3, [r4, #0]
    69b6:	2b00      	cmp	r3, #0
    69b8:	d000      	beq.n	69bc <_close_r+0x1c>
    69ba:	602b      	str	r3, [r5, #0]
    69bc:	bd70      	pop	{r4, r5, r6, pc}
    69be:	46c0      	nop			; (mov r8, r8)
    69c0:	20000e60 	.word	0x20000e60

000069c4 <__sflags>:
    69c4:	780b      	ldrb	r3, [r1, #0]
    69c6:	b5f0      	push	{r4, r5, r6, r7, lr}
    69c8:	2b72      	cmp	r3, #114	; 0x72
    69ca:	d019      	beq.n	6a00 <__sflags+0x3c>
    69cc:	2b77      	cmp	r3, #119	; 0x77
    69ce:	d007      	beq.n	69e0 <__sflags+0x1c>
    69d0:	2b61      	cmp	r3, #97	; 0x61
    69d2:	d119      	bne.n	6a08 <__sflags+0x44>
    69d4:	2482      	movs	r4, #130	; 0x82
    69d6:	2084      	movs	r0, #132	; 0x84
    69d8:	00a4      	lsls	r4, r4, #2
    69da:	2301      	movs	r3, #1
    69dc:	0040      	lsls	r0, r0, #1
    69de:	e003      	b.n	69e8 <__sflags+0x24>
    69e0:	24c0      	movs	r4, #192	; 0xc0
    69e2:	2301      	movs	r3, #1
    69e4:	2008      	movs	r0, #8
    69e6:	00e4      	lsls	r4, r4, #3
    69e8:	2510      	movs	r5, #16
    69ea:	2680      	movs	r6, #128	; 0x80
    69ec:	271c      	movs	r7, #28
    69ee:	46ac      	mov	r12, r5
    69f0:	0136      	lsls	r6, r6, #4
    69f2:	3101      	adds	r1, #1
    69f4:	780d      	ldrb	r5, [r1, #0]
    69f6:	2d00      	cmp	r5, #0
    69f8:	d10a      	bne.n	6a10 <__sflags+0x4c>
    69fa:	4323      	orrs	r3, r4
    69fc:	6013      	str	r3, [r2, #0]
    69fe:	e006      	b.n	6a0e <__sflags+0x4a>
    6a00:	2400      	movs	r4, #0
    6a02:	2004      	movs	r0, #4
    6a04:	0023      	movs	r3, r4
    6a06:	e7ef      	b.n	69e8 <__sflags+0x24>
    6a08:	2316      	movs	r3, #22
    6a0a:	6003      	str	r3, [r0, #0]
    6a0c:	2000      	movs	r0, #0
    6a0e:	bdf0      	pop	{r4, r5, r6, r7, pc}
    6a10:	2d62      	cmp	r5, #98	; 0x62
    6a12:	d00b      	beq.n	6a2c <__sflags+0x68>
    6a14:	2d78      	cmp	r5, #120	; 0x78
    6a16:	d00c      	beq.n	6a32 <__sflags+0x6e>
    6a18:	2d2b      	cmp	r5, #43	; 0x2b
    6a1a:	d1ea      	bne.n	69f2 <__sflags+0x2e>
    6a1c:	4665      	mov	r5, r12
    6a1e:	43b8      	bics	r0, r7
    6a20:	4328      	orrs	r0, r5
    6a22:	2503      	movs	r5, #3
    6a24:	43ab      	bics	r3, r5
    6a26:	3d01      	subs	r5, #1
    6a28:	432b      	orrs	r3, r5
    6a2a:	e7e2      	b.n	69f2 <__sflags+0x2e>
    6a2c:	2580      	movs	r5, #128	; 0x80
    6a2e:	026d      	lsls	r5, r5, #9
    6a30:	e7fa      	b.n	6a28 <__sflags+0x64>
    6a32:	4333      	orrs	r3, r6
    6a34:	e7dd      	b.n	69f2 <__sflags+0x2e>
	...

00006a38 <_fstat_r>:
    6a38:	2300      	movs	r3, #0
    6a3a:	b570      	push	{r4, r5, r6, lr}
    6a3c:	4c06      	ldr	r4, [pc, #24]	; (6a58 <_fstat_r+0x20>)
    6a3e:	0005      	movs	r5, r0
    6a40:	0008      	movs	r0, r1
    6a42:	0011      	movs	r1, r2
    6a44:	6023      	str	r3, [r4, #0]
    6a46:	f7fc fffd 	bl	3a44 <_fstat>
    6a4a:	1c43      	adds	r3, r0, #1
    6a4c:	d103      	bne.n	6a56 <_fstat_r+0x1e>
    6a4e:	6823      	ldr	r3, [r4, #0]
    6a50:	2b00      	cmp	r3, #0
    6a52:	d000      	beq.n	6a56 <_fstat_r+0x1e>
    6a54:	602b      	str	r3, [r5, #0]
    6a56:	bd70      	pop	{r4, r5, r6, pc}
    6a58:	20000e60 	.word	0x20000e60

00006a5c <_isatty_r>:
    6a5c:	2300      	movs	r3, #0
    6a5e:	b570      	push	{r4, r5, r6, lr}
    6a60:	4c06      	ldr	r4, [pc, #24]	; (6a7c <_isatty_r+0x20>)
    6a62:	0005      	movs	r5, r0
    6a64:	0008      	movs	r0, r1
    6a66:	6023      	str	r3, [r4, #0]
    6a68:	f7fa f80c 	bl	a84 <__wrap__isatty>
    6a6c:	1c43      	adds	r3, r0, #1
    6a6e:	d103      	bne.n	6a78 <_isatty_r+0x1c>
    6a70:	6823      	ldr	r3, [r4, #0]
    6a72:	2b00      	cmp	r3, #0
    6a74:	d000      	beq.n	6a78 <_isatty_r+0x1c>
    6a76:	602b      	str	r3, [r5, #0]
    6a78:	bd70      	pop	{r4, r5, r6, pc}
    6a7a:	46c0      	nop			; (mov r8, r8)
    6a7c:	20000e60 	.word	0x20000e60

00006a80 <__locale_ctype_ptr_l>:
    6a80:	30ec      	adds	r0, #236	; 0xec
    6a82:	6800      	ldr	r0, [r0, #0]
    6a84:	4770      	bx	lr
	...

00006a88 <__locale_ctype_ptr>:
    6a88:	4b04      	ldr	r3, [pc, #16]	; (6a9c <__locale_ctype_ptr+0x14>)
    6a8a:	681b      	ldr	r3, [r3, #0]
    6a8c:	6a1b      	ldr	r3, [r3, #32]
    6a8e:	2b00      	cmp	r3, #0
    6a90:	d100      	bne.n	6a94 <__locale_ctype_ptr+0xc>
    6a92:	4b03      	ldr	r3, [pc, #12]	; (6aa0 <__locale_ctype_ptr+0x18>)
    6a94:	33ec      	adds	r3, #236	; 0xec
    6a96:	6818      	ldr	r0, [r3, #0]
    6a98:	4770      	bx	lr
    6a9a:	46c0      	nop			; (mov r8, r8)
    6a9c:	1ffff0e8 	.word	0x1ffff0e8
    6aa0:	1ffff14c 	.word	0x1ffff14c

00006aa4 <_lseek_r>:
    6aa4:	b570      	push	{r4, r5, r6, lr}
    6aa6:	0005      	movs	r5, r0
    6aa8:	0008      	movs	r0, r1
    6aaa:	0011      	movs	r1, r2
    6aac:	2200      	movs	r2, #0
    6aae:	4c06      	ldr	r4, [pc, #24]	; (6ac8 <_lseek_r+0x24>)
    6ab0:	6022      	str	r2, [r4, #0]
    6ab2:	001a      	movs	r2, r3
    6ab4:	f7fc ffaa 	bl	3a0c <_lseek>
    6ab8:	1c43      	adds	r3, r0, #1
    6aba:	d103      	bne.n	6ac4 <_lseek_r+0x20>
    6abc:	6823      	ldr	r3, [r4, #0]
    6abe:	2b00      	cmp	r3, #0
    6ac0:	d000      	beq.n	6ac4 <_lseek_r+0x20>
    6ac2:	602b      	str	r3, [r5, #0]
    6ac4:	bd70      	pop	{r4, r5, r6, pc}
    6ac6:	46c0      	nop			; (mov r8, r8)
    6ac8:	20000e60 	.word	0x20000e60

00006acc <__ascii_mbtowc>:
    6acc:	b082      	sub	sp, #8
    6ace:	2900      	cmp	r1, #0
    6ad0:	d100      	bne.n	6ad4 <__ascii_mbtowc+0x8>
    6ad2:	a901      	add	r1, sp, #4
    6ad4:	1e10      	subs	r0, r2, #0
    6ad6:	d006      	beq.n	6ae6 <__ascii_mbtowc+0x1a>
    6ad8:	2b00      	cmp	r3, #0
    6ada:	d006      	beq.n	6aea <__ascii_mbtowc+0x1e>
    6adc:	7813      	ldrb	r3, [r2, #0]
    6ade:	600b      	str	r3, [r1, #0]
    6ae0:	7810      	ldrb	r0, [r2, #0]
    6ae2:	1e43      	subs	r3, r0, #1
    6ae4:	4198      	sbcs	r0, r3
    6ae6:	b002      	add	sp, #8
    6ae8:	4770      	bx	lr
    6aea:	2002      	movs	r0, #2
    6aec:	4240      	negs	r0, r0
    6aee:	e7fa      	b.n	6ae6 <__ascii_mbtowc+0x1a>

00006af0 <_malloc_usable_size_r>:
    6af0:	1f0b      	subs	r3, r1, #4
    6af2:	681b      	ldr	r3, [r3, #0]
    6af4:	1f18      	subs	r0, r3, #4
    6af6:	2b00      	cmp	r3, #0
    6af8:	da01      	bge.n	6afe <_malloc_usable_size_r+0xe>
    6afa:	580b      	ldr	r3, [r1, r0]
    6afc:	18c0      	adds	r0, r0, r3
    6afe:	4770      	bx	lr

00006b00 <__ssputs_r>:
    6b00:	b5f0      	push	{r4, r5, r6, r7, lr}
    6b02:	688e      	ldr	r6, [r1, #8]
    6b04:	b085      	sub	sp, #20
    6b06:	0007      	movs	r7, r0
    6b08:	000c      	movs	r4, r1
    6b0a:	9203      	str	r2, [sp, #12]
    6b0c:	9301      	str	r3, [sp, #4]
    6b0e:	429e      	cmp	r6, r3
    6b10:	d839      	bhi.n	6b86 <__ssputs_r+0x86>
    6b12:	2390      	movs	r3, #144	; 0x90
    6b14:	898a      	ldrh	r2, [r1, #12]
    6b16:	00db      	lsls	r3, r3, #3
    6b18:	421a      	tst	r2, r3
    6b1a:	d034      	beq.n	6b86 <__ssputs_r+0x86>
    6b1c:	2503      	movs	r5, #3
    6b1e:	6909      	ldr	r1, [r1, #16]
    6b20:	6823      	ldr	r3, [r4, #0]
    6b22:	1a5b      	subs	r3, r3, r1
    6b24:	9302      	str	r3, [sp, #8]
    6b26:	6963      	ldr	r3, [r4, #20]
    6b28:	9802      	ldr	r0, [sp, #8]
    6b2a:	435d      	muls	r5, r3
    6b2c:	0feb      	lsrs	r3, r5, #31
    6b2e:	195d      	adds	r5, r3, r5
    6b30:	9b01      	ldr	r3, [sp, #4]
    6b32:	106d      	asrs	r5, r5, #1
    6b34:	3301      	adds	r3, #1
    6b36:	181b      	adds	r3, r3, r0
    6b38:	42ab      	cmp	r3, r5
    6b3a:	d900      	bls.n	6b3e <__ssputs_r+0x3e>
    6b3c:	001d      	movs	r5, r3
    6b3e:	0553      	lsls	r3, r2, #21
    6b40:	d532      	bpl.n	6ba8 <__ssputs_r+0xa8>
    6b42:	0029      	movs	r1, r5
    6b44:	0038      	movs	r0, r7
    6b46:	f7fc fe5d 	bl	3804 <__wrap__malloc_r>
    6b4a:	1e06      	subs	r6, r0, #0
    6b4c:	d109      	bne.n	6b62 <__ssputs_r+0x62>
    6b4e:	230c      	movs	r3, #12
    6b50:	603b      	str	r3, [r7, #0]
    6b52:	2340      	movs	r3, #64	; 0x40
    6b54:	2001      	movs	r0, #1
    6b56:	89a2      	ldrh	r2, [r4, #12]
    6b58:	4240      	negs	r0, r0
    6b5a:	4313      	orrs	r3, r2
    6b5c:	81a3      	strh	r3, [r4, #12]
    6b5e:	b005      	add	sp, #20
    6b60:	bdf0      	pop	{r4, r5, r6, r7, pc}
    6b62:	9a02      	ldr	r2, [sp, #8]
    6b64:	6921      	ldr	r1, [r4, #16]
    6b66:	f7fe fd10 	bl	558a <memcpy>
    6b6a:	89a3      	ldrh	r3, [r4, #12]
    6b6c:	4a14      	ldr	r2, [pc, #80]	; (6bc0 <__ssputs_r+0xc0>)
    6b6e:	401a      	ands	r2, r3
    6b70:	2380      	movs	r3, #128	; 0x80
    6b72:	4313      	orrs	r3, r2
    6b74:	81a3      	strh	r3, [r4, #12]
    6b76:	9b02      	ldr	r3, [sp, #8]
    6b78:	6126      	str	r6, [r4, #16]
    6b7a:	18f6      	adds	r6, r6, r3
    6b7c:	6026      	str	r6, [r4, #0]
    6b7e:	6165      	str	r5, [r4, #20]
    6b80:	9e01      	ldr	r6, [sp, #4]
    6b82:	1aed      	subs	r5, r5, r3
    6b84:	60a5      	str	r5, [r4, #8]
    6b86:	9b01      	ldr	r3, [sp, #4]
    6b88:	42b3      	cmp	r3, r6
    6b8a:	d200      	bcs.n	6b8e <__ssputs_r+0x8e>
    6b8c:	001e      	movs	r6, r3
    6b8e:	0032      	movs	r2, r6
    6b90:	9903      	ldr	r1, [sp, #12]
    6b92:	6820      	ldr	r0, [r4, #0]
    6b94:	f7fe fd02 	bl	559c <memmove>
    6b98:	68a3      	ldr	r3, [r4, #8]
    6b9a:	2000      	movs	r0, #0
    6b9c:	1b9b      	subs	r3, r3, r6
    6b9e:	60a3      	str	r3, [r4, #8]
    6ba0:	6823      	ldr	r3, [r4, #0]
    6ba2:	199e      	adds	r6, r3, r6
    6ba4:	6026      	str	r6, [r4, #0]
    6ba6:	e7da      	b.n	6b5e <__ssputs_r+0x5e>
    6ba8:	002a      	movs	r2, r5
    6baa:	0038      	movs	r0, r7
    6bac:	f7fc fe2e 	bl	380c <__wrap__realloc_r>
    6bb0:	1e06      	subs	r6, r0, #0
    6bb2:	d1e0      	bne.n	6b76 <__ssputs_r+0x76>
    6bb4:	6921      	ldr	r1, [r4, #16]
    6bb6:	0038      	movs	r0, r7
    6bb8:	f7fc fe2c 	bl	3814 <__wrap__free_r>
    6bbc:	e7c7      	b.n	6b4e <__ssputs_r+0x4e>
    6bbe:	46c0      	nop			; (mov r8, r8)
    6bc0:	fffffb7f 	.word	0xfffffb7f

00006bc4 <_svfiprintf_r>:
    6bc4:	b5f0      	push	{r4, r5, r6, r7, lr}
    6bc6:	b09f      	sub	sp, #124	; 0x7c
    6bc8:	9002      	str	r0, [sp, #8]
    6bca:	9305      	str	r3, [sp, #20]
    6bcc:	898b      	ldrh	r3, [r1, #12]
    6bce:	000f      	movs	r7, r1
    6bd0:	0016      	movs	r6, r2
    6bd2:	061b      	lsls	r3, r3, #24
    6bd4:	d511      	bpl.n	6bfa <_svfiprintf_r+0x36>
    6bd6:	690b      	ldr	r3, [r1, #16]
    6bd8:	2b00      	cmp	r3, #0
    6bda:	d10e      	bne.n	6bfa <_svfiprintf_r+0x36>
    6bdc:	2140      	movs	r1, #64	; 0x40
    6bde:	f7fc fe11 	bl	3804 <__wrap__malloc_r>
    6be2:	6038      	str	r0, [r7, #0]
    6be4:	6138      	str	r0, [r7, #16]
    6be6:	2800      	cmp	r0, #0
    6be8:	d105      	bne.n	6bf6 <_svfiprintf_r+0x32>
    6bea:	230c      	movs	r3, #12
    6bec:	9a02      	ldr	r2, [sp, #8]
    6bee:	3801      	subs	r0, #1
    6bf0:	6013      	str	r3, [r2, #0]
    6bf2:	b01f      	add	sp, #124	; 0x7c
    6bf4:	bdf0      	pop	{r4, r5, r6, r7, pc}
    6bf6:	2340      	movs	r3, #64	; 0x40
    6bf8:	617b      	str	r3, [r7, #20]
    6bfa:	2300      	movs	r3, #0
    6bfc:	ad06      	add	r5, sp, #24
    6bfe:	616b      	str	r3, [r5, #20]
    6c00:	3320      	adds	r3, #32
    6c02:	766b      	strb	r3, [r5, #25]
    6c04:	3310      	adds	r3, #16
    6c06:	76ab      	strb	r3, [r5, #26]
    6c08:	0034      	movs	r4, r6
    6c0a:	7823      	ldrb	r3, [r4, #0]
    6c0c:	2b00      	cmp	r3, #0
    6c0e:	d147      	bne.n	6ca0 <_svfiprintf_r+0xdc>
    6c10:	1ba3      	subs	r3, r4, r6
    6c12:	9304      	str	r3, [sp, #16]
    6c14:	d00d      	beq.n	6c32 <_svfiprintf_r+0x6e>
    6c16:	1ba3      	subs	r3, r4, r6
    6c18:	0032      	movs	r2, r6
    6c1a:	0039      	movs	r1, r7
    6c1c:	9802      	ldr	r0, [sp, #8]
    6c1e:	f7ff ff6f 	bl	6b00 <__ssputs_r>
    6c22:	1c43      	adds	r3, r0, #1
    6c24:	d100      	bne.n	6c28 <_svfiprintf_r+0x64>
    6c26:	e0b5      	b.n	6d94 <_svfiprintf_r+0x1d0>
    6c28:	696a      	ldr	r2, [r5, #20]
    6c2a:	9b04      	ldr	r3, [sp, #16]
    6c2c:	4694      	mov	r12, r2
    6c2e:	4463      	add	r3, r12
    6c30:	616b      	str	r3, [r5, #20]
    6c32:	7823      	ldrb	r3, [r4, #0]
    6c34:	2b00      	cmp	r3, #0
    6c36:	d100      	bne.n	6c3a <_svfiprintf_r+0x76>
    6c38:	e0ac      	b.n	6d94 <_svfiprintf_r+0x1d0>
    6c3a:	2201      	movs	r2, #1
    6c3c:	2300      	movs	r3, #0
    6c3e:	4252      	negs	r2, r2
    6c40:	606a      	str	r2, [r5, #4]
    6c42:	a902      	add	r1, sp, #8
    6c44:	3254      	adds	r2, #84	; 0x54
    6c46:	1852      	adds	r2, r2, r1
    6c48:	3401      	adds	r4, #1
    6c4a:	602b      	str	r3, [r5, #0]
    6c4c:	60eb      	str	r3, [r5, #12]
    6c4e:	60ab      	str	r3, [r5, #8]
    6c50:	7013      	strb	r3, [r2, #0]
    6c52:	65ab      	str	r3, [r5, #88]	; 0x58
    6c54:	4e58      	ldr	r6, [pc, #352]	; (6db8 <_svfiprintf_r+0x1f4>)
    6c56:	2205      	movs	r2, #5
    6c58:	7821      	ldrb	r1, [r4, #0]
    6c5a:	0030      	movs	r0, r6
    6c5c:	f7fe fc8a 	bl	5574 <memchr>
    6c60:	1c62      	adds	r2, r4, #1
    6c62:	2800      	cmp	r0, #0
    6c64:	d120      	bne.n	6ca8 <_svfiprintf_r+0xe4>
    6c66:	6829      	ldr	r1, [r5, #0]
    6c68:	06cb      	lsls	r3, r1, #27
    6c6a:	d504      	bpl.n	6c76 <_svfiprintf_r+0xb2>
    6c6c:	2353      	movs	r3, #83	; 0x53
    6c6e:	ae02      	add	r6, sp, #8
    6c70:	3020      	adds	r0, #32
    6c72:	199b      	adds	r3, r3, r6
    6c74:	7018      	strb	r0, [r3, #0]
    6c76:	070b      	lsls	r3, r1, #28
    6c78:	d504      	bpl.n	6c84 <_svfiprintf_r+0xc0>
    6c7a:	2353      	movs	r3, #83	; 0x53
    6c7c:	202b      	movs	r0, #43	; 0x2b
    6c7e:	ae02      	add	r6, sp, #8
    6c80:	199b      	adds	r3, r3, r6
    6c82:	7018      	strb	r0, [r3, #0]
    6c84:	7823      	ldrb	r3, [r4, #0]
    6c86:	2b2a      	cmp	r3, #42	; 0x2a
    6c88:	d016      	beq.n	6cb8 <_svfiprintf_r+0xf4>
    6c8a:	2000      	movs	r0, #0
    6c8c:	210a      	movs	r1, #10
    6c8e:	9b09      	ldr	r3, [sp, #36]	; 0x24
    6c90:	7822      	ldrb	r2, [r4, #0]
    6c92:	3a30      	subs	r2, #48	; 0x30
    6c94:	2a09      	cmp	r2, #9
    6c96:	d955      	bls.n	6d44 <_svfiprintf_r+0x180>
    6c98:	2800      	cmp	r0, #0
    6c9a:	d015      	beq.n	6cc8 <_svfiprintf_r+0x104>
    6c9c:	9309      	str	r3, [sp, #36]	; 0x24
    6c9e:	e013      	b.n	6cc8 <_svfiprintf_r+0x104>
    6ca0:	2b25      	cmp	r3, #37	; 0x25
    6ca2:	d0b5      	beq.n	6c10 <_svfiprintf_r+0x4c>
    6ca4:	3401      	adds	r4, #1
    6ca6:	e7b0      	b.n	6c0a <_svfiprintf_r+0x46>
    6ca8:	2301      	movs	r3, #1
    6caa:	1b80      	subs	r0, r0, r6
    6cac:	4083      	lsls	r3, r0
    6cae:	6829      	ldr	r1, [r5, #0]
    6cb0:	0014      	movs	r4, r2
    6cb2:	430b      	orrs	r3, r1
    6cb4:	602b      	str	r3, [r5, #0]
    6cb6:	e7cd      	b.n	6c54 <_svfiprintf_r+0x90>
    6cb8:	9b05      	ldr	r3, [sp, #20]
    6cba:	1d18      	adds	r0, r3, #4
    6cbc:	681b      	ldr	r3, [r3, #0]
    6cbe:	9005      	str	r0, [sp, #20]
    6cc0:	2b00      	cmp	r3, #0
    6cc2:	db39      	blt.n	6d38 <_svfiprintf_r+0x174>
    6cc4:	9309      	str	r3, [sp, #36]	; 0x24
    6cc6:	0014      	movs	r4, r2
    6cc8:	7823      	ldrb	r3, [r4, #0]
    6cca:	2b2e      	cmp	r3, #46	; 0x2e
    6ccc:	d10b      	bne.n	6ce6 <_svfiprintf_r+0x122>
    6cce:	7863      	ldrb	r3, [r4, #1]
    6cd0:	1c62      	adds	r2, r4, #1
    6cd2:	2b2a      	cmp	r3, #42	; 0x2a
    6cd4:	d13e      	bne.n	6d54 <_svfiprintf_r+0x190>
    6cd6:	9b05      	ldr	r3, [sp, #20]
    6cd8:	3402      	adds	r4, #2
    6cda:	1d1a      	adds	r2, r3, #4
    6cdc:	681b      	ldr	r3, [r3, #0]
    6cde:	9205      	str	r2, [sp, #20]
    6ce0:	2b00      	cmp	r3, #0
    6ce2:	db34      	blt.n	6d4e <_svfiprintf_r+0x18a>
    6ce4:	9307      	str	r3, [sp, #28]
    6ce6:	4e35      	ldr	r6, [pc, #212]	; (6dbc <_svfiprintf_r+0x1f8>)
    6ce8:	7821      	ldrb	r1, [r4, #0]
    6cea:	2203      	movs	r2, #3
    6cec:	0030      	movs	r0, r6
    6cee:	f7fe fc41 	bl	5574 <memchr>
    6cf2:	2800      	cmp	r0, #0
    6cf4:	d006      	beq.n	6d04 <_svfiprintf_r+0x140>
    6cf6:	2340      	movs	r3, #64	; 0x40
    6cf8:	1b80      	subs	r0, r0, r6
    6cfa:	4083      	lsls	r3, r0
    6cfc:	682a      	ldr	r2, [r5, #0]
    6cfe:	3401      	adds	r4, #1
    6d00:	4313      	orrs	r3, r2
    6d02:	602b      	str	r3, [r5, #0]
    6d04:	7821      	ldrb	r1, [r4, #0]
    6d06:	2206      	movs	r2, #6
    6d08:	482d      	ldr	r0, [pc, #180]	; (6dc0 <_svfiprintf_r+0x1fc>)
    6d0a:	1c66      	adds	r6, r4, #1
    6d0c:	7629      	strb	r1, [r5, #24]
    6d0e:	f7fe fc31 	bl	5574 <memchr>
    6d12:	2800      	cmp	r0, #0
    6d14:	d046      	beq.n	6da4 <_svfiprintf_r+0x1e0>
    6d16:	4b2b      	ldr	r3, [pc, #172]	; (6dc4 <_svfiprintf_r+0x200>)
    6d18:	2b00      	cmp	r3, #0
    6d1a:	d12f      	bne.n	6d7c <_svfiprintf_r+0x1b8>
    6d1c:	6829      	ldr	r1, [r5, #0]
    6d1e:	9b05      	ldr	r3, [sp, #20]
    6d20:	2207      	movs	r2, #7
    6d22:	05c9      	lsls	r1, r1, #23
    6d24:	d528      	bpl.n	6d78 <_svfiprintf_r+0x1b4>
    6d26:	189b      	adds	r3, r3, r2
    6d28:	4393      	bics	r3, r2
    6d2a:	3308      	adds	r3, #8
    6d2c:	9305      	str	r3, [sp, #20]
    6d2e:	696b      	ldr	r3, [r5, #20]
    6d30:	9a03      	ldr	r2, [sp, #12]
    6d32:	189b      	adds	r3, r3, r2
    6d34:	616b      	str	r3, [r5, #20]
    6d36:	e767      	b.n	6c08 <_svfiprintf_r+0x44>
    6d38:	425b      	negs	r3, r3
    6d3a:	60eb      	str	r3, [r5, #12]
    6d3c:	2302      	movs	r3, #2
    6d3e:	430b      	orrs	r3, r1
    6d40:	602b      	str	r3, [r5, #0]
    6d42:	e7c0      	b.n	6cc6 <_svfiprintf_r+0x102>
    6d44:	434b      	muls	r3, r1
    6d46:	3401      	adds	r4, #1
    6d48:	189b      	adds	r3, r3, r2
    6d4a:	2001      	movs	r0, #1
    6d4c:	e7a0      	b.n	6c90 <_svfiprintf_r+0xcc>
    6d4e:	2301      	movs	r3, #1
    6d50:	425b      	negs	r3, r3
    6d52:	e7c7      	b.n	6ce4 <_svfiprintf_r+0x120>
    6d54:	2300      	movs	r3, #0
    6d56:	0014      	movs	r4, r2
    6d58:	200a      	movs	r0, #10
    6d5a:	001a      	movs	r2, r3
    6d5c:	606b      	str	r3, [r5, #4]
    6d5e:	7821      	ldrb	r1, [r4, #0]
    6d60:	3930      	subs	r1, #48	; 0x30
    6d62:	2909      	cmp	r1, #9
    6d64:	d903      	bls.n	6d6e <_svfiprintf_r+0x1aa>
    6d66:	2b00      	cmp	r3, #0
    6d68:	d0bd      	beq.n	6ce6 <_svfiprintf_r+0x122>
    6d6a:	9207      	str	r2, [sp, #28]
    6d6c:	e7bb      	b.n	6ce6 <_svfiprintf_r+0x122>
    6d6e:	4342      	muls	r2, r0
    6d70:	3401      	adds	r4, #1
    6d72:	1852      	adds	r2, r2, r1
    6d74:	2301      	movs	r3, #1
    6d76:	e7f2      	b.n	6d5e <_svfiprintf_r+0x19a>
    6d78:	3307      	adds	r3, #7
    6d7a:	e7d5      	b.n	6d28 <_svfiprintf_r+0x164>
    6d7c:	ab05      	add	r3, sp, #20
    6d7e:	9300      	str	r3, [sp, #0]
    6d80:	003a      	movs	r2, r7
    6d82:	4b11      	ldr	r3, [pc, #68]	; (6dc8 <_svfiprintf_r+0x204>)
    6d84:	0029      	movs	r1, r5
    6d86:	9802      	ldr	r0, [sp, #8]
    6d88:	e000      	b.n	6d8c <_svfiprintf_r+0x1c8>
    6d8a:	bf00      	nop
    6d8c:	9003      	str	r0, [sp, #12]
    6d8e:	9b03      	ldr	r3, [sp, #12]
    6d90:	3301      	adds	r3, #1
    6d92:	d1cc      	bne.n	6d2e <_svfiprintf_r+0x16a>
    6d94:	89bb      	ldrh	r3, [r7, #12]
    6d96:	980b      	ldr	r0, [sp, #44]	; 0x2c
    6d98:	065b      	lsls	r3, r3, #25
    6d9a:	d400      	bmi.n	6d9e <_svfiprintf_r+0x1da>
    6d9c:	e729      	b.n	6bf2 <_svfiprintf_r+0x2e>
    6d9e:	2001      	movs	r0, #1
    6da0:	4240      	negs	r0, r0
    6da2:	e726      	b.n	6bf2 <_svfiprintf_r+0x2e>
    6da4:	ab05      	add	r3, sp, #20
    6da6:	9300      	str	r3, [sp, #0]
    6da8:	003a      	movs	r2, r7
    6daa:	4b07      	ldr	r3, [pc, #28]	; (6dc8 <_svfiprintf_r+0x204>)
    6dac:	0029      	movs	r1, r5
    6dae:	9802      	ldr	r0, [sp, #8]
    6db0:	f7fe fe9a 	bl	5ae8 <_printf_i>
    6db4:	e7ea      	b.n	6d8c <_svfiprintf_r+0x1c8>
    6db6:	46c0      	nop			; (mov r8, r8)
    6db8:	00007924 	.word	0x00007924
    6dbc:	0000792a 	.word	0x0000792a
    6dc0:	0000792e 	.word	0x0000792e
    6dc4:	00000000 	.word	0x00000000
    6dc8:	00006b01 	.word	0x00006b01

00006dcc <_sungetc_r>:
    6dcc:	b570      	push	{r4, r5, r6, lr}
    6dce:	0014      	movs	r4, r2
    6dd0:	1c4b      	adds	r3, r1, #1
    6dd2:	d103      	bne.n	6ddc <_sungetc_r+0x10>
    6dd4:	2501      	movs	r5, #1
    6dd6:	426d      	negs	r5, r5
    6dd8:	0028      	movs	r0, r5
    6dda:	bd70      	pop	{r4, r5, r6, pc}
    6ddc:	8993      	ldrh	r3, [r2, #12]
    6dde:	2220      	movs	r2, #32
    6de0:	4393      	bics	r3, r2
    6de2:	6b62      	ldr	r2, [r4, #52]	; 0x34
    6de4:	81a3      	strh	r3, [r4, #12]
    6de6:	b2ce      	uxtb	r6, r1
    6de8:	b2cd      	uxtb	r5, r1
    6dea:	6863      	ldr	r3, [r4, #4]
    6dec:	2a00      	cmp	r2, #0
    6dee:	d010      	beq.n	6e12 <_sungetc_r+0x46>
    6df0:	6ba2      	ldr	r2, [r4, #56]	; 0x38
    6df2:	4293      	cmp	r3, r2
    6df4:	da07      	bge.n	6e06 <_sungetc_r+0x3a>
    6df6:	6823      	ldr	r3, [r4, #0]
    6df8:	3b01      	subs	r3, #1
    6dfa:	6023      	str	r3, [r4, #0]
    6dfc:	701e      	strb	r6, [r3, #0]
    6dfe:	6863      	ldr	r3, [r4, #4]
    6e00:	3301      	adds	r3, #1
    6e02:	6063      	str	r3, [r4, #4]
    6e04:	e7e8      	b.n	6dd8 <_sungetc_r+0xc>
    6e06:	0021      	movs	r1, r4
    6e08:	f7ff fcac 	bl	6764 <__submore>
    6e0c:	2800      	cmp	r0, #0
    6e0e:	d0f2      	beq.n	6df6 <_sungetc_r+0x2a>
    6e10:	e7e0      	b.n	6dd4 <_sungetc_r+0x8>
    6e12:	6921      	ldr	r1, [r4, #16]
    6e14:	6822      	ldr	r2, [r4, #0]
    6e16:	2900      	cmp	r1, #0
    6e18:	d007      	beq.n	6e2a <_sungetc_r+0x5e>
    6e1a:	4291      	cmp	r1, r2
    6e1c:	d205      	bcs.n	6e2a <_sungetc_r+0x5e>
    6e1e:	1e51      	subs	r1, r2, #1
    6e20:	7808      	ldrb	r0, [r1, #0]
    6e22:	4285      	cmp	r5, r0
    6e24:	d101      	bne.n	6e2a <_sungetc_r+0x5e>
    6e26:	6021      	str	r1, [r4, #0]
    6e28:	e7ea      	b.n	6e00 <_sungetc_r+0x34>
    6e2a:	6423      	str	r3, [r4, #64]	; 0x40
    6e2c:	0023      	movs	r3, r4
    6e2e:	3344      	adds	r3, #68	; 0x44
    6e30:	6363      	str	r3, [r4, #52]	; 0x34
    6e32:	2303      	movs	r3, #3
    6e34:	63a3      	str	r3, [r4, #56]	; 0x38
    6e36:	0023      	movs	r3, r4
    6e38:	3346      	adds	r3, #70	; 0x46
    6e3a:	63e2      	str	r2, [r4, #60]	; 0x3c
    6e3c:	701e      	strb	r6, [r3, #0]
    6e3e:	6023      	str	r3, [r4, #0]
    6e40:	2301      	movs	r3, #1
    6e42:	e7de      	b.n	6e02 <_sungetc_r+0x36>

00006e44 <__ssrefill_r>:
    6e44:	b510      	push	{r4, lr}
    6e46:	000c      	movs	r4, r1
    6e48:	6b49      	ldr	r1, [r1, #52]	; 0x34
    6e4a:	2900      	cmp	r1, #0
    6e4c:	d00e      	beq.n	6e6c <__ssrefill_r+0x28>
    6e4e:	0023      	movs	r3, r4
    6e50:	3344      	adds	r3, #68	; 0x44
    6e52:	4299      	cmp	r1, r3
    6e54:	d001      	beq.n	6e5a <__ssrefill_r+0x16>
    6e56:	f7fc fcdd 	bl	3814 <__wrap__free_r>
    6e5a:	2000      	movs	r0, #0
    6e5c:	6c23      	ldr	r3, [r4, #64]	; 0x40
    6e5e:	6360      	str	r0, [r4, #52]	; 0x34
    6e60:	6063      	str	r3, [r4, #4]
    6e62:	4283      	cmp	r3, r0
    6e64:	d002      	beq.n	6e6c <__ssrefill_r+0x28>
    6e66:	6be3      	ldr	r3, [r4, #60]	; 0x3c
    6e68:	6023      	str	r3, [r4, #0]
    6e6a:	bd10      	pop	{r4, pc}
    6e6c:	6923      	ldr	r3, [r4, #16]
    6e6e:	2001      	movs	r0, #1
    6e70:	6023      	str	r3, [r4, #0]
    6e72:	2300      	movs	r3, #0
    6e74:	89a2      	ldrh	r2, [r4, #12]
    6e76:	6063      	str	r3, [r4, #4]
    6e78:	3320      	adds	r3, #32
    6e7a:	4313      	orrs	r3, r2
    6e7c:	81a3      	strh	r3, [r4, #12]
    6e7e:	4240      	negs	r0, r0
    6e80:	e7f3      	b.n	6e6a <__ssrefill_r+0x26>
	...

00006e84 <__ssvfiscanf_r>:
    6e84:	b5f0      	push	{r4, r5, r6, r7, lr}
    6e86:	4cbd      	ldr	r4, [pc, #756]	; (717c <__ssvfiscanf_r+0x2f8>)
    6e88:	2586      	movs	r5, #134	; 0x86
    6e8a:	44a5      	add	sp, r4
    6e8c:	9303      	str	r3, [sp, #12]
    6e8e:	2300      	movs	r3, #0
    6e90:	9348      	str	r3, [sp, #288]	; 0x120
    6e92:	9349      	str	r3, [sp, #292]	; 0x124
    6e94:	ab05      	add	r3, sp, #20
    6e96:	934a      	str	r3, [sp, #296]	; 0x128
    6e98:	23be      	movs	r3, #190	; 0xbe
    6e9a:	006d      	lsls	r5, r5, #1
    6e9c:	9000      	str	r0, [sp, #0]
    6e9e:	000c      	movs	r4, r1
    6ea0:	a802      	add	r0, sp, #8
    6ea2:	49b7      	ldr	r1, [pc, #732]	; (7180 <__ssvfiscanf_r+0x2fc>)
    6ea4:	005b      	lsls	r3, r3, #1
    6ea6:	1940      	adds	r0, r0, r5
    6ea8:	27c0      	movs	r7, #192	; 0xc0
    6eaa:	50c1      	str	r1, [r0, r3]
    6eac:	ab02      	add	r3, sp, #8
    6eae:	195b      	adds	r3, r3, r5
    6eb0:	0015      	movs	r5, r2
    6eb2:	49b4      	ldr	r1, [pc, #720]	; (7184 <__ssvfiscanf_r+0x300>)
    6eb4:	007f      	lsls	r7, r7, #1
    6eb6:	51d9      	str	r1, [r3, r7]
    6eb8:	782b      	ldrb	r3, [r5, #0]
    6eba:	2b00      	cmp	r3, #0
    6ebc:	d100      	bne.n	6ec0 <__ssvfiscanf_r+0x3c>
    6ebe:	e15b      	b.n	7178 <__ssvfiscanf_r+0x2f4>
    6ec0:	f7ff fde2 	bl	6a88 <__locale_ctype_ptr>
    6ec4:	2208      	movs	r2, #8
    6ec6:	782b      	ldrb	r3, [r5, #0]
    6ec8:	18c0      	adds	r0, r0, r3
    6eca:	9301      	str	r3, [sp, #4]
    6ecc:	7843      	ldrb	r3, [r0, #1]
    6ece:	4013      	ands	r3, r2
    6ed0:	d141      	bne.n	6f56 <__ssvfiscanf_r+0xd2>
    6ed2:	9a01      	ldr	r2, [sp, #4]
    6ed4:	1c6e      	adds	r6, r5, #1
    6ed6:	2a25      	cmp	r2, #37	; 0x25
    6ed8:	d000      	beq.n	6edc <__ssvfiscanf_r+0x58>
    6eda:	e0a8      	b.n	702e <__ssvfiscanf_r+0x1aa>
    6edc:	9347      	str	r3, [sp, #284]	; 0x11c
    6ede:	9345      	str	r3, [sp, #276]	; 0x114
    6ee0:	786b      	ldrb	r3, [r5, #1]
    6ee2:	2b2a      	cmp	r3, #42	; 0x2a
    6ee4:	d102      	bne.n	6eec <__ssvfiscanf_r+0x68>
    6ee6:	3b1a      	subs	r3, #26
    6ee8:	9345      	str	r3, [sp, #276]	; 0x114
    6eea:	1cae      	adds	r6, r5, #2
    6eec:	0035      	movs	r5, r6
    6eee:	220a      	movs	r2, #10
    6ef0:	7829      	ldrb	r1, [r5, #0]
    6ef2:	000b      	movs	r3, r1
    6ef4:	3b30      	subs	r3, #48	; 0x30
    6ef6:	2b09      	cmp	r3, #9
    6ef8:	d948      	bls.n	6f8c <__ssvfiscanf_r+0x108>
    6efa:	4ea3      	ldr	r6, [pc, #652]	; (7188 <__ssvfiscanf_r+0x304>)
    6efc:	2203      	movs	r2, #3
    6efe:	0030      	movs	r0, r6
    6f00:	f7fe fb38 	bl	5574 <memchr>
    6f04:	2800      	cmp	r0, #0
    6f06:	d007      	beq.n	6f18 <__ssvfiscanf_r+0x94>
    6f08:	2301      	movs	r3, #1
    6f0a:	1b80      	subs	r0, r0, r6
    6f0c:	4083      	lsls	r3, r0
    6f0e:	9a45      	ldr	r2, [sp, #276]	; 0x114
    6f10:	3501      	adds	r5, #1
    6f12:	4313      	orrs	r3, r2
    6f14:	9202      	str	r2, [sp, #8]
    6f16:	9345      	str	r3, [sp, #276]	; 0x114
    6f18:	782b      	ldrb	r3, [r5, #0]
    6f1a:	1c6e      	adds	r6, r5, #1
    6f1c:	2b67      	cmp	r3, #103	; 0x67
    6f1e:	d858      	bhi.n	6fd2 <__ssvfiscanf_r+0x14e>
    6f20:	2b65      	cmp	r3, #101	; 0x65
    6f22:	d300      	bcc.n	6f26 <__ssvfiscanf_r+0xa2>
    6f24:	e0dd      	b.n	70e2 <__ssvfiscanf_r+0x25e>
    6f26:	2b47      	cmp	r3, #71	; 0x47
    6f28:	d838      	bhi.n	6f9c <__ssvfiscanf_r+0x118>
    6f2a:	2b45      	cmp	r3, #69	; 0x45
    6f2c:	d300      	bcc.n	6f30 <__ssvfiscanf_r+0xac>
    6f2e:	e0d8      	b.n	70e2 <__ssvfiscanf_r+0x25e>
    6f30:	2b00      	cmp	r3, #0
    6f32:	d100      	bne.n	6f36 <__ssvfiscanf_r+0xb2>
    6f34:	e11d      	b.n	7172 <__ssvfiscanf_r+0x2ee>
    6f36:	2b25      	cmp	r3, #37	; 0x25
    6f38:	d079      	beq.n	702e <__ssvfiscanf_r+0x1aa>
    6f3a:	2303      	movs	r3, #3
    6f3c:	934b      	str	r3, [sp, #300]	; 0x12c
    6f3e:	3307      	adds	r3, #7
    6f40:	9346      	str	r3, [sp, #280]	; 0x118
    6f42:	e053      	b.n	6fec <__ssvfiscanf_r+0x168>
    6f44:	9a49      	ldr	r2, [sp, #292]	; 0x124
    6f46:	3301      	adds	r3, #1
    6f48:	9201      	str	r2, [sp, #4]
    6f4a:	3201      	adds	r2, #1
    6f4c:	9249      	str	r2, [sp, #292]	; 0x124
    6f4e:	6862      	ldr	r2, [r4, #4]
    6f50:	6023      	str	r3, [r4, #0]
    6f52:	3a01      	subs	r2, #1
    6f54:	6062      	str	r2, [r4, #4]
    6f56:	6863      	ldr	r3, [r4, #4]
    6f58:	2b00      	cmp	r3, #0
    6f5a:	dd0b      	ble.n	6f74 <__ssvfiscanf_r+0xf0>
    6f5c:	f7ff fd94 	bl	6a88 <__locale_ctype_ptr>
    6f60:	2108      	movs	r1, #8
    6f62:	6823      	ldr	r3, [r4, #0]
    6f64:	781a      	ldrb	r2, [r3, #0]
    6f66:	1880      	adds	r0, r0, r2
    6f68:	7842      	ldrb	r2, [r0, #1]
    6f6a:	420a      	tst	r2, r1
    6f6c:	d1ea      	bne.n	6f44 <__ssvfiscanf_r+0xc0>
    6f6e:	1c6e      	adds	r6, r5, #1
    6f70:	0035      	movs	r5, r6
    6f72:	e7a1      	b.n	6eb8 <__ssvfiscanf_r+0x34>
    6f74:	2286      	movs	r2, #134	; 0x86
    6f76:	ab02      	add	r3, sp, #8
    6f78:	0052      	lsls	r2, r2, #1
    6f7a:	189b      	adds	r3, r3, r2
    6f7c:	59db      	ldr	r3, [r3, r7]
    6f7e:	0021      	movs	r1, r4
    6f80:	9800      	ldr	r0, [sp, #0]
    6f82:	9301      	str	r3, [sp, #4]
    6f84:	4798      	blx	r3
    6f86:	2800      	cmp	r0, #0
    6f88:	d0e8      	beq.n	6f5c <__ssvfiscanf_r+0xd8>
    6f8a:	e7f0      	b.n	6f6e <__ssvfiscanf_r+0xea>
    6f8c:	9b47      	ldr	r3, [sp, #284]	; 0x11c
    6f8e:	3501      	adds	r5, #1
    6f90:	9302      	str	r3, [sp, #8]
    6f92:	4353      	muls	r3, r2
    6f94:	3b30      	subs	r3, #48	; 0x30
    6f96:	1859      	adds	r1, r3, r1
    6f98:	9147      	str	r1, [sp, #284]	; 0x11c
    6f9a:	e7a9      	b.n	6ef0 <__ssvfiscanf_r+0x6c>
    6f9c:	2b5b      	cmp	r3, #91	; 0x5b
    6f9e:	d100      	bne.n	6fa2 <__ssvfiscanf_r+0x11e>
    6fa0:	e077      	b.n	7092 <__ssvfiscanf_r+0x20e>
    6fa2:	d80f      	bhi.n	6fc4 <__ssvfiscanf_r+0x140>
    6fa4:	2b58      	cmp	r3, #88	; 0x58
    6fa6:	d1c8      	bne.n	6f3a <__ssvfiscanf_r+0xb6>
    6fa8:	9a45      	ldr	r2, [sp, #276]	; 0x114
    6faa:	9201      	str	r2, [sp, #4]
    6fac:	2280      	movs	r2, #128	; 0x80
    6fae:	9901      	ldr	r1, [sp, #4]
    6fb0:	0092      	lsls	r2, r2, #2
    6fb2:	430a      	orrs	r2, r1
    6fb4:	9245      	str	r2, [sp, #276]	; 0x114
    6fb6:	2210      	movs	r2, #16
    6fb8:	9246      	str	r2, [sp, #280]	; 0x118
    6fba:	2203      	movs	r2, #3
    6fbc:	2b6e      	cmp	r3, #110	; 0x6e
    6fbe:	dd14      	ble.n	6fea <__ssvfiscanf_r+0x166>
    6fc0:	3201      	adds	r2, #1
    6fc2:	e012      	b.n	6fea <__ssvfiscanf_r+0x166>
    6fc4:	2b63      	cmp	r3, #99	; 0x63
    6fc6:	d100      	bne.n	6fca <__ssvfiscanf_r+0x146>
    6fc8:	e071      	b.n	70ae <__ssvfiscanf_r+0x22a>
    6fca:	2b64      	cmp	r3, #100	; 0x64
    6fcc:	d1b5      	bne.n	6f3a <__ssvfiscanf_r+0xb6>
    6fce:	220a      	movs	r2, #10
    6fd0:	e7f2      	b.n	6fb8 <__ssvfiscanf_r+0x134>
    6fd2:	2b70      	cmp	r3, #112	; 0x70
    6fd4:	d052      	beq.n	707c <__ssvfiscanf_r+0x1f8>
    6fd6:	d822      	bhi.n	701e <__ssvfiscanf_r+0x19a>
    6fd8:	2b6e      	cmp	r3, #110	; 0x6e
    6fda:	d100      	bne.n	6fde <__ssvfiscanf_r+0x15a>
    6fdc:	e06f      	b.n	70be <__ssvfiscanf_r+0x23a>
    6fde:	d854      	bhi.n	708a <__ssvfiscanf_r+0x206>
    6fe0:	2b69      	cmp	r3, #105	; 0x69
    6fe2:	d1aa      	bne.n	6f3a <__ssvfiscanf_r+0xb6>
    6fe4:	2300      	movs	r3, #0
    6fe6:	2203      	movs	r2, #3
    6fe8:	9346      	str	r3, [sp, #280]	; 0x118
    6fea:	924b      	str	r2, [sp, #300]	; 0x12c
    6fec:	6863      	ldr	r3, [r4, #4]
    6fee:	2b00      	cmp	r3, #0
    6ff0:	dc00      	bgt.n	6ff4 <__ssvfiscanf_r+0x170>
    6ff2:	e078      	b.n	70e6 <__ssvfiscanf_r+0x262>
    6ff4:	9b45      	ldr	r3, [sp, #276]	; 0x114
    6ff6:	9301      	str	r3, [sp, #4]
    6ff8:	065b      	lsls	r3, r3, #25
    6ffa:	d400      	bmi.n	6ffe <__ssvfiscanf_r+0x17a>
    6ffc:	e08b      	b.n	7116 <__ssvfiscanf_r+0x292>
    6ffe:	9b4b      	ldr	r3, [sp, #300]	; 0x12c
    7000:	2b02      	cmp	r3, #2
    7002:	dd00      	ble.n	7006 <__ssvfiscanf_r+0x182>
    7004:	e09d      	b.n	7142 <__ssvfiscanf_r+0x2be>
    7006:	ab03      	add	r3, sp, #12
    7008:	0022      	movs	r2, r4
    700a:	a945      	add	r1, sp, #276	; 0x114
    700c:	9800      	ldr	r0, [sp, #0]
    700e:	f7fe fe85 	bl	5d1c <_scanf_chars>
    7012:	2801      	cmp	r0, #1
    7014:	d100      	bne.n	7018 <__ssvfiscanf_r+0x194>
    7016:	e0af      	b.n	7178 <__ssvfiscanf_r+0x2f4>
    7018:	2802      	cmp	r0, #2
    701a:	d1a9      	bne.n	6f70 <__ssvfiscanf_r+0xec>
    701c:	e025      	b.n	706a <__ssvfiscanf_r+0x1e6>
    701e:	2b75      	cmp	r3, #117	; 0x75
    7020:	d0d5      	beq.n	6fce <__ssvfiscanf_r+0x14a>
    7022:	2b78      	cmp	r3, #120	; 0x78
    7024:	d0c0      	beq.n	6fa8 <__ssvfiscanf_r+0x124>
    7026:	2b73      	cmp	r3, #115	; 0x73
    7028:	d187      	bne.n	6f3a <__ssvfiscanf_r+0xb6>
    702a:	2302      	movs	r3, #2
    702c:	e03d      	b.n	70aa <__ssvfiscanf_r+0x226>
    702e:	6863      	ldr	r3, [r4, #4]
    7030:	2b00      	cmp	r3, #0
    7032:	dd0f      	ble.n	7054 <__ssvfiscanf_r+0x1d0>
    7034:	6823      	ldr	r3, [r4, #0]
    7036:	9901      	ldr	r1, [sp, #4]
    7038:	781a      	ldrb	r2, [r3, #0]
    703a:	4291      	cmp	r1, r2
    703c:	d000      	beq.n	7040 <__ssvfiscanf_r+0x1bc>
    703e:	e09b      	b.n	7178 <__ssvfiscanf_r+0x2f4>
    7040:	3301      	adds	r3, #1
    7042:	6862      	ldr	r2, [r4, #4]
    7044:	6023      	str	r3, [r4, #0]
    7046:	9b49      	ldr	r3, [sp, #292]	; 0x124
    7048:	3a01      	subs	r2, #1
    704a:	9301      	str	r3, [sp, #4]
    704c:	3301      	adds	r3, #1
    704e:	6062      	str	r2, [r4, #4]
    7050:	9349      	str	r3, [sp, #292]	; 0x124
    7052:	e78d      	b.n	6f70 <__ssvfiscanf_r+0xec>
    7054:	2286      	movs	r2, #134	; 0x86
    7056:	ab02      	add	r3, sp, #8
    7058:	0052      	lsls	r2, r2, #1
    705a:	189b      	adds	r3, r3, r2
    705c:	59db      	ldr	r3, [r3, r7]
    705e:	0021      	movs	r1, r4
    7060:	9800      	ldr	r0, [sp, #0]
    7062:	9302      	str	r3, [sp, #8]
    7064:	4798      	blx	r3
    7066:	2800      	cmp	r0, #0
    7068:	d0e4      	beq.n	7034 <__ssvfiscanf_r+0x1b0>
    706a:	9848      	ldr	r0, [sp, #288]	; 0x120
    706c:	2800      	cmp	r0, #0
    706e:	d000      	beq.n	7072 <__ssvfiscanf_r+0x1ee>
    7070:	e07b      	b.n	716a <__ssvfiscanf_r+0x2e6>
    7072:	3801      	subs	r0, #1
    7074:	23a7      	movs	r3, #167	; 0xa7
    7076:	009b      	lsls	r3, r3, #2
    7078:	449d      	add	sp, r3
    707a:	bdf0      	pop	{r4, r5, r6, r7, pc}
    707c:	9a45      	ldr	r2, [sp, #276]	; 0x114
    707e:	9201      	str	r2, [sp, #4]
    7080:	2220      	movs	r2, #32
    7082:	9901      	ldr	r1, [sp, #4]
    7084:	430a      	orrs	r2, r1
    7086:	9245      	str	r2, [sp, #276]	; 0x114
    7088:	e78e      	b.n	6fa8 <__ssvfiscanf_r+0x124>
    708a:	2308      	movs	r3, #8
    708c:	2204      	movs	r2, #4
    708e:	9346      	str	r3, [sp, #280]	; 0x118
    7090:	e7ab      	b.n	6fea <__ssvfiscanf_r+0x166>
    7092:	0031      	movs	r1, r6
    7094:	a805      	add	r0, sp, #20
    7096:	f7ff f897 	bl	61c8 <__sccl>
    709a:	9b45      	ldr	r3, [sp, #276]	; 0x114
    709c:	0006      	movs	r6, r0
    709e:	9301      	str	r3, [sp, #4]
    70a0:	2340      	movs	r3, #64	; 0x40
    70a2:	9a01      	ldr	r2, [sp, #4]
    70a4:	4313      	orrs	r3, r2
    70a6:	9345      	str	r3, [sp, #276]	; 0x114
    70a8:	2301      	movs	r3, #1
    70aa:	934b      	str	r3, [sp, #300]	; 0x12c
    70ac:	e79e      	b.n	6fec <__ssvfiscanf_r+0x168>
    70ae:	9b45      	ldr	r3, [sp, #276]	; 0x114
    70b0:	9301      	str	r3, [sp, #4]
    70b2:	2340      	movs	r3, #64	; 0x40
    70b4:	9a01      	ldr	r2, [sp, #4]
    70b6:	4313      	orrs	r3, r2
    70b8:	9345      	str	r3, [sp, #276]	; 0x114
    70ba:	2300      	movs	r3, #0
    70bc:	e7f5      	b.n	70aa <__ssvfiscanf_r+0x226>
    70be:	9945      	ldr	r1, [sp, #276]	; 0x114
    70c0:	06cb      	lsls	r3, r1, #27
    70c2:	d500      	bpl.n	70c6 <__ssvfiscanf_r+0x242>
    70c4:	e754      	b.n	6f70 <__ssvfiscanf_r+0xec>
    70c6:	9b03      	ldr	r3, [sp, #12]
    70c8:	9a49      	ldr	r2, [sp, #292]	; 0x124
    70ca:	07c8      	lsls	r0, r1, #31
    70cc:	d504      	bpl.n	70d8 <__ssvfiscanf_r+0x254>
    70ce:	1d19      	adds	r1, r3, #4
    70d0:	9103      	str	r1, [sp, #12]
    70d2:	681b      	ldr	r3, [r3, #0]
    70d4:	801a      	strh	r2, [r3, #0]
    70d6:	e74b      	b.n	6f70 <__ssvfiscanf_r+0xec>
    70d8:	1d19      	adds	r1, r3, #4
    70da:	9103      	str	r1, [sp, #12]
    70dc:	681b      	ldr	r3, [r3, #0]
    70de:	601a      	str	r2, [r3, #0]
    70e0:	e746      	b.n	6f70 <__ssvfiscanf_r+0xec>
    70e2:	2305      	movs	r3, #5
    70e4:	e7e1      	b.n	70aa <__ssvfiscanf_r+0x226>
    70e6:	2286      	movs	r2, #134	; 0x86
    70e8:	ab02      	add	r3, sp, #8
    70ea:	0052      	lsls	r2, r2, #1
    70ec:	189b      	adds	r3, r3, r2
    70ee:	59db      	ldr	r3, [r3, r7]
    70f0:	0021      	movs	r1, r4
    70f2:	9800      	ldr	r0, [sp, #0]
    70f4:	9301      	str	r3, [sp, #4]
    70f6:	4798      	blx	r3
    70f8:	2800      	cmp	r0, #0
    70fa:	d100      	bne.n	70fe <__ssvfiscanf_r+0x27a>
    70fc:	e77a      	b.n	6ff4 <__ssvfiscanf_r+0x170>
    70fe:	e7b4      	b.n	706a <__ssvfiscanf_r+0x1e6>
    7100:	9a49      	ldr	r2, [sp, #292]	; 0x124
    7102:	9201      	str	r2, [sp, #4]
    7104:	3201      	adds	r2, #1
    7106:	9249      	str	r2, [sp, #292]	; 0x124
    7108:	6862      	ldr	r2, [r4, #4]
    710a:	3a01      	subs	r2, #1
    710c:	6062      	str	r2, [r4, #4]
    710e:	2a00      	cmp	r2, #0
    7110:	dd0b      	ble.n	712a <__ssvfiscanf_r+0x2a6>
    7112:	3301      	adds	r3, #1
    7114:	6023      	str	r3, [r4, #0]
    7116:	f7ff fcb7 	bl	6a88 <__locale_ctype_ptr>
    711a:	2108      	movs	r1, #8
    711c:	6823      	ldr	r3, [r4, #0]
    711e:	781a      	ldrb	r2, [r3, #0]
    7120:	1880      	adds	r0, r0, r2
    7122:	7842      	ldrb	r2, [r0, #1]
    7124:	420a      	tst	r2, r1
    7126:	d1eb      	bne.n	7100 <__ssvfiscanf_r+0x27c>
    7128:	e769      	b.n	6ffe <__ssvfiscanf_r+0x17a>
    712a:	2286      	movs	r2, #134	; 0x86
    712c:	ab02      	add	r3, sp, #8
    712e:	0052      	lsls	r2, r2, #1
    7130:	189b      	adds	r3, r3, r2
    7132:	59db      	ldr	r3, [r3, r7]
    7134:	0021      	movs	r1, r4
    7136:	9800      	ldr	r0, [sp, #0]
    7138:	9301      	str	r3, [sp, #4]
    713a:	4798      	blx	r3
    713c:	2800      	cmp	r0, #0
    713e:	d0ea      	beq.n	7116 <__ssvfiscanf_r+0x292>
    7140:	e793      	b.n	706a <__ssvfiscanf_r+0x1e6>
    7142:	2b04      	cmp	r3, #4
    7144:	dc06      	bgt.n	7154 <__ssvfiscanf_r+0x2d0>
    7146:	ab03      	add	r3, sp, #12
    7148:	0022      	movs	r2, r4
    714a:	a945      	add	r1, sp, #276	; 0x114
    714c:	9800      	ldr	r0, [sp, #0]
    714e:	f7fe fe49 	bl	5de4 <_scanf_i>
    7152:	e75e      	b.n	7012 <__ssvfiscanf_r+0x18e>
    7154:	4b0d      	ldr	r3, [pc, #52]	; (718c <__ssvfiscanf_r+0x308>)
    7156:	2b00      	cmp	r3, #0
    7158:	d100      	bne.n	715c <__ssvfiscanf_r+0x2d8>
    715a:	e709      	b.n	6f70 <__ssvfiscanf_r+0xec>
    715c:	ab03      	add	r3, sp, #12
    715e:	0022      	movs	r2, r4
    7160:	a945      	add	r1, sp, #276	; 0x114
    7162:	9800      	ldr	r0, [sp, #0]
    7164:	e000      	b.n	7168 <__ssvfiscanf_r+0x2e4>
    7166:	bf00      	nop
    7168:	e753      	b.n	7012 <__ssvfiscanf_r+0x18e>
    716a:	89a3      	ldrh	r3, [r4, #12]
    716c:	065b      	lsls	r3, r3, #25
    716e:	d400      	bmi.n	7172 <__ssvfiscanf_r+0x2ee>
    7170:	e780      	b.n	7074 <__ssvfiscanf_r+0x1f0>
    7172:	2001      	movs	r0, #1
    7174:	4240      	negs	r0, r0
    7176:	e77d      	b.n	7074 <__ssvfiscanf_r+0x1f0>
    7178:	9848      	ldr	r0, [sp, #288]	; 0x120
    717a:	e77b      	b.n	7074 <__ssvfiscanf_r+0x1f0>
    717c:	fffffd64 	.word	0xfffffd64
    7180:	00006dcd 	.word	0x00006dcd
    7184:	00006e45 	.word	0x00006e45
    7188:	0000792a 	.word	0x0000792a
    718c:	00000000 	.word	0x00000000

00007190 <_read_r>:
    7190:	b570      	push	{r4, r5, r6, lr}
    7192:	0005      	movs	r5, r0
    7194:	0008      	movs	r0, r1
    7196:	0011      	movs	r1, r2
    7198:	2200      	movs	r2, #0
    719a:	4c06      	ldr	r4, [pc, #24]	; (71b4 <_read_r+0x24>)
    719c:	6022      	str	r2, [r4, #0]
    719e:	001a      	movs	r2, r3
    71a0:	f7fc fbe2 	bl	3968 <_read>
    71a4:	1c43      	adds	r3, r0, #1
    71a6:	d103      	bne.n	71b0 <_read_r+0x20>
    71a8:	6823      	ldr	r3, [r4, #0]
    71aa:	2b00      	cmp	r3, #0
    71ac:	d000      	beq.n	71b0 <_read_r+0x20>
    71ae:	602b      	str	r3, [r5, #0]
    71b0:	bd70      	pop	{r4, r5, r6, pc}
    71b2:	46c0      	nop			; (mov r8, r8)
    71b4:	20000e60 	.word	0x20000e60

000071b8 <__ascii_wctomb>:
    71b8:	1e0b      	subs	r3, r1, #0
    71ba:	d004      	beq.n	71c6 <__ascii_wctomb+0xe>
    71bc:	2aff      	cmp	r2, #255	; 0xff
    71be:	d904      	bls.n	71ca <__ascii_wctomb+0x12>
    71c0:	238a      	movs	r3, #138	; 0x8a
    71c2:	6003      	str	r3, [r0, #0]
    71c4:	3b8b      	subs	r3, #139	; 0x8b
    71c6:	0018      	movs	r0, r3
    71c8:	4770      	bx	lr
    71ca:	700a      	strb	r2, [r1, #0]
    71cc:	2301      	movs	r3, #1
    71ce:	e7fa      	b.n	71c6 <__ascii_wctomb+0xe>

000071d0 <_init>:
    71d0:	b5f8      	push	{r3, r4, r5, r6, r7, lr}
    71d2:	46c0      	nop			; (mov r8, r8)
    71d4:	bcf8      	pop	{r3, r4, r5, r6, r7}
    71d6:	bc08      	pop	{r3}
    71d8:	469e      	mov	lr, r3
    71da:	4770      	bx	lr

000071dc <_fini>:
    71dc:	b5f8      	push	{r3, r4, r5, r6, r7, lr}
    71de:	46c0      	nop			; (mov r8, r8)
    71e0:	bcf8      	pop	{r3, r4, r5, r6, r7}
    71e2:	bc08      	pop	{r3}
    71e4:	469e      	mov	lr, r3
    71e6:	4770      	bx	lr

000071e8 <void mbed::Callback<void ()>::generate<void (*)()>(void (* const&)())::ops>:
    71e8:	0471 0000 0479 0000 0483 0000 6548 6c6c     q...y.......Hell
    71f8:	206f 6f57 6c72 0a64 0000 0000               o World.....

00007204 <vtable for TextLCD>:
	...
    720c:	079d 0000 07b9 0000 3257 0000 3221 0000     ........W2..!2..
    721c:	3293 0000 3293 0000 3293 0000 3289 0000     .2...2...2...2..
    722c:	328d 0000 3291 0000 3297 0000 07cb 0000     .2...2...2......
    723c:	07d5 0000 07df 0000 07e9 0000 07eb 0000     ................
    724c:	0a0d 0000 07ed 0000                         ........

00007254 <us_data>:
    7254:	725c 0000 f41c 1fff                         \r......

0000725c <us_interface>:
    725c:	2435 0000 2619 0000 2639 0000 2649 0000     5$...&..9&..I&..
    726c:	264d 0000 6970 6d6e 7061 6d20 7369 6d2d     M&..pinmap mis-m
    727c:	7461 6863 7000 6e69 616d 2070 6f6e 2074     atch.pinmap not 
    728c:	6f66 6e75 2064 6f66 2072 6570 6972 6870     found for periph
    729c:	7265 6c61 6300 756f 646c 6e20 746f 7020     eral.could not p
    72ac:	6e69 756f 0074 0000                         inout...

000072b4 <mp_stk_size>:
    72b4:	0210 0000                                   ....

000072b8 <mp_tcb_size>:
    72b8:	01cc                                        ..

000072ba <mp_tmr_size>:
	...

000072bc <os_clockrate>:
    72bc:	03e8 0000 5452 2058 7265 6f72 2072 6f63     ....RTX error co
    72cc:	6564 203a 7830 3025 5838 202c 6174 6b73     de: 0x%08X, task
    72dc:	4920 3a44 3020 2578 3830 0a58 1000                ID: 0x%08X..

000072e9 <os_fifo_size>:
    72e9:	0110                                             .

000072ea <os_flags>:
    72ea:	0001                                        ..

000072ec <os_maxtaskrun>:
    72ec:	0007 0000                                   ....

000072f0 <os_messageQ_def_osTimerMessageQ>:
    72f0:	0004 0000 f440 1fff                         ....@...

000072f8 <os_mutex_def_env_mutex>:
    72f8:	f460 1fff                                   `...

000072fc <os_mutex_def_malloc_mutex>:
    72fc:	f470 1fff                                   p...

00007300 <os_mutex_def_singleton_mutex>:
    7300:	f480 1fff                                   ....

00007304 <os_rrobin>:
    7304:	0005 0001                                   ....

00007308 <os_stackinfo>:
    7308:	0200 0100                                   ....

0000730c <os_thread_def_osTimerThread>:
    730c:	1c21 0000 0002 0000 0001 0000 0320 0000     !........... ...
    731c:	08d0 2000                                   ... 

00007320 <os_trv>:
    7320:	bb7f 0000                                   ....

00007324 <os_mutex_def_osThreadMutex>:
    7324:	0494 2000                                   ... 

00007328 <PinMap_PWM>:
    7328:	0000 0000 0005 0000 0003 0000 0004 0000     ................
    7338:	0200 0000 0003 0000 0008 0000 0201 0000     ................
    7348:	0003 0000 000c 0000 0000 0000 0003 0000     ................
    7358:	0010 0000 0001 0000 0003 0000 0014 0000     ................
    7368:	0002 0000 0003 0000 0030 0000 0100 0000     ........0.......
    7378:	0003 0000 0034 0000 0101 0000 0003 0000     ....4...........
    7388:	1000 0000 0100 0000 0003 0000 1004 0000     ................
    7398:	0101 0000 0003 0000 1008 0000 0200 0000     ................
    73a8:	0003 0000 100c 0000 0201 0000 0003 0000     ................
    73b8:	1048 0000 0200 0000 0003 0000 104c 0000     H...........L...
    73c8:	0201 0000 0003 0000 2004 0000 0000 0000     ......... ......
    73d8:	0004 0000 2008 0000 0001 0000 0004 0000     ..... ..........
    73e8:	200c 0000 0002 0000 0004 0000 2010 0000     . ........... ..
    73f8:	0003 0000 0004 0000 2020 0000 0004 0000     ........  ......
    7408:	0003 0000 2024 0000 0005 0000 0003 0000     ....$ ..........
    7418:	3000 0000 0000 0000 0004 0000 3004 0000     .0...........0..
    7428:	0001 0000 0004 0000 3008 0000 0002 0000     .........0......
    7438:	0004 0000 300c 0000 0003 0000 0004 0000     .....0..........
    7448:	3010 0000 0004 0000 0004 0000 3014 0000     .0...........0..
    7458:	0005 0000 0004 0000 4050 0000 0100 0000     ........P@......
    7468:	0003 0000 4054 0000 0101 0000 0003 0000     ....T@..........
    7478:	4058 0000 0200 0000 0003 0000 405c 0000     X@..........\@..
    7488:	0201 0000 0003 0000 4060 0000 0000 0000     ........`@......
    7498:	0003 0000 4064 0000 0001 0000 0003 0000     ....d@..........
    74a8:	4068 0000 0005 0000 0003 0000 4074 0000     h@..........t@..
    74b8:	0002 0000 0003 0000 4078 0000 0003 0000     ........x@......
    74c8:	0003 0000 407c 0000 0004 0000 0003 0000     ....|@..........
    74d8:	ffff 0000 ffff ffff 0000 0000               ............

000074e4 <PinMap_UART_RX>:
    74e4:	200c 0000 b000 4006 0003 0000 0004 0000     . .....@........
    74f4:	a000 4006 0002 0000 3010 0000 c000 4006     ...@.....0.....@
    7504:	0003 0000 3008 0000 c000 4006 0003 0000     .....0.....@....
    7514:	3018 0000 a000 4006 0003 0000 405c 0000     .0.....@....\@..
    7524:	c000 4006 0004 0000 4054 0000 a000 4006     ...@....T@.....@
    7534:	0004 0000 4004 0000 b000 4006 0003 0000     .....@.....@....
    7544:	ffff 0000 ffff ffff 0000 0000               ............

00007550 <PinMap_UART_TX>:
    7550:	2010 0000 b000 4006 0003 0000 0008 0000     . .....@........
    7560:	a000 4006 0002 0000 3014 0000 c000 4006     ...@.....0.....@
    7570:	0003 0000 300c 0000 c000 4006 0003 0000     .....0.....@....
    7580:	301c 0000 a000 4006 0003 0000 4050 0000     .0.....@....P@..
    7590:	a000 4006 0004 0000 4058 0000 c000 4006     ...@....X@.....@
    75a0:	0004 0000 4000 0000 b000 4006 0003 0000     .....@.....@....
    75b0:	ffff 0000 ffff ffff 0000 0000               ............

000075bc <vtable for mbed::Serial>:
	...
    75c4:	2fe9 0000 3009 0000 0605 0000 06cd 0000     ./...0..........
    75d4:	2fb9 0000 2fd1 0000 ffd0 ffff 0000 0000     ./.../..........
    75e4:	0631 0000 06df 0000 3257 0000 3221 0000     1.......W2..!2..
    75f4:	3293 0000 3293 0000 3293 0000 3289 0000     .2...2...2...2..
    7604:	328d 0000 3291 0000 3297 0000 07cb 0000     .2...2...2......
    7614:	07d5 0000 07df 0000 2ff9 0000 3015 0000     ........./...0..
    7624:	2fd9 0000 2fc1 0000                         ./.../..

0000762c <vtable for mbed::BusOut>:
	...
    7634:	3059 0000 3089 0000 309b 0000 30a9 0000     Y0...0...0...0..

00007644 <vtable for mbed::FileLike>:
	...
    7654:	0a9f 0000 0a9f 0000 0a9f 0000 0a9f 0000     ................
    7664:	0a9f 0000 0a9f 0000 0a9f 0000 0a9f 0000     ................
    7674:	0a9f 0000 07cb 0000 07d5 0000 07df 0000     ................
    7684:	07e9 0000 07eb 0000 253a 0070 2b77 0000     ........:%p.w+..

00007694 <vtable for mbed::Stream>:
	...
    76a4:	3257 0000 3221 0000 3293 0000 3293 0000     W2..!2...2...2..
    76b4:	3293 0000 3289 0000 328d 0000 3291 0000     .2...2...2...2..
    76c4:	3297 0000 07cb 0000 07d5 0000 07df 0000     .2..............
    76d4:	07e9 0000 07eb 0000 0a9f 0000 0a9f 0000     ................

000076e4 <vtable for mbed::FileBase>:
	...
    76ec:	33ed 0000 344d 0000                         .3..M4..

000076f4 <vtable for mbed::SerialBase>:
	...
    76fc:	357d 0000 357f 0000 05c5 0000 05f1 0000     }5...5..........

0000770c <vtable for mbed::File>:
	...
    7714:	37a5 0000 37d1 0000 36f3 0000 3707 0000     .7...7...6...7..
    7724:	36d5 0000 371b 0000 372b 0000 373b 0000     .6...7..+7..;7..
    7734:	374f 0000 375f 0000 376f 0000 07cb 0000     O7.._7..o7......
    7744:	07d5 0000 07df 0000 07e9 0000 07eb 0000     ................
    7754:	377f 0000                                   .7..

00007758 <vtable for ManagedFile>:
	...
    7760:	3879 0000 3b41 0000 36f3 0000 3707 0000     y8..A;...6...7..
    7770:	3d19 0000 371b 0000 372b 0000 373b 0000     .=...7..+7..;7..
    7780:	374f 0000 375f 0000 376f 0000 07cb 0000     O7.._7..o7......
    7790:	07d5 0000 07df 0000 07e9 0000 07eb 0000     ................
    77a0:	377f 0000 704f 7265 7461 726f 6e20 7765     .7..Operator new
    77b0:	6f20 7475 6f20 2066 656d 6f6d 7972 0a0d      out of memory..
	...

000077c1 <__stderr_name>:
    77c1:	732f 6474 7265 0072                         /stderr.

000077c9 <__stdin_name>:
    77c9:	732f 6474 6e69 2f00                              /stdin.

000077d0 <__stdout_name>:
    77d0:	732f 6474 756f 0074 7245 6f72 2072 6e69     /stdout.Error in
    77e0:	7469 6169 696c 697a 676e 7420 6568 6d20     itializing the m
    77f0:	7475 7865 6f20 6a62 6365 0a74 0000 0000     utex object.....
    7800:	4434 0000 4404 0000 4416 0000 4358 0000     4D...D...D..XC..
    7810:	4416 0000 43fa 0000 4416 0000 4358 0000     .D...C...D..XC..
    7820:	4404 0000 4404 0000 43fa 0000 4358 0000     .D...D...C..XC..
    7830:	4360 0000 4360 0000 4360 0000 441c 0000     `C..`C..`C...D..
    7840:	4404 0000 4404 0000 43d8 0000 44bc 0000     .D...D...C...D..
    7850:	43d8 0000 43fa 0000 43d8 0000 44bc 0000     .C...C...C...D..
    7860:	4404 0000 4404 0000 43fa 0000 44bc 0000     .D...D...C...D..
    7870:	4360 0000 4360 0000 4360 0000 44c6 0000     `C..`C..`C...D..
    7880:	47b4 0000 4704 0000 4704 0000 4702 0000     .G...G...G...G..
    7890:	47a6 0000 47a6 0000 479c 0000 4702 0000     .G...G...G...G..
    78a0:	47a6 0000 479c 0000 47a6 0000 4702 0000     .G...G...G...G..
    78b0:	47ac 0000 47ac 0000 47ac 0000 483c 0000     .G...G...G..<H..

000078c0 <__sf_fake_stderr>:
	...

000078e0 <__sf_fake_stdin>:
	...

00007900 <__sf_fake_stdout>:
	...

00007920 <_global_impure_ptr>:
    7920:	f0ec 1fff 2d23 2b30 0020 6c68 004c 6665     ....#-0+ .hlL.ef
    7930:	4567 4746 3000 3231 3433 3635 3837 4139     gEFG.0123456789A
    7940:	4342 4544 0046 3130 3332 3534 3736 3938     BCDEF.0123456789
    7950:	6261 6463 6665 0000 7976 0000 7979 0000     abcdef..vy..yy..
    7960:	797c 0000 2d41 6146 662d 3938 3130 3332     |y..A-Fa-f890123
    7970:	3534 3736 005d 2d2b 3000 0030 5878 4300     4567].+-.00.xX.C
    7980:	5000 534f 5849 2e00 0000                         .POSIX...

00007989 <_ctype_>:
    7989:	2000 2020 2020 2020 2020 2828 2828 2028     .         ((((( 
    7999:	2020 2020 2020 2020 2020 2020 2020 2020                     
    79a9:	8820 1010 1010 1010 1010 1010 1010 1010      ...............
    79b9:	0410 0404 0404 0404 0404 1004 1010 1010     ................
    79c9:	1010 4141 4141 4141 0101 0101 0101 0101     ..AAAAAA........
    79d9:	0101 0101 0101 0101 0101 0101 1010 1010     ................
    79e9:	1010 4242 4242 4242 0202 0202 0202 0202     ..BBBBBB........
    79f9:	0202 0202 0202 0202 0202 0202 1010 1010     ................
    7a09:	0020 0000 0000 0000 0000 0000 0000 0000      ...............
	...

00007a8c <__EH_FRAME_BEGIN__>:
    7a8c:	0000 0000                                   ....
